#SYMBOLS
Index	Identifier	Type	Flag	Data	Size	RefCount
0	__D0reverseDirection	6	1	0	4	8
1	__DU0reading	5	1	4	4	8
2	__D0scanningArenaLeft	6	1	8	4	6
3	__DU0reverseDirection	5	1	12	4	2
4	__D0reading	6	1	16	4	45
5	__DU0moveTowardObj	5	1	20	4	8
6	__D0moveTowardObj	6	1	24	4	12
7	__D0PlaySound	6	1	28	4	48
8	__D0open	6	1	32	4	2
9	__D0SetSensorLowspeed_inline_init	6	1	36	4	6
10	__DU0SetSensorLowspeed_inline_goToPredefined	5	1	40	4	2
11	__signed_stack_001backtoOrigin	6	1	44	4	2
12	__DU0SetSensorLowspeed_inline_init	5	1	48	4	4
13	__D0SetSensorLowspeed_inline_goToPredefined	6	1	52	4	3
14	__D0scanningArenaRight	6	1	56	4	6
15	__DU0scanningArenaLeft	5	1	60	4	2
16	__D0throwBall	6	1	64	4	4
17	__DU0scanningArenaRight	5	1	68	4	2
18	__D0moveFwd	6	1	72	4	2
19	__D0checkWallBack	6	1	76	4	3
20	__DU0checkandthrow	5	1	80	4	3
21	__D0close	6	1	84	4	2
22	__DU0checkWallBack	5	1	88	4	3
23	__D0checkandthrow	6	1	92	4	8
24	__RLSBmutex2	9	0	96	4	2
25	__RLSBmutex1	9	0	100	4	6
26	__D0backtoOrigin	6	1	104	4	13
27	__SPTArgsMutex	9	0	108	4	14
28	__D0isNotField	6	1	112	4	20
29	__D0init	6	1	116	4	7
30	__D0moveBwd	6	1	120	4	2
31	__DU0isNotField	5	1	124	4	2
32	__D0goToPredefined	6	1	128	4	49
33	__D0getDegreeDiff	6	1	132	4	7
34	__D0containBalls	6	1	136	4	6
35	__DU0getObjColor	5	1	140	4	5
36	__D0getObjColor	6	1	144	4	1
37	__signed_stack_001checkandthrow	6	1	148	4	2
38	moveMutex	9	0	152	4	8
39	__Wait_7qG2_ms_7qG2_000_inline_stopRotor	5	1	156	4	2
40	__Wait_7qG2_ms_7qG2_000_inline_throwBall	5	1	160	4	4
41	__Wait_7qG2_ms_7qG2_000_inline_init	5	1	164	4	2
42	__signed_stack_001throwBall	6	1	168	4	4
43	__signed_stack_001reading	6	1	172	4	22
44	__signed_stack_003PlaySound	6	1	176	4	14
45	__unsigned_stack_001reading	5	1	180	4	2
46	__signed_stack_002reading	6	1	184	4	12
47	__Wait_7qG2_ms_7qG2_000_inline_goToPredefined	5	1	188	4	6
48	__Wait_7qG2_ms_7qG2_000_inline_containBalls	5	1	192	4	4
49	__Wait_7qG2_ms_7qG2_000_inline_scanningArenaRight	5	1	196	4	2
50	__Wait_7qG2_ms_7qG2_000_inline_scanningArenaLeft	5	1	200	4	2
51	__Wait_7qG2_ms_7qG2_000_inline_reading	5	1	204	4	4
52	__Wait_7qG2_ms_7qG2_000_inline_moveFwd	5	1	208	4	2
53	__Wait_7qG2_ms_7qG2_000_inline_checkandthrow	5	1	212	4	2
54	__Wait_7qG2_ms_7qG2_000_inline_reverseDirection	5	1	216	4	2
55	__Wait_7qG2_ms_7qG2_000_inline_moveBwd	5	1	220	4	2
56	__signed_stack_002PlaySound	6	1	224	4	14
57	__signed_stack_004close	6	1	228	4	2
58	__signed_stack_003close	6	1	232	4	2
59	__signed_stack_001getDegreeDiff	6	1	236	4	2
60	__signed_stack_001containBalls	6	1	240	4	6
61	__signed_stack_002close	6	1	244	4	2
62	__unsigned_stack_002checkandthrow	5	1	248	4	2
63	__unsigned_stack_001checkandthrow	5	1	252	4	2
64	__signed_stack_001close	6	1	256	4	2
65	__signed_stack_001checkWallBack	6	1	260	4	2
66	__signed_stack_001moveTowardObj	6	1	264	4	6
67	__signed_stack_001moveFwd	6	1	268	4	2
68	__signed_stack_001PlaySound	6	1	272	4	38
69	__signed_stack_001open	6	1	276	4	2
70	__signed_stack_001moveBwd	6	1	280	4	2
71	__signed_stack_001isNotField	6	1	284	4	6
72	__signed_stack_001goToPredefined	6	1	288	4	30
73	__unsigned_stack_002isNotField	5	1	292	4	6
74	__unsigned_stack_001isNotField	5	1	296	4	2
75	__CLSRMutex2	9	0	300	4	2
76	__TextOutMutex	9	0	304	4	12
77	__CLSWMutex2	9	0	308	4	2
78	__ResetSensorMutex	9	0	312	4	8
79	__rotateMutex2	9	0	316	4	22
80	__rotateMutex1	9	0	320	4	22
81	__PointOutMutex	9	0	324	4	2
82	__RLSBmutex0	9	0	328	4	12
83	__CLSCSMutex0	9	0	332	4	2
84	__CLSCSMutex1	9	0	336	4	2
85	__CLSWMutex0	9	0	340	4	2
86	__CLSRMutex0	9	0	344	4	2
87	__CLSRMutex1	9	0	348	4	2
88	__CLSCSMutex2	9	0	352	4	2
89	__rotate_angle6	6	1	356	4	15
90	__CLSWMutex1	9	0	360	4	2
91	__rotateMutex0	9	0	364	4	22
92	__rotate_theAngle6	5	1	368	4	2
93	__OnRevMutex	9	0	372	4	18
94	relBearing	4	1	376	2	6
95	__rotate_OldRotCount6	4	1	378	2	2
96	__moveBwd_7qG2_moveTime_7qG2_000	4	1	380	2	2
97	__reverseDirection_7qG2_moveTime_7qG2_000	4	1	382	2	2
98	__rotate_RotCount6	4	1	384	2	4
99	ownGoal	4	1	386	2	4
100	__constVal150	4	0	388	2	1
101	__PlaySound_7qG2_aCode_7qG2_000	4	1	390	2	7
102	__constVal523	4	0	392	2	3
103	currentCompass	4	1	394	2	4
104	__constVal500	4	0	396	2	1
105	__getDegreeDiff_7qG2_diff_7qG2_000	4	1	398	2	5
106	__PlaySound_7qG2_i_7qG2_001	4	1	400	2	15
107	__getDegreeDiff_7qG2_current_7qG2_000	4	1	402	2	2
108	__open_7qG2_angle_7qG2_000	4	1	404	2	9
109	__constVal360	4	0	406	2	1
110	__getDegreeDiff_7qG2_old_7qG2_000	4	1	408	2	2
111	__moveFwd_7qG2_moveTime_7qG2_000	4	1	410	2	3
112	__constVal200	4	0	412	2	3
113	____initialize_global_data_return	1	1	414	1	3
114	__PlaySound_return	1	1	415	1	3
115	__SetSensorLowspeed_7qG2_port_7qG2_000_inline_init	1	1	416	1	8
116	__rotate_stop6	1	1	417	1	12
117	__stopRotor_return	1	1	418	1	13
118	__SetSensorType_7qG2_port_7qG2_000_inline_SetSensorLowspeed_inline_init	1	1	419	1	4
119	__rotate_sync6	1	1	420	1	12
120	__SetSensorLowspeed_7qG2_bIsPowered_7qG2_000_inline_init	1	1	421	1	4
121	scanningRight	1	1	422	1	9
122	RMotor	1	1	423	1	9
123	LMotor	1	0	424	1	10
124	GMotor	1	0	425	1	3
125	scanningLeft	1	0	426	1	3
126	__constVal96	2	0	427	1	59
127	__rotate_firstPort6	1	1	428	1	5
128	__constVal63	2	0	429	1	48
129	__open_return	1	1	430	1	10
130	__close_return	1	1	431	1	7
131	__SetSensorType_7qG2_type_7qG2_000_inline_SetSensorLowspeed_inline_init	1	1	432	1	4
132	__ClearSensor_7qG2_port_7qG2_000_inline_reading	1	1	433	1	2
133	__checkWallBack_return	1	1	434	1	5
134	__OnRev_Tmp	2	1	435	1	18
135	__reading_7qG2_grab_7qG2_004	1	1	436	1	4
136	__moveBwd_return	1	1	437	1	3
137	__ClearSensor_7qG2_port_7qG2_000_inline_moveTowardObj	1	1	438	1	2
138	__moveTowardObj_7qG2_meetWall_7qG2_000	1	1	439	1	4
139	__moveFwd_return	1	1	440	1	4
140	__changeDirection_return	1	1	441	1	4
141	__SetSensorMode_7qG2_mode_7qG2_000_inline_SetSensorLowspeed_inline_goToPredefined	1	1	442	1	2
142	__SetSensorMode_7qG2_port_7qG2_000_inline_SetSensorLowspeed_inline_goToPredefined	1	1	443	1	2
143	__ClearSensor_7qG2_port_7qG2_000_inline_goToPredefined	1	1	444	1	6
144	__ResetSensor_7qG2_port_7qG2_000_inline_SetSensorLowspeed_inline_goToPredefined	1	1	445	1	2
145	__SetSensorType_7qG2_type_7qG2_000_inline_SetSensorLowspeed_inline_goToPredefined	1	1	446	1	2
146	__SetSensorLowspeed_7qG2_port_7qG2_000_inline_goToPredefined	1	1	447	1	4
147	__goToPredefined_return	1	1	448	1	3
148	__SetSensorType_7qG2_port_7qG2_000_inline_SetSensorLowspeed_inline_goToPredefined	1	1	449	1	2
149	__SetSensorLowspeed_7qG2_bIsPowered_7qG2_000_inline_goToPredefined	1	1	450	1	2
150	__moveTowardObj_return	1	1	451	1	5
151	__getDegreeDiff_return	1	1	452	1	4
152	__containBalls_return	1	1	453	1	3
153	__reverseDirection_return	1	1	454	1	3
154	__backtoOrigin_return	1	1	455	1	4
155	__ClearSensor_7qG2_port_7qG2_000_inline_init	1	1	456	1	2
156	__SetSensorMode_7qG2_mode_7qG2_000_inline_SetSensorLowspeed_inline_init	1	1	457	1	4
157	__SetSensorMode_7qG2_port_7qG2_000_inline_SetSensorLowspeed_inline_init	1	1	458	1	4
158	__SetSensorTouch_7qG2_port_7qG2_000_inline_init	1	1	459	1	4
159	__ResetSensor_7qG2_port_7qG2_000_inline_SetSensorLowspeed_inline_init	1	1	460	1	4
160	__isNotField_7qG2_output_7qG2_000	1	1	461	1	4
161	__isNotField_return	1	1	462	1	4
162	__checkandthrow_7qG2_output_7qG2_000	1	1	463	1	2
163	__checkandthrow_return	1	1	464	1	5
164	__getObjColor_7qG2_output_7qG2_000	1	1	465	1	3
165	__throwBall_return	1	1	466	1	5
166	__constValNeg40	2	0	467	1	1
167	__getObjColor_return	1	1	468	1	5
168	__rotate_power6	1	1	469	1	14
169	__RLSBResult2	2	1	470	1	8
170	__zfreading	1	1	471	1	24
171	____ReadLSBytes2_return	1	1	472	1	3
172	__zfPlaySound	1	1	473	1	27
173	__RLSBIterations2	1	1	474	1	4
174	__zfmoveTowardObj	1	1	475	1	11
175	__RLSBytesCount2	1	1	476	1	7
176	__RLSBResult1	2	1	477	1	7
177	__zfscanningArenaRight	1	1	478	1	4
178	__constVal15	2	0	479	1	15
179	__zfscanningArenaLeft	1	1	480	1	4
180	__RLSBIterations1	1	1	481	1	4
181	__zfreverseDirection	1	1	482	1	2
182	__RLSBytesCount1	1	1	483	1	15
183	____ReadLSBytes0_return	1	1	484	1	8
184	__zfcheckWallBack	1	1	485	1	3
185	__RLSBIterations0	1	1	486	1	4
186	__zfcheckandthrow	1	1	487	1	7
187	__zfbacktoOrigin	1	1	488	1	3
188	__RLSBResult0	2	1	489	1	7
189	__RLSBytesCount0	1	1	490	1	12
190	__constVal100	2	0	491	1	2
191	__zfisNotField	1	1	492	1	15
192	__constVal2	2	0	493	1	11
193	__PFTmp	1	1	494	1	1
194	__zfgetDegreeDiff	1	1	495	1	3
195	__constVal7	2	0	496	1	11
196	__zfgoToPredefined	1	1	497	1	25
197	__rotate_rs6	1	1	498	1	10
198	__rotate_theRVD6	1	1	499	1	12
199	____ReadLSBytes1_return	1	1	500	1	5
200	__rotate_thePower6	2	1	501	1	4
201	__constVal1	2	0	502	1	28
202	__constVal32	2	0	503	1	159
203	__rotate_theTurnPct6	2	1	504	1	4
204	__rotate_theOM6	1	1	505	1	7
205	__rotate_theUF6	1	1	506	1	6
206	__rotate_turnpct6	2	1	507	1	13
207	__rotate_theRM6	1	1	508	1	4
208	__rotate_theRVI6	1	1	509	1	12
209	__rotate_theRVP6	1	1	510	1	12
210	__rotate_theRS6	1	1	511	1	3
211	__zfSetSensorLowspeed_inline_init	1	1	512	1	4
212	__constVal4	2	0	513	1	4
213	____ResetSensorSubroutine_return	1	1	514	1	6
214	__constVal5	2	0	515	1	1
215	__ResetSensorTmp	1	1	516	1	2
216	__ResetSensorPort	1	1	517	1	6
217	__zfSetSensorLowspeed_inline_goToPredefined	1	1	518	1	2
218	____RotateMotor6_return	1	1	519	1	3
219	__constVal50	2	0	520	1	2
220	__constVal0	2	1	521	1	193
221	____RotateMotor6_sign_tmp	2	1	522	1	4
222	__constVal6	2	0	523	1	1
223	__constVal3	2	0	524	1	41
224	____RotateMotorVar_return	1	1	525	1	13
225	__SPTArgs	8	0	5	8	42
226	__SPTArgs.Result	2	1	528	1	42
227	__SPTArgs.Frequency	3	1	530	2	42
228	__SPTArgs.Duration	3	1	532	2	42
229	__SPTArgs.Loop	1	1	534	1	42
230	__SPTArgs.Volume	1	1	535	1	42
231	__CLSCSArgs1	8	0	3	4	4
232	__CLSCSArgs1.Result	2	1	536	1	4
233	__CLSCSArgs1.Port	1	1	537	1	4
234	__CLSCSArgs1.BytesReady	1	1	538	1	4
235	__CLSWArgs1	8	0	4	12	5
236	__CLSWArgs1.Result	2	1	540	1	5
237	__CLSWArgs1.Port	1	1	541	1	5
238	__CLSWArgs1.Buffer	7	0	542	4	5
239	__CLSWArgs1.Buffer.Buffer_type	1	0	0	1	0
240	__CLSWArgs1.ReturnLen	1	1	544	1	5
241	__CLSRArgs1	8	0	4	12	5
242	__CLSRArgs1.Result	2	1	548	1	5
243	__CLSRArgs1.Port	1	1	549	1	5
244	__CLSRArgs1.Buffer	7	0	550	4	5
245	__CLSRArgs1.Buffer.Buffer_type	1	0	0	1	0
246	__CLSRArgs1.BufferLen	1	1	552	1	5
247	__CLSCSArgs0	8	0	3	4	4
248	__CLSCSArgs0.Result	2	1	556	1	4
249	__CLSCSArgs0.Port	1	1	557	1	4
250	__CLSCSArgs0.BytesReady	1	1	558	1	4
251	__CLSWArgs0	8	0	4	12	5
252	__CLSWArgs0.Result	2	1	560	1	5
253	__CLSWArgs0.Port	1	1	561	1	5
254	__CLSWArgs0.Buffer	7	0	562	4	5
255	__CLSWArgs0.Buffer.Buffer_type	1	0	0	1	0
256	__CLSWArgs0.ReturnLen	1	1	564	1	5
257	__CLSRArgs0	8	0	4	12	5
258	__CLSRArgs0.Result	2	1	568	1	5
259	__CLSRArgs0.Port	1	1	569	1	5
260	__CLSRArgs0.Buffer	7	0	570	4	5
261	__CLSRArgs0.Buffer.Buffer_type	1	0	0	1	0
262	__CLSRArgs0.BufferLen	1	1	572	1	5
263	__CLSCSArgs2	8	0	3	4	4
264	__CLSCSArgs2.Result	2	1	576	1	4
265	__CLSCSArgs2.Port	1	1	577	1	4
266	__CLSCSArgs2.BytesReady	1	1	578	1	4
267	__CLSRArgs2	8	0	4	12	5
268	__CLSRArgs2.Result	2	1	580	1	5
269	__CLSRArgs2.Port	1	1	581	1	5
270	__CLSRArgs2.Buffer	7	0	582	4	5
271	__CLSRArgs2.Buffer.Buffer_type	1	0	0	1	0
272	__CLSRArgs2.BufferLen	1	1	584	1	5
273	__CLSWArgs2	8	0	4	12	5
274	__CLSWArgs2.Result	2	1	588	1	5
275	__CLSWArgs2.Port	1	1	589	1	5
276	__CLSWArgs2.Buffer	7	0	590	4	5
277	__CLSWArgs2.Buffer.Buffer_type	1	0	0	1	0
278	__CLSWArgs2.ReturnLen	1	1	592	1	5
279	__PointOutArgs	8	0	3	12	4
280	__PointOutArgs.Result	2	1	596	1	4
281	__PointOutArgs.Location	8	0	2	4	4
282	__PointOutArgs.Location.X	4	1	600	2	4
283	__PointOutArgs.Location.Y	4	1	602	2	4
284	__PointOutArgs.Options	5	1	604	4	4
285	__TextOutArgs	8	0	4	16	36
286	__TextOutArgs.Result	2	1	608	1	36
287	__TextOutArgs.Location	8	0	2	4	36
288	__TextOutArgs.Location.X	4	1	612	2	36
289	__TextOutArgs.Location.Y	4	1	614	2	36
290	__TextOutArgs.Text	7	0	616	4	36
291	__TextOutArgs.Text.Text_type	1	0	0	1	0
292	__TextOutArgs.Options	5	1	620	4	36
293	__RLSLastGoodRead0	7	0	624	4	2
294	__RLSLastGoodRead0.__RLSLastGoodRead0_type	1	0	0	1	0
295	__RLSLastGoodRead1	7	0	626	4	2
296	__RLSLastGoodRead1.__RLSLastGoodRead1_type	1	0	0	1	0
297	motors	7	0	628	4	28
298	motors.motors_type	1	0	0	1	0
299	__RLSBbufLSWrite1	7	0	630	4	10
300	__RLSBbufLSWrite1.__RLSBbufLSWrite1_type	1	0	0	1	0
301	__OUT_AC	7	0	632	4	10
302	__OUT_AC.__OUT_AC_type	1	0	0	1	0
303	__OUT_BC	7	0	634	4	1
304	__OUT_BC.__OUT_BC_type	1	0	0	1	0
305	__rotate_ports6	7	0	636	4	22
306	__rotate_ports6.__rotate_ports6_type	1	0	0	1	0
307	__OUT_AB	7	0	638	4	1
308	__OUT_AB.__OUT_AB_type	1	0	0	1	0
309	__constStr0010	7	0	640	4	1
310	__constStr0010.__constStr0010_type	1	1	0	1	0
311	__constStr0011	7	0	642	4	1
312	__constStr0011.__constStr0011_type	1	1	0	1	0
313	__RLSReadBuf2	7	0	644	4	8
314	__RLSReadBuf2.__RLSReadBuf2_type	1	0	0	1	0
315	__constStr0009	7	0	646	4	1
316	__constStr0009.__constStr0009_type	1	1	0	1	0
317	__OUT_ABC	7	0	648	4	1
318	__OUT_ABC.__OUT_ABC_type	1	0	0	1	0
319	__strbufreading	7	0	650	4	6
320	__strbufreading.__strbufreading_type	1	0	0	1	0
321	__RLSReadBuf1	7	0	652	4	15
322	__RLSReadBuf1.__RLSReadBuf1_type	1	0	0	1	0
323	__RLSLastGoodRead2	7	0	654	4	2
324	__RLSLastGoodRead2.__RLSLastGoodRead2_type	1	0	0	1	0
325	__RLSReadBuf0	7	0	656	4	18
326	__RLSReadBuf0.__RLSReadBuf0_type	1	0	0	1	0
#SOURCES
Clump	Line	PC	Source
0	10	0	#line 10 "C:\Users\Kawtar\Documents\GitHub\OS_Project\Attacking\Main_left.nxc"
0	11	0		subcall __initialize_global_data, ____initialize_global_data_return
0	10	2	#line 10 "C:\Users\Kawtar\Documents\GitHub\OS_Project\Attacking\Main_left.nxc"
0	11	2	#line 11 "C:\Users\Kawtar\Documents\GitHub\OS_Project\Attacking\Main_left.nxc"
0	12	2		exitto init
0	11	4	#line 11 "C:\Users\Kawtar\Documents\GitHub\OS_Project\Attacking\Main_left.nxc"
0	12	4		exit -1, -1
1	4794	0		brtst 4, __rotate_Done6, __rotate_angle6
1	4795	3		set ____RotateMotor6_sign_tmp, 0
1	4795	6		brtst EQ, __sign_6, __rotate_angle6
1	4795	9		set ____RotateMotor6_sign_tmp, -1
1	4795	12		brtst LT, __sign_6, __rotate_angle6
1	4795	15		set ____RotateMotor6_sign_tmp, 1
1	4795	18	__sign_6:	mov __rotate_thePower6, ____RotateMotor6_sign_tmp
1	4796	20		abs __rotate_theAngle6, __rotate_angle6
1	4797	23		mul __rotate_thePower6, __rotate_thePower6, __rotate_power6
1	4799	27		set __rotate_theUF6, 23
1	4800	30		brtst 4, __rotate_NoSync6, __rotate_sync6
1	4801	33		set __rotate_theOM6, 7
1	4802	36		set __rotate_theRM6, 2
1	4803	39		mov __rotate_theTurnPct6, __rotate_turnpct6
1	4804	41		brtst 4, __rotate_Start6, __rotate_theTurnPct6
1	4805	44		add __rotate_theUF6, __rotate_theUF6, __constVal32
1	4806	48		jmp __rotate_Start6
1	4808	50		set __rotate_theOM6, 3
1	4809	53		set __rotate_theRM6, 0
1	4810	56		set __rotate_theTurnPct6, 0
1	4812	59		set __rotate_theRS6, 32
1	4813	62		setout __rotate_ports6, 1, __rotate_theOM6, 8, __rotate_theRM6, 5, __rotate_theAngle6, 6, __rotate_theRS6, 10, __rotate_theRVP6, 11, __rotate_theRVI6, 12, __rotate_theRVD6, 2, __rotate_thePower6, 7, __rotate_turnpct6, 0, __rotate_theUF6
1	4816	85		index __rotate_firstPort6, __rotate_ports6, 65535
1	4818	89		getout __rotate_power6, __rotate_firstPort6, 2
1	4819	93		brtst 4, __rotate_doneRunning6, __rotate_power6
1	4820	96		getout __rotate_rs6, __rotate_firstPort6, 6
1	4821	100		brcmp 4, __rotate_Running6, __rotate_rs6, __constVal32
1	4823	104		brtst 4, __rotate_Reset6, __rotate_stop6
1	4825	107		set __rotate_theOM6, 7
1	4826	110		set __rotate_theUF6, 7
1	4827	113		setout __rotate_ports6, 1, __rotate_theOM6, 8, __constVal1, 6, __rotate_theRS6, 2, __constVal0, 5, __constVal0, 0, __rotate_theUF6
1	4829	128		getout __rotate_RotCount6, __rotate_firstPort6, 14
1	4831	132		mov __rotate_OldRotCount6, __rotate_RotCount6
1	4832	134		wait2 NA, __constVal50
1	4834	137		getout __rotate_RotCount6, __rotate_firstPort6, 14
1	4835	141		brcmp 5, __rotate_Stabilize6, __rotate_OldRotCount6, __rotate_RotCount6
1	4836	145		set __rotate_theOM6, 4
1	4837	148		setout __rotate_ports6, 8, __rotate_theRM6, 6, __constVal0, 1, __rotate_theOM6, 0, __constVal1
1	4840	159		brtst 4, __rotate_Done6, __rotate_theTurnPct6
1	4841	162		setout __rotate_ports6, 0, __constVal32
1	4843	167		subret ____RotateMotor6_return
2	4854	0		arrsize __rotate_rs6, __rotate_ports6
2	4855	3		brcmp 1, __rmvCallSub, __rotate_rs6, __constVal1
2	4857	7		index __rotate_rs6, __rotate_ports6, 65535
2	4858	11		brcmp 0, __rmvCallSub, __rotate_rs6, __constVal3
2	4859	15		brcmp 1, __rmvExit, __rotate_rs6, __constVal6
2	4861	19		mov __rotate_ports6, __OUT_AB
2	4862	21		brcmp 4, __rmvCallSub, __rotate_rs6, __constVal3
2	4863	25		mov __rotate_ports6, __OUT_AC
2	4864	27		brcmp 4, __rmvCallSub, __rotate_rs6, __constVal4
2	4865	31		mov __rotate_ports6, __OUT_BC
2	4866	33		brcmp 4, __rmvCallSub, __rotate_rs6, __constVal5
2	4867	37		mov __rotate_ports6, __OUT_ABC
2	4869	39		subcall __RotateMotor6, ____RotateMotor6_return
2	4871	42		subret ____RotateMotorVar_return
3	4885	0		setin __constVal1, __ResetSensorPort, 5
3	4887	4		getin __ResetSensorTmp, __ResetSensorPort, 5
3	4888	8		brtst 5, __SensorStillInvalid, __ResetSensorTmp
3	4889	11		subret ____ResetSensorSubroutine_return
4	5672	0	#pragma macro 25
4	5672	0		acquire __CLSWMutex0
4	5672	1		set __CLSWArgs0.Port, 0
4	5672	4		mov __CLSWArgs0.ReturnLen, __RLSBytesCount0
4	5672	6		mov __CLSWArgs0.Buffer, __RLSReadBuf0
4	5672	8		syscall 21, __CLSWArgs0
4	5672	11		mov __RLSBResult0, __CLSWArgs0.Result
4	5672	13		release __CLSWMutex0
4	5673	14	#line 5673 "NXTDefs.h"
4	5674	14		brtst 4, __RLSBReturn0, __RLSBytesCount0
4	5675	17		arrinit __RLSReadBuf0, __constVal0, __RLSBytesCount0
4	5676	21		brtst 5, __RLSBError0, __RLSBResult0
4	5677	24		set __RLSBIterations0, 4
4	5679	27	#pragma macro 23
4	5679	27		acquire __CLSCSMutex0
4	5679	28		set __CLSCSArgs0.Port, 0
4	5679	31		syscall 23, __CLSCSArgs0
4	5679	34		mov __RLSBytesCount0, __CLSCSArgs0.BytesReady
4	5679	36		mov __RLSBResult0, __CLSCSArgs0.Result
4	5679	38		release __CLSCSMutex0
4	5679	39	#line 5679 "NXTDefs.h"
4	5680	39		sub __RLSBIterations0, __RLSBIterations0, __constVal1
4	5681	43		brtst 2, __RLSBError0, __RLSBIterations0
4	5682	46		brtst 0, __RLSBError0, __RLSBResult0
4	5683	49		brtst 4, __RLSBReadyToRead0, __RLSBResult0
4	5685	52		wait2 NA, __constVal15
4	5686	55		jmp __RLSBDoCheckStatus0
4	5689	57	#pragma macro 25
4	5689	57		acquire __CLSRMutex0
4	5689	58		set __CLSRArgs0.Port, 0
4	5689	61		mov __CLSRArgs0.BufferLen, __RLSBytesCount0
4	5689	63		syscall 22, __CLSRArgs0
4	5689	66		mov __RLSReadBuf0, __CLSRArgs0.Buffer
4	5689	68		mov __RLSBResult0, __CLSRArgs0.Result
4	5689	70		release __CLSRMutex0
4	5689	71	#line 5689 "NXTDefs.h"
4	5690	71		brtst 5, __RLSBError0, __RLSBResult0
4	5691	74		mov __RLSLastGoodRead0, __RLSReadBuf0
4	5692	76		jmp __RLSBDone0
4	5694	78		mov __RLSReadBuf0, __RLSLastGoodRead0
4	5696	80		arrsize __RLSBytesCount0, __RLSReadBuf0
4	5698	83		subret ____ReadLSBytes0_return
5	5710	0	#pragma macro 25
5	5710	0		acquire __CLSWMutex1
5	5710	1		set __CLSWArgs1.Port, 1
5	5710	4		mov __CLSWArgs1.ReturnLen, __RLSBytesCount1
5	5710	6		mov __CLSWArgs1.Buffer, __RLSReadBuf1
5	5710	8		syscall 21, __CLSWArgs1
5	5710	11		mov __RLSBResult1, __CLSWArgs1.Result
5	5710	13		release __CLSWMutex1
5	5710	14	#line 5710 "NXTDefs.h"
5	5711	14		brtst 4, __RLSBReturn1, __RLSBytesCount1
5	5712	17		arrinit __RLSReadBuf1, __constVal0, __RLSBytesCount1
5	5713	21		brtst 5, __RLSBError1, __RLSBResult1
5	5714	24		set __RLSBIterations1, 4
5	5716	27	#pragma macro 23
5	5716	27		acquire __CLSCSMutex1
5	5716	28		set __CLSCSArgs1.Port, 1
5	5716	31		syscall 23, __CLSCSArgs1
5	5716	34		mov __RLSBytesCount1, __CLSCSArgs1.BytesReady
5	5716	36		mov __RLSBResult1, __CLSCSArgs1.Result
5	5716	38		release __CLSCSMutex1
5	5716	39	#line 5716 "NXTDefs.h"
5	5717	39		sub __RLSBIterations1, __RLSBIterations1, __constVal1
5	5718	43		brtst 2, __RLSBError1, __RLSBIterations1
5	5719	46		brtst 0, __RLSBError1, __RLSBResult1
5	5720	49		brtst 4, __RLSBReadyToRead1, __RLSBResult1
5	5722	52		wait2 NA, __constVal15
5	5723	55		jmp __RLSBDoCheckStatus1
5	5726	57	#pragma macro 25
5	5726	57		acquire __CLSRMutex1
5	5726	58		set __CLSRArgs1.Port, 1
5	5726	61		mov __CLSRArgs1.BufferLen, __RLSBytesCount1
5	5726	63		syscall 22, __CLSRArgs1
5	5726	66		mov __RLSReadBuf1, __CLSRArgs1.Buffer
5	5726	68		mov __RLSBResult1, __CLSRArgs1.Result
5	5726	70		release __CLSRMutex1
5	5726	71	#line 5726 "NXTDefs.h"
5	5727	71		brtst 5, __RLSBError1, __RLSBResult1
5	5728	74		mov __RLSLastGoodRead1, __RLSReadBuf1
5	5729	76		jmp __RLSBDone1
5	5731	78		mov __RLSReadBuf1, __RLSLastGoodRead1
5	5733	80		arrsize __RLSBytesCount1, __RLSReadBuf1
5	5735	83		subret ____ReadLSBytes1_return
6	5747	0	#pragma macro 25
6	5747	0		acquire __CLSWMutex2
6	5747	1		set __CLSWArgs2.Port, 2
6	5747	4		mov __CLSWArgs2.ReturnLen, __RLSBytesCount2
6	5747	6		mov __CLSWArgs2.Buffer, __RLSReadBuf2
6	5747	8		syscall 21, __CLSWArgs2
6	5747	11		mov __RLSBResult2, __CLSWArgs2.Result
6	5747	13		release __CLSWMutex2
6	5747	14	#line 5747 "NXTDefs.h"
6	5748	14		brtst 4, __RLSBReturn2, __RLSBytesCount2
6	5749	17		arrinit __RLSReadBuf2, __constVal0, __RLSBytesCount2
6	5750	21		brtst 5, __RLSBError2, __RLSBResult2
6	5751	24		set __RLSBIterations2, 4
6	5753	27	#pragma macro 23
6	5753	27		acquire __CLSCSMutex2
6	5753	28		set __CLSCSArgs2.Port, 2
6	5753	31		syscall 23, __CLSCSArgs2
6	5753	34		mov __RLSBytesCount2, __CLSCSArgs2.BytesReady
6	5753	36		mov __RLSBResult2, __CLSCSArgs2.Result
6	5753	38		release __CLSCSMutex2
6	5753	39	#line 5753 "NXTDefs.h"
6	5754	39		sub __RLSBIterations2, __RLSBIterations2, __constVal1
6	5755	43		brtst 2, __RLSBError2, __RLSBIterations2
6	5756	46		brtst 0, __RLSBError2, __RLSBResult2
6	5757	49		brtst 4, __RLSBReadyToRead2, __RLSBResult2
6	5759	52		wait2 NA, __constVal15
6	5760	55		jmp __RLSBDoCheckStatus2
6	5763	57	#pragma macro 25
6	5763	57		acquire __CLSRMutex2
6	5763	58		set __CLSRArgs2.Port, 2
6	5763	61		mov __CLSRArgs2.BufferLen, __RLSBytesCount2
6	5763	63		syscall 22, __CLSRArgs2
6	5763	66		mov __RLSReadBuf2, __CLSRArgs2.Buffer
6	5763	68		mov __RLSBResult2, __CLSRArgs2.Result
6	5763	70		release __CLSRMutex2
6	5763	71	#line 5763 "NXTDefs.h"
6	5764	71		brtst 5, __RLSBError2, __RLSBResult2
6	5765	74		mov __RLSLastGoodRead2, __RLSReadBuf2
6	5766	76		jmp __RLSBDone2
6	5768	78		mov __RLSReadBuf2, __RLSLastGoodRead2
6	5770	80		arrsize __RLSBytesCount2, __RLSReadBuf2
6	5772	83		subret ____ReadLSBytes2_return
7	6518	0	#line 6518 "NXCDefs.h"
7	6519	0		mov __signed_stack_001PlaySound, __PlaySound_7qG2_aCode_7qG2_000
7	6518	2	#line 6518 "NXCDefs.h"
7	6519	2	#line 6519 "NXCDefs.h"
7	6520	2		set __D0PlaySound, 0
7	6519	5	#line 6519 "NXCDefs.h"
7	6520	5		cmp 4, __zfPlaySound, __signed_stack_001PlaySound, __D0PlaySound
7	6519	9	#line 6519 "NXCDefs.h"
7	6520	9		mov __D0PlaySound, __zfPlaySound
7	6519	12	#line 6519 "NXCDefs.h"
7	6520	12		brtst 4, __NXC_Label_56, __zfPlaySound
7	6519	15	#line 6519 "NXCDefs.h"
7	6520	15		set __signed_stack_001PlaySound, 600
7	6519	18	#line 6519 "NXCDefs.h"
7	6519	18	#line 6519 "NXCDefs.h"
7	6520	18		set __signed_stack_002PlaySound, 200
7	6519	21	#line 6519 "NXCDefs.h"
7	6519	21	#line 6519 "NXCDefs.h"
7	6520	21		set __signed_stack_003PlaySound, 4
7	6519	24	#line 6519 "NXCDefs.h"
7	6519	24	#line 6519 "NXCDefs.h"
7	6520	24		set __D0PlaySound, 0
7	6520	27	#line 6520 "NXCDefs.h"
7	6521	27		acquire __SPTArgsMutex
7	6520	28	#line 6520 "NXCDefs.h"
7	6521	28		mov __SPTArgs.Frequency, __signed_stack_001PlaySound
7	6520	31	#line 6520 "NXCDefs.h"
7	6521	31		mov __SPTArgs.Duration, __signed_stack_002PlaySound
7	6520	34	#line 6520 "NXCDefs.h"
7	6521	34		mov __SPTArgs.Volume, __signed_stack_003PlaySound
7	6520	37	#line 6520 "NXCDefs.h"
7	6521	37		mov __SPTArgs.Loop, __D0PlaySound
7	6520	40	#line 6520 "NXCDefs.h"
7	6521	40		syscall 10, __SPTArgs
7	6520	43	#line 6520 "NXCDefs.h"
7	6521	43		mov __D0PlaySound, __SPTArgs.Result
7	6520	46	#line 6520 "NXCDefs.h"
7	6521	46		release __SPTArgsMutex
7	6520	47	#line 6520 "NXCDefs.h"
7	6520	47	#line 6520 "NXCDefs.h"
7	6521	47		jmp __NXC_Label_65
7	6520	49	#line 6520 "NXCDefs.h"
7	6521	49		mov __signed_stack_001PlaySound, __PlaySound_7qG2_aCode_7qG2_000
7	6520	51	#line 6520 "NXCDefs.h"
7	6521	51	#line 6521 "NXCDefs.h"
7	6522	51		set __D0PlaySound, 1
7	6521	54	#line 6521 "NXCDefs.h"
7	6522	54		cmp 4, __zfPlaySound, __signed_stack_001PlaySound, __D0PlaySound
7	6521	58	#line 6521 "NXCDefs.h"
7	6522	58		mov __D0PlaySound, __zfPlaySound
7	6522	61	#line 6522 "NXCDefs.h"
7	6523	61		brtst 4, __NXC_Label_68, __zfPlaySound
7	6522	64	#line 6522 "NXCDefs.h"
7	6523	64		set __signed_stack_001PlaySound, 600
7	6522	67	#line 6522 "NXCDefs.h"
7	6522	67	#line 6522 "NXCDefs.h"
7	6523	67		set __signed_stack_002PlaySound, 150
7	6522	70	#line 6522 "NXCDefs.h"
7	6522	70	#line 6522 "NXCDefs.h"
7	6523	70		set __signed_stack_003PlaySound, 4
7	6522	73	#line 6522 "NXCDefs.h"
7	6522	73	#line 6522 "NXCDefs.h"
7	6523	73		set __D0PlaySound, 0
7	6523	76	#line 6523 "NXCDefs.h"
7	6524	76		acquire __SPTArgsMutex
7	6523	77	#line 6523 "NXCDefs.h"
7	6524	77		mov __SPTArgs.Frequency, __signed_stack_001PlaySound
7	6523	80	#line 6523 "NXCDefs.h"
7	6524	80		mov __SPTArgs.Duration, __signed_stack_002PlaySound
7	6523	83	#line 6523 "NXCDefs.h"
7	6524	83		mov __SPTArgs.Volume, __signed_stack_003PlaySound
7	6523	86	#line 6523 "NXCDefs.h"
7	6524	86		mov __SPTArgs.Loop, __D0PlaySound
7	6523	89	#line 6523 "NXCDefs.h"
7	6524	89		syscall 10, __SPTArgs
7	6523	92	#line 6523 "NXCDefs.h"
7	6524	92		mov __D0PlaySound, __SPTArgs.Result
7	6523	95	#line 6523 "NXCDefs.h"
7	6524	95		release __SPTArgsMutex
7	6523	96	#line 6523 "NXCDefs.h"
7	6523	96	#line 6523 "NXCDefs.h"
7	6524	96		wait2 NA, __constVal200
7	6523	99	#line 6523 "NXCDefs.h"
7	6523	99	#line 6523 "NXCDefs.h"
7	6524	99	#line 6524 "NXCDefs.h"
7	6525	99		set __signed_stack_001PlaySound, 600
7	6524	102	#line 6524 "NXCDefs.h"
7	6524	102	#line 6524 "NXCDefs.h"
7	6525	102		set __signed_stack_002PlaySound, 150
7	6524	105	#line 6524 "NXCDefs.h"
7	6524	105	#line 6524 "NXCDefs.h"
7	6525	105		set __signed_stack_003PlaySound, 4
7	6524	108	#line 6524 "NXCDefs.h"
7	6524	108	#line 6524 "NXCDefs.h"
7	6525	108		set __D0PlaySound, 0
7	6525	111	#line 6525 "NXCDefs.h"
7	6526	111		acquire __SPTArgsMutex
7	6525	112	#line 6525 "NXCDefs.h"
7	6526	112		mov __SPTArgs.Frequency, __signed_stack_001PlaySound
7	6525	115	#line 6525 "NXCDefs.h"
7	6526	115		mov __SPTArgs.Duration, __signed_stack_002PlaySound
7	6525	118	#line 6525 "NXCDefs.h"
7	6526	118		mov __SPTArgs.Volume, __signed_stack_003PlaySound
7	6525	121	#line 6525 "NXCDefs.h"
7	6526	121		mov __SPTArgs.Loop, __D0PlaySound
7	6525	124	#line 6525 "NXCDefs.h"
7	6526	124		syscall 10, __SPTArgs
7	6525	127	#line 6525 "NXCDefs.h"
7	6526	127		mov __D0PlaySound, __SPTArgs.Result
7	6525	130	#line 6525 "NXCDefs.h"
7	6526	130		release __SPTArgsMutex
7	6525	131	#line 6525 "NXCDefs.h"
7	6525	131	#line 6525 "NXCDefs.h"
7	6526	131		wait2 NA, __constVal150
7	6525	134	#line 6525 "NXCDefs.h"
7	6525	134	#line 6525 "NXCDefs.h"
7	6527	134	#line 6527 "NXCDefs.h"
7	6528	134		jmp __NXC_Label_85
7	6527	136	#line 6527 "NXCDefs.h"
7	6528	136		mov __signed_stack_001PlaySound, __PlaySound_7qG2_aCode_7qG2_000
7	6527	138	#line 6527 "NXCDefs.h"
7	6528	138	#line 6528 "NXCDefs.h"
7	6529	138		set __D0PlaySound, 3
7	6528	141	#line 6528 "NXCDefs.h"
7	6529	141		cmp 4, __zfPlaySound, __signed_stack_001PlaySound, __D0PlaySound
7	6528	145	#line 6528 "NXCDefs.h"
7	6529	145		mov __D0PlaySound, __zfPlaySound
7	6528	148	#line 6528 "NXCDefs.h"
7	6529	148		brtst 4, __NXC_Label_88, __zfPlaySound
7	6528	151	#line 6528 "NXCDefs.h"
7	6529	151		set __PlaySound_7qG2_i_7qG2_001, 4
7	6528	154	#line 6528 "NXCDefs.h"
7	6528	154	#line 6528 "NXCDefs.h"
7	6529	154		mov __signed_stack_001PlaySound, __PlaySound_7qG2_i_7qG2_001
7	6528	156	#line 6528 "NXCDefs.h"
7	6528	156	#line 6528 "NXCDefs.h"
7	6529	156		set __D0PlaySound, 8
7	6528	159	#line 6528 "NXCDefs.h"
7	6529	159		cmp 0, __zfPlaySound, __signed_stack_001PlaySound, __D0PlaySound
7	6528	163	#line 6528 "NXCDefs.h"
7	6529	163		mov __D0PlaySound, __zfPlaySound
7	6528	166	#line 6528 "NXCDefs.h"
7	6529	166		brtst 4, __NXC_Label_90, __zfPlaySound
7	6528	169	#line 6528 "NXCDefs.h"
7	6529	169		jmp __NXC_Label_91
7	6529	171	#line 6529 "NXCDefs.h"
7	6530	171		add __PlaySound_7qG2_i_7qG2_001, __PlaySound_7qG2_i_7qG2_001, __constVal1
7	6530	175	#line 6530 "NXCDefs.h"
7	6531	175		jmp __NXC_Label_89
7	6530	177	#line 6530 "NXCDefs.h"
7	6530	177	#line 6530 "NXCDefs.h"
7	6530	177	#line 6530 "NXCDefs.h"
7	6530	177	#line 6530 "NXCDefs.h"
7	6531	177		mul __signed_stack_001PlaySound, __constVal523, __PlaySound_7qG2_i_7qG2_001
7	6530	181	#line 6530 "NXCDefs.h"
7	6530	181	#line 6530 "NXCDefs.h"
7	6530	181	#line 6530 "NXCDefs.h"
7	6531	181		div __signed_stack_001PlaySound, __signed_stack_001PlaySound, __constVal4
7	6530	185	#line 6530 "NXCDefs.h"
7	6530	185	#line 6530 "NXCDefs.h"
7	6531	185		set __signed_stack_002PlaySound, 100
7	6530	188	#line 6530 "NXCDefs.h"
7	6530	188	#line 6530 "NXCDefs.h"
7	6531	188		set __signed_stack_003PlaySound, 4
7	6530	191	#line 6530 "NXCDefs.h"
7	6530	191	#line 6530 "NXCDefs.h"
7	6531	191		set __D0PlaySound, 0
7	6531	194	#line 6531 "NXCDefs.h"
7	6532	194		acquire __SPTArgsMutex
7	6531	195	#line 6531 "NXCDefs.h"
7	6532	195		mov __SPTArgs.Frequency, __signed_stack_001PlaySound
7	6531	198	#line 6531 "NXCDefs.h"
7	6532	198		mov __SPTArgs.Duration, __signed_stack_002PlaySound
7	6531	201	#line 6531 "NXCDefs.h"
7	6532	201		mov __SPTArgs.Volume, __signed_stack_003PlaySound
7	6531	204	#line 6531 "NXCDefs.h"
7	6532	204		mov __SPTArgs.Loop, __D0PlaySound
7	6531	207	#line 6531 "NXCDefs.h"
7	6532	207		syscall 10, __SPTArgs
7	6531	210	#line 6531 "NXCDefs.h"
7	6532	210		mov __D0PlaySound, __SPTArgs.Result
7	6531	213	#line 6531 "NXCDefs.h"
7	6532	213		release __SPTArgsMutex
7	6531	214	#line 6531 "NXCDefs.h"
7	6531	214	#line 6531 "NXCDefs.h"
7	6532	214		wait2 NA, __constVal100
7	6531	217	#line 6531 "NXCDefs.h"
7	6531	217	#line 6531 "NXCDefs.h"
7	6533	217	#line 6533 "NXCDefs.h"
7	6534	217		jmp __NXC_Label_92
7	6533	219	#line 6533 "NXCDefs.h"
7	6533	219	#line 6533 "NXCDefs.h"
7	6534	219		jmp __NXC_Label_105
7	6533	221	#line 6533 "NXCDefs.h"
7	6534	221		mov __signed_stack_001PlaySound, __PlaySound_7qG2_aCode_7qG2_000
7	6533	223	#line 6533 "NXCDefs.h"
7	6534	223	#line 6534 "NXCDefs.h"
7	6535	223		set __D0PlaySound, 2
7	6534	226	#line 6534 "NXCDefs.h"
7	6535	226		cmp 4, __zfPlaySound, __signed_stack_001PlaySound, __D0PlaySound
7	6534	230	#line 6534 "NXCDefs.h"
7	6535	230		mov __D0PlaySound, __zfPlaySound
7	6534	233	#line 6534 "NXCDefs.h"
7	6535	233		brtst 4, __NXC_Label_108, __zfPlaySound
7	6534	236	#line 6534 "NXCDefs.h"
7	6535	236		set __PlaySound_7qG2_i_7qG2_001, 7
7	6534	239	#line 6534 "NXCDefs.h"
7	6534	239	#line 6534 "NXCDefs.h"
7	6535	239		mov __signed_stack_001PlaySound, __PlaySound_7qG2_i_7qG2_001
7	6534	241	#line 6534 "NXCDefs.h"
7	6534	241	#line 6534 "NXCDefs.h"
7	6535	241		set __D0PlaySound, 3
7	6534	244	#line 6534 "NXCDefs.h"
7	6535	244		cmp 1, __zfPlaySound, __signed_stack_001PlaySound, __D0PlaySound
7	6534	248	#line 6534 "NXCDefs.h"
7	6535	248		mov __D0PlaySound, __zfPlaySound
7	6534	251	#line 6534 "NXCDefs.h"
7	6535	251		brtst 4, __NXC_Label_110, __zfPlaySound
7	6534	254	#line 6534 "NXCDefs.h"
7	6535	254		jmp __NXC_Label_111
7	6535	256	#line 6535 "NXCDefs.h"
7	6536	256		sub __PlaySound_7qG2_i_7qG2_001, __PlaySound_7qG2_i_7qG2_001, __constVal1
7	6536	260	#line 6536 "NXCDefs.h"
7	6537	260		jmp __NXC_Label_109
7	6536	262	#line 6536 "NXCDefs.h"
7	6536	262	#line 6536 "NXCDefs.h"
7	6536	262	#line 6536 "NXCDefs.h"
7	6536	262	#line 6536 "NXCDefs.h"
7	6537	262		mul __signed_stack_001PlaySound, __constVal523, __PlaySound_7qG2_i_7qG2_001
7	6536	266	#line 6536 "NXCDefs.h"
7	6536	266	#line 6536 "NXCDefs.h"
7	6536	266	#line 6536 "NXCDefs.h"
7	6537	266		div __signed_stack_001PlaySound, __signed_stack_001PlaySound, __constVal4
7	6536	270	#line 6536 "NXCDefs.h"
7	6536	270	#line 6536 "NXCDefs.h"
7	6537	270		set __signed_stack_002PlaySound, 100
7	6536	273	#line 6536 "NXCDefs.h"
7	6536	273	#line 6536 "NXCDefs.h"
7	6537	273		set __signed_stack_003PlaySound, 4
7	6536	276	#line 6536 "NXCDefs.h"
7	6536	276	#line 6536 "NXCDefs.h"
7	6537	276		set __D0PlaySound, 0
7	6537	279	#line 6537 "NXCDefs.h"
7	6538	279		acquire __SPTArgsMutex
7	6537	280	#line 6537 "NXCDefs.h"
7	6538	280		mov __SPTArgs.Frequency, __signed_stack_001PlaySound
7	6537	283	#line 6537 "NXCDefs.h"
7	6538	283		mov __SPTArgs.Duration, __signed_stack_002PlaySound
7	6537	286	#line 6537 "NXCDefs.h"
7	6538	286		mov __SPTArgs.Volume, __signed_stack_003PlaySound
7	6537	289	#line 6537 "NXCDefs.h"
7	6538	289		mov __SPTArgs.Loop, __D0PlaySound
7	6537	292	#line 6537 "NXCDefs.h"
7	6538	292		syscall 10, __SPTArgs
7	6537	295	#line 6537 "NXCDefs.h"
7	6538	295		mov __D0PlaySound, __SPTArgs.Result
7	6537	298	#line 6537 "NXCDefs.h"
7	6538	298		release __SPTArgsMutex
7	6537	299	#line 6537 "NXCDefs.h"
7	6537	299	#line 6537 "NXCDefs.h"
7	6538	299		wait2 NA, __constVal100
7	6537	302	#line 6537 "NXCDefs.h"
7	6537	302	#line 6537 "NXCDefs.h"
7	6539	302	#line 6539 "NXCDefs.h"
7	6540	302		jmp __NXC_Label_112
7	6539	304	#line 6539 "NXCDefs.h"
7	6539	304	#line 6539 "NXCDefs.h"
7	6540	304		jmp __NXC_Label_125
7	6539	306	#line 6539 "NXCDefs.h"
7	6540	306		mov __signed_stack_001PlaySound, __PlaySound_7qG2_aCode_7qG2_000
7	6539	308	#line 6539 "NXCDefs.h"
7	6540	308	#line 6540 "NXCDefs.h"
7	6541	308		set __D0PlaySound, 4
7	6540	311	#line 6540 "NXCDefs.h"
7	6541	311		cmp 4, __zfPlaySound, __signed_stack_001PlaySound, __D0PlaySound
7	6540	315	#line 6540 "NXCDefs.h"
7	6541	315		mov __D0PlaySound, __zfPlaySound
7	6541	318	#line 6541 "NXCDefs.h"
7	6542	318		brtst 4, __NXC_Label_128, __zfPlaySound
7	6541	321	#line 6541 "NXCDefs.h"
7	6542	321		set __signed_stack_001PlaySound, 100
7	6541	324	#line 6541 "NXCDefs.h"
7	6541	324	#line 6541 "NXCDefs.h"
7	6542	324		set __signed_stack_002PlaySound, 500
7	6541	327	#line 6541 "NXCDefs.h"
7	6541	327	#line 6541 "NXCDefs.h"
7	6542	327		set __signed_stack_003PlaySound, 4
7	6541	330	#line 6541 "NXCDefs.h"
7	6541	330	#line 6541 "NXCDefs.h"
7	6542	330		set __D0PlaySound, 0
7	6542	333	#line 6542 "NXCDefs.h"
7	6543	333		acquire __SPTArgsMutex
7	6542	334	#line 6542 "NXCDefs.h"
7	6543	334		mov __SPTArgs.Frequency, __signed_stack_001PlaySound
7	6542	337	#line 6542 "NXCDefs.h"
7	6543	337		mov __SPTArgs.Duration, __signed_stack_002PlaySound
7	6542	340	#line 6542 "NXCDefs.h"
7	6543	340		mov __SPTArgs.Volume, __signed_stack_003PlaySound
7	6542	343	#line 6542 "NXCDefs.h"
7	6543	343		mov __SPTArgs.Loop, __D0PlaySound
7	6542	346	#line 6542 "NXCDefs.h"
7	6543	346		syscall 10, __SPTArgs
7	6542	349	#line 6542 "NXCDefs.h"
7	6543	349		mov __D0PlaySound, __SPTArgs.Result
7	6542	352	#line 6542 "NXCDefs.h"
7	6543	352		release __SPTArgsMutex
7	6542	353	#line 6542 "NXCDefs.h"
7	6542	353	#line 6542 "NXCDefs.h"
7	6543	353		wait2 NA, __constVal500
7	6542	356	#line 6542 "NXCDefs.h"
7	6542	356	#line 6542 "NXCDefs.h"
7	6544	356	#line 6544 "NXCDefs.h"
7	6545	356		jmp __NXC_Label_137
7	6544	358	#line 6544 "NXCDefs.h"
7	6545	358		mov __signed_stack_001PlaySound, __PlaySound_7qG2_aCode_7qG2_000
7	6544	360	#line 6544 "NXCDefs.h"
7	6545	360	#line 6545 "NXCDefs.h"
7	6546	360		set __D0PlaySound, 5
7	6545	363	#line 6545 "NXCDefs.h"
7	6546	363		cmp 4, __zfPlaySound, __signed_stack_001PlaySound, __D0PlaySound
7	6545	367	#line 6545 "NXCDefs.h"
7	6546	367		mov __D0PlaySound, __zfPlaySound
7	6545	370	#line 6545 "NXCDefs.h"
7	6546	370		brtst 4, __NXC_Label_140, __zfPlaySound
7	6545	373	#line 6545 "NXCDefs.h"
7	6546	373		set __PlaySound_7qG2_i_7qG2_001, 4
7	6545	376	#line 6545 "NXCDefs.h"
7	6545	376	#line 6545 "NXCDefs.h"
7	6546	376		mov __signed_stack_001PlaySound, __PlaySound_7qG2_i_7qG2_001
7	6545	378	#line 6545 "NXCDefs.h"
7	6545	378	#line 6545 "NXCDefs.h"
7	6546	378		set __D0PlaySound, 8
7	6545	381	#line 6545 "NXCDefs.h"
7	6546	381		cmp 0, __zfPlaySound, __signed_stack_001PlaySound, __D0PlaySound
7	6545	385	#line 6545 "NXCDefs.h"
7	6546	385		mov __D0PlaySound, __zfPlaySound
7	6545	388	#line 6545 "NXCDefs.h"
7	6546	388		brtst 4, __NXC_Label_142, __zfPlaySound
7	6545	391	#line 6545 "NXCDefs.h"
7	6546	391		jmp __NXC_Label_143
7	6546	393	#line 6546 "NXCDefs.h"
7	6547	393		add __PlaySound_7qG2_i_7qG2_001, __PlaySound_7qG2_i_7qG2_001, __constVal1
7	6547	397	#line 6547 "NXCDefs.h"
7	6548	397		jmp __NXC_Label_141
7	6547	399	#line 6547 "NXCDefs.h"
7	6547	399	#line 6547 "NXCDefs.h"
7	6547	399	#line 6547 "NXCDefs.h"
7	6547	399	#line 6547 "NXCDefs.h"
7	6548	399		mul __signed_stack_001PlaySound, __constVal523, __PlaySound_7qG2_i_7qG2_001
7	6547	403	#line 6547 "NXCDefs.h"
7	6547	403	#line 6547 "NXCDefs.h"
7	6547	403	#line 6547 "NXCDefs.h"
7	6548	403		div __signed_stack_001PlaySound, __signed_stack_001PlaySound, __constVal4
7	6547	407	#line 6547 "NXCDefs.h"
7	6547	407	#line 6547 "NXCDefs.h"
7	6548	407		set __signed_stack_002PlaySound, 50
7	6547	410	#line 6547 "NXCDefs.h"
7	6547	410	#line 6547 "NXCDefs.h"
7	6548	410		set __signed_stack_003PlaySound, 4
7	6547	413	#line 6547 "NXCDefs.h"
7	6547	413	#line 6547 "NXCDefs.h"
7	6548	413		set __D0PlaySound, 0
7	6548	416	#line 6548 "NXCDefs.h"
7	6549	416		acquire __SPTArgsMutex
7	6548	417	#line 6548 "NXCDefs.h"
7	6549	417		mov __SPTArgs.Frequency, __signed_stack_001PlaySound
7	6548	420	#line 6548 "NXCDefs.h"
7	6549	420		mov __SPTArgs.Duration, __signed_stack_002PlaySound
7	6548	423	#line 6548 "NXCDefs.h"
7	6549	423		mov __SPTArgs.Volume, __signed_stack_003PlaySound
7	6548	426	#line 6548 "NXCDefs.h"
7	6549	426		mov __SPTArgs.Loop, __D0PlaySound
7	6548	429	#line 6548 "NXCDefs.h"
7	6549	429		syscall 10, __SPTArgs
7	6548	432	#line 6548 "NXCDefs.h"
7	6549	432		mov __D0PlaySound, __SPTArgs.Result
7	6548	435	#line 6548 "NXCDefs.h"
7	6549	435		release __SPTArgsMutex
7	6548	436	#line 6548 "NXCDefs.h"
7	6548	436	#line 6548 "NXCDefs.h"
7	6549	436		wait2 NA, __constVal50
7	6548	439	#line 6548 "NXCDefs.h"
7	6548	439	#line 6548 "NXCDefs.h"
7	6560	439	#line 6560 "NXCDefs.h"
7	6561	439		jmp __NXC_Label_144
7	6560	441	#line 6560 "NXCDefs.h"
7	6560	441	#line 6560 "NXCDefs.h"
7	6560	441	#line 6560 "NXCDefs.h"
7	6560	441	#line 6560 "NXCDefs.h"
7	6560	441	#line 6560 "NXCDefs.h"
7	6560	441	#line 6560 "NXCDefs.h"
7	6560	441	#line 6560 "NXCDefs.h"
7	6560	441	#line 6560 "NXCDefs.h"
7	6561	441		subret __PlaySound_return
8	28	0	#line 28 "C:\Users\Kawtar\Documents\GitHub\OS_Project\Attacking\.\Header.nxc"
8	29	0		set __Wait_7qG2_ms_7qG2_000_inline_stopRotor, 400
8	28	3	#line 28 "C:\Users\Kawtar\Documents\GitHub\OS_Project\Attacking\.\Header.nxc"
8	7921	3	#line 7921 "NXCDefs.h"
8	7922	3		wait2 NA, __Wait_7qG2_ms_7qG2_000_inline_stopRotor
8	7921	6	#line 7921 "NXCDefs.h"
8	29	6	#line 29 "C:\Users\Kawtar\Documents\GitHub\OS_Project\Attacking\.\Header.nxc"
8	30	6	#line 30 "C:\Users\Kawtar\Documents\GitHub\OS_Project\Attacking\.\Header.nxc"
8	31	6	#pragma macro 7
8	31	6		setout GMotor, 2, __constVal0, 1, __constVal3, 8, __constVal0, 6, __constVal32, 7, __constVal0, 5, __constVal0, 10, __constVal96, 11, __constVal32, 12, __constVal32, 0, __constVal63
8	5903	29	#line 5903 "C:\Users\Kawtar\Documents\GitHub\OS_Project\Attacking\.\Header.nxc"
8	30	29	#line 30 "C:\Users\Kawtar\Documents\GitHub\OS_Project\Attacking\.\Header.nxc"
8	31	29	#line 31 "C:\Users\Kawtar\Documents\GitHub\OS_Project\Attacking\.\Header.nxc"
8	32	29		subret __stopRotor_return
9	33	0	#line 33 "C:\Users\Kawtar\Documents\GitHub\OS_Project\Attacking\.\Header.nxc"
9	34	0		set __signed_stack_001close, 70
9	33	3	#line 33 "C:\Users\Kawtar\Documents\GitHub\OS_Project\Attacking\.\Header.nxc"
9	33	3	#line 33 "C:\Users\Kawtar\Documents\GitHub\OS_Project\Attacking\.\Header.nxc"
9	34	3		set __signed_stack_002close, 180
9	33	6	#line 33 "C:\Users\Kawtar\Documents\GitHub\OS_Project\Attacking\.\Header.nxc"
9	33	6	#line 33 "C:\Users\Kawtar\Documents\GitHub\OS_Project\Attacking\.\Header.nxc"
9	34	6		set __signed_stack_003close, 0
9	33	9	#line 33 "C:\Users\Kawtar\Documents\GitHub\OS_Project\Attacking\.\Header.nxc"
9	33	9	#line 33 "C:\Users\Kawtar\Documents\GitHub\OS_Project\Attacking\.\Header.nxc"
9	34	9		set __signed_stack_004close, 0
9	33	12	#line 33 "C:\Users\Kawtar\Documents\GitHub\OS_Project\Attacking\.\Header.nxc"
9	33	12	#line 33 "C:\Users\Kawtar\Documents\GitHub\OS_Project\Attacking\.\Header.nxc"
9	34	12		set __D0close, 1
9	34	15	#line 34 "C:\Users\Kawtar\Documents\GitHub\OS_Project\Attacking\.\Header.nxc"
9	35	15	#pragma macro 22
9	35	15		acquire __rotateMutex0
9	35	16		acquire __rotateMutex1
9	35	17		acquire __rotateMutex2
9	35	18		arrbuild __rotate_ports6, GMotor
9	35	22		mov __rotate_power6, __signed_stack_001close
9	35	24		mov __rotate_angle6, __signed_stack_002close
9	35	26		mov __rotate_turnpct6, __signed_stack_003close
9	35	29		mov __rotate_sync6, __signed_stack_004close
9	35	31		mov __rotate_stop6, __D0close
9	35	33		mov __rotate_theRVP6, __constVal32
9	35	35		mov __rotate_theRVI6, __constVal0
9	35	37		mov __rotate_theRVD6, __constVal96
9	35	39		subcall __RotateMotorVar, ____RotateMotorVar_return
9	35	42		release __rotateMutex2
9	35	43		release __rotateMutex1
9	35	44		release __rotateMutex0
9	5939	45	#line 5939 "C:\Users\Kawtar\Documents\GitHub\OS_Project\Attacking\.\Header.nxc"
9	34	45	#line 34 "C:\Users\Kawtar\Documents\GitHub\OS_Project\Attacking\.\Header.nxc"
9	36	45	#line 36 "C:\Users\Kawtar\Documents\GitHub\OS_Project\Attacking\.\Header.nxc"
9	37	45		subcall stopRotor, __stopRotor_return
9	36	47	#line 36 "C:\Users\Kawtar\Documents\GitHub\OS_Project\Attacking\.\Header.nxc"
9	38	47	#line 38 "C:\Users\Kawtar\Documents\GitHub\OS_Project\Attacking\.\Header.nxc"
9	39	47		subret __close_return
10	40	0	#line 40 "C:\Users\Kawtar\Documents\GitHub\OS_Project\Attacking\.\Header.nxc"
10	41	0		set __signed_stack_001open, 100
10	40	3	#line 40 "C:\Users\Kawtar\Documents\GitHub\OS_Project\Attacking\.\Header.nxc"
10	40	3	#line 40 "C:\Users\Kawtar\Documents\GitHub\OS_Project\Attacking\.\Header.nxc"
10	40	3	#line 40 "C:\Users\Kawtar\Documents\GitHub\OS_Project\Attacking\.\Header.nxc"
10	40	3	#line 40 "C:\Users\Kawtar\Documents\GitHub\OS_Project\Attacking\.\Header.nxc"
10	40	3	#line 40 "C:\Users\Kawtar\Documents\GitHub\OS_Project\Attacking\.\Header.nxc"
10	41	3		sub __D0open, __constVal0, __open_7qG2_angle_7qG2_000
10	41	7	#line 41 "C:\Users\Kawtar\Documents\GitHub\OS_Project\Attacking\.\Header.nxc"
10	42	7	#pragma macro 22
10	42	7		acquire __rotateMutex0
10	42	8		acquire __rotateMutex1
10	42	9		acquire __rotateMutex2
10	42	10		arrbuild __rotate_ports6, GMotor
10	42	14		mov __rotate_power6, __signed_stack_001open
10	42	16		mov __rotate_angle6, __D0open
10	42	18		mov __rotate_turnpct6, __constVal0
10	42	20		mov __rotate_sync6, __constVal0
10	42	22		mov __rotate_stop6, __constVal1
10	42	24		mov __rotate_theRVP6, __constVal32
10	42	26		mov __rotate_theRVI6, __constVal0
10	42	28		mov __rotate_theRVD6, __constVal96
10	42	30		subcall __RotateMotorVar, ____RotateMotorVar_return
10	42	33		release __rotateMutex2
10	42	34		release __rotateMutex1
10	42	35		release __rotateMutex0
10	5970	36	#line 5970 "C:\Users\Kawtar\Documents\GitHub\OS_Project\Attacking\.\Header.nxc"
10	41	36	#line 41 "C:\Users\Kawtar\Documents\GitHub\OS_Project\Attacking\.\Header.nxc"
10	43	36	#line 43 "C:\Users\Kawtar\Documents\GitHub\OS_Project\Attacking\.\Header.nxc"
10	44	36		subcall stopRotor, __stopRotor_return
10	43	38	#line 43 "C:\Users\Kawtar\Documents\GitHub\OS_Project\Attacking\.\Header.nxc"
10	46	38	#line 46 "C:\Users\Kawtar\Documents\GitHub\OS_Project\Attacking\.\Header.nxc"
10	47	38		subret __open_return
11	16	0	#line 16 "C:\Users\Kawtar\Documents\GitHub\OS_Project\Attacking\Main_left.nxc"
11	17	0		set __SetSensorLowspeed_7qG2_port_7qG2_000_inline_init, 2
11	16	3	#line 16 "C:\Users\Kawtar\Documents\GitHub\OS_Project\Attacking\Main_left.nxc"
11	17	3	#line 17 "C:\Users\Kawtar\Documents\GitHub\OS_Project\Attacking\Main_left.nxc"
11	18	3		mov __SetSensorLowspeed_7qG2_bIsPowered_7qG2_000_inline_init, __constVal1
11	3758	5	#line 3758 "NXCDefs.h"
11	3759	5		mov __SetSensorType_7qG2_port_7qG2_000_inline_SetSensorLowspeed_inline_init, __SetSensorLowspeed_7qG2_port_7qG2_000_inline_init
11	3758	7	#line 3758 "NXCDefs.h"
11	3758	7	#line 3758 "NXCDefs.h"
11	3759	7		mov __DU0SetSensorLowspeed_inline_init, __SetSensorLowspeed_7qG2_bIsPowered_7qG2_000_inline_init
11	3758	9	#line 3758 "NXCDefs.h"
11	3759	9		tst 5, __zfSetSensorLowspeed_inline_init, __DU0SetSensorLowspeed_inline_init
11	3758	12	#line 3758 "NXCDefs.h"
11	3759	12		brtst 4, __004__NXC_Label_36, __zfSetSensorLowspeed_inline_init
11	3758	15	#line 3758 "NXCDefs.h"
11	3759	15		set __D0SetSensorLowspeed_inline_init, 11
11	3758	18	#line 3758 "NXCDefs.h"
11	3759	18		jmp __004__NXC_Label_37
11	3758	20	#line 3758 "NXCDefs.h"
11	3759	20		set __D0SetSensorLowspeed_inline_init, 10
11	3758	23	#line 3758 "NXCDefs.h"
11	3759	23		mov __SetSensorType_7qG2_type_7qG2_000_inline_SetSensorLowspeed_inline_init, __D0SetSensorLowspeed_inline_init
11	3663	25	#line 3663 "NXCDefs.h"
11	3664	25		setin __SetSensorType_7qG2_type_7qG2_000_inline_SetSensorLowspeed_inline_init, __SetSensorType_7qG2_port_7qG2_000_inline_SetSensorLowspeed_inline_init, 0
11	3663	29	#line 3663 "NXCDefs.h"
11	3759	29	#line 3759 "NXCDefs.h"
11	3759	29	#line 3759 "NXCDefs.h"
11	3760	29		mov __SetSensorMode_7qG2_port_7qG2_000_inline_SetSensorLowspeed_inline_init, __SetSensorLowspeed_7qG2_port_7qG2_000_inline_init
11	3759	31	#line 3759 "NXCDefs.h"
11	3759	31	#line 3759 "NXCDefs.h"
11	3760	31		set __SetSensorMode_7qG2_mode_7qG2_000_inline_SetSensorLowspeed_inline_init, 0
11	3759	34	#line 3759 "NXCDefs.h"
11	3676	34	#line 3676 "NXCDefs.h"
11	3677	34		setin __SetSensorMode_7qG2_mode_7qG2_000_inline_SetSensorLowspeed_inline_init, __SetSensorMode_7qG2_port_7qG2_000_inline_SetSensorLowspeed_inline_init, 1
11	3676	38	#line 3676 "NXCDefs.h"
11	3760	38	#line 3760 "NXCDefs.h"
11	3760	38	#line 3760 "NXCDefs.h"
11	3761	38		mov __ResetSensor_7qG2_port_7qG2_000_inline_SetSensorLowspeed_inline_init, __SetSensorLowspeed_7qG2_port_7qG2_000_inline_init
11	3760	40	#line 3760 "NXCDefs.h"
11	3694	40	#line 3694 "NXCDefs.h"
11	3695	40	#pragma macro 4
11	3695	40		acquire __ResetSensorMutex
11	3695	41		mov __ResetSensorPort, __ResetSensor_7qG2_port_7qG2_000_inline_SetSensorLowspeed_inline_init
11	3695	43		subcall __ResetSensorSubroutine, ____ResetSensorSubroutine_return
11	3695	46		release __ResetSensorMutex
11	6131	47	#line 6131 "NXCDefs.h"
11	3694	47	#line 3694 "NXCDefs.h"
11	3761	47	#line 3761 "NXCDefs.h"
11	17	47	#line 17 "C:\Users\Kawtar\Documents\GitHub\OS_Project\Attacking\Main_left.nxc"
11	17	47	#line 17 "C:\Users\Kawtar\Documents\GitHub\OS_Project\Attacking\Main_left.nxc"
11	18	47		set __SetSensorLowspeed_7qG2_port_7qG2_000_inline_init, 1
11	17	50	#line 17 "C:\Users\Kawtar\Documents\GitHub\OS_Project\Attacking\Main_left.nxc"
11	19	50	#line 19 "C:\Users\Kawtar\Documents\GitHub\OS_Project\Attacking\Main_left.nxc"
11	20	50		mov __SetSensorLowspeed_7qG2_bIsPowered_7qG2_000_inline_init, __constVal1
11	3758	52	#line 3758 "NXCDefs.h"
11	3759	52		mov __SetSensorType_7qG2_port_7qG2_000_inline_SetSensorLowspeed_inline_init, __SetSensorLowspeed_7qG2_port_7qG2_000_inline_init
11	3758	54	#line 3758 "NXCDefs.h"
11	3758	54	#line 3758 "NXCDefs.h"
11	3759	54		mov __DU0SetSensorLowspeed_inline_init, __SetSensorLowspeed_7qG2_bIsPowered_7qG2_000_inline_init
11	3758	56	#line 3758 "NXCDefs.h"
11	3759	56		tst 5, __zfSetSensorLowspeed_inline_init, __DU0SetSensorLowspeed_inline_init
11	3758	59	#line 3758 "NXCDefs.h"
11	3759	59		brtst 4, __005__NXC_Label_36, __zfSetSensorLowspeed_inline_init
11	3758	62	#line 3758 "NXCDefs.h"
11	3759	62		set __D0SetSensorLowspeed_inline_init, 11
11	3758	65	#line 3758 "NXCDefs.h"
11	3759	65		jmp __005__NXC_Label_37
11	3758	67	#line 3758 "NXCDefs.h"
11	3759	67		set __D0SetSensorLowspeed_inline_init, 10
11	3758	70	#line 3758 "NXCDefs.h"
11	3759	70		mov __SetSensorType_7qG2_type_7qG2_000_inline_SetSensorLowspeed_inline_init, __D0SetSensorLowspeed_inline_init
11	3663	72	#line 3663 "NXCDefs.h"
11	3664	72		setin __SetSensorType_7qG2_type_7qG2_000_inline_SetSensorLowspeed_inline_init, __SetSensorType_7qG2_port_7qG2_000_inline_SetSensorLowspeed_inline_init, 0
11	3663	76	#line 3663 "NXCDefs.h"
11	3759	76	#line 3759 "NXCDefs.h"
11	3759	76	#line 3759 "NXCDefs.h"
11	3760	76		mov __SetSensorMode_7qG2_port_7qG2_000_inline_SetSensorLowspeed_inline_init, __SetSensorLowspeed_7qG2_port_7qG2_000_inline_init
11	3759	78	#line 3759 "NXCDefs.h"
11	3759	78	#line 3759 "NXCDefs.h"
11	3760	78		set __SetSensorMode_7qG2_mode_7qG2_000_inline_SetSensorLowspeed_inline_init, 0
11	3759	81	#line 3759 "NXCDefs.h"
11	3676	81	#line 3676 "NXCDefs.h"
11	3677	81		setin __SetSensorMode_7qG2_mode_7qG2_000_inline_SetSensorLowspeed_inline_init, __SetSensorMode_7qG2_port_7qG2_000_inline_SetSensorLowspeed_inline_init, 1
11	3676	85	#line 3676 "NXCDefs.h"
11	3760	85	#line 3760 "NXCDefs.h"
11	3760	85	#line 3760 "NXCDefs.h"
11	3761	85		mov __ResetSensor_7qG2_port_7qG2_000_inline_SetSensorLowspeed_inline_init, __SetSensorLowspeed_7qG2_port_7qG2_000_inline_init
11	3760	87	#line 3760 "NXCDefs.h"
11	3694	87	#line 3694 "NXCDefs.h"
11	3695	87	#pragma macro 4
11	3695	87		acquire __ResetSensorMutex
11	3695	88		mov __ResetSensorPort, __ResetSensor_7qG2_port_7qG2_000_inline_SetSensorLowspeed_inline_init
11	3695	90		subcall __ResetSensorSubroutine, ____ResetSensorSubroutine_return
11	3695	93		release __ResetSensorMutex
11	6198	94	#line 6198 "NXCDefs.h"
11	3694	94	#line 3694 "NXCDefs.h"
11	3761	94	#line 3761 "NXCDefs.h"
11	19	94	#line 19 "C:\Users\Kawtar\Documents\GitHub\OS_Project\Attacking\Main_left.nxc"
11	19	94	#line 19 "C:\Users\Kawtar\Documents\GitHub\OS_Project\Attacking\Main_left.nxc"
11	20	94		set __SetSensorTouch_7qG2_port_7qG2_000_inline_init, 3
11	19	97	#line 19 "C:\Users\Kawtar\Documents\GitHub\OS_Project\Attacking\Main_left.nxc"
11	3718	97	#line 3718 "NXCDefs.h"
11	3719	97	#pragma macro 6
11	3719	97		setin __constVal1, __SetSensorTouch_7qG2_port_7qG2_000_inline_init, 0
11	3719	101		setin __constVal32, __SetSensorTouch_7qG2_port_7qG2_000_inline_init, 1
11	3719	105		acquire __ResetSensorMutex
11	3719	106		mov __ResetSensorPort, __SetSensorTouch_7qG2_port_7qG2_000_inline_init
11	3719	108		subcall __ResetSensorSubroutine, ____ResetSensorSubroutine_return
11	3719	111		release __ResetSensorMutex
11	6213	112	#line 6213 "NXCDefs.h"
11	3718	112	#line 3718 "NXCDefs.h"
11	20	112	#line 20 "C:\Users\Kawtar\Documents\GitHub\OS_Project\Attacking\Main_left.nxc"
11	20	112	#line 20 "C:\Users\Kawtar\Documents\GitHub\OS_Project\Attacking\Main_left.nxc"
11	21	112		set __ClearSensor_7qG2_port_7qG2_000_inline_init, 0
11	20	115	#line 20 "C:\Users\Kawtar\Documents\GitHub\OS_Project\Attacking\Main_left.nxc"
11	3684	115	#line 3684 "NXCDefs.h"
11	3685	115		setin __constVal0, __ClearSensor_7qG2_port_7qG2_000_inline_init, 4
11	3684	119	#line 3684 "NXCDefs.h"
11	21	119	#line 21 "C:\Users\Kawtar\Documents\GitHub\OS_Project\Attacking\Main_left.nxc"
11	21	119	#line 21 "C:\Users\Kawtar\Documents\GitHub\OS_Project\Attacking\Main_left.nxc"
11	22	119	#pragma macro 30
11	22	119		acquire __RLSBmutex1
11	22	120		mov __RLSReadBuf1, __RLSBbufLSWrite1
11	22	122		set __RLSBytesCount1, 2
11	22	125		subcall __ReadLSBytes1, ____ReadLSBytes1_return
11	22	128		index __D0init, __RLSReadBuf1, 65535
11	22	132		index __RLSBytesCount1, __RLSReadBuf1, __constVal1
11	22	136		add __D0init, __D0init, __D0init
11	22	140		add __D0init, __D0init, __RLSBytesCount1
11	22	144		release __RLSBmutex1
11	6231	145	#line 6231 "C:\Users\Kawtar\Documents\GitHub\OS_Project\Attacking\Main_left.nxc"
11	21	145	#line 21 "C:\Users\Kawtar\Documents\GitHub\OS_Project\Attacking\Main_left.nxc"
11	22	145		mov ownGoal, __D0init
11	21	147	#line 21 "C:\Users\Kawtar\Documents\GitHub\OS_Project\Attacking\Main_left.nxc"
11	21	147	#line 21 "C:\Users\Kawtar\Documents\GitHub\OS_Project\Attacking\Main_left.nxc"
11	22	147	#line 22 "C:\Users\Kawtar\Documents\GitHub\OS_Project\Attacking\Main_left.nxc"
11	23	147		set __Wait_7qG2_ms_7qG2_000_inline_init, 100
11	22	150	#line 22 "C:\Users\Kawtar\Documents\GitHub\OS_Project\Attacking\Main_left.nxc"
11	7921	150	#line 7921 "NXCDefs.h"
11	7922	150		wait2 NA, __Wait_7qG2_ms_7qG2_000_inline_init
11	7921	153	#line 7921 "NXCDefs.h"
11	24	153	#line 24 "C:\Users\Kawtar\Documents\GitHub\OS_Project\Attacking\Main_left.nxc"
11	25	153	#line 25 "C:\Users\Kawtar\Documents\GitHub\OS_Project\Attacking\Main_left.nxc"
11	26	153		subcall containBalls, __containBalls_return
11	25	155	#line 25 "C:\Users\Kawtar\Documents\GitHub\OS_Project\Attacking\Main_left.nxc"
11	26	155	#line 26 "C:\Users\Kawtar\Documents\GitHub\OS_Project\Attacking\Main_left.nxc"
11	27	155	#pragma macro 7
11	27	155		setout motors, 2, __constVal0, 1, __constVal3, 8, __constVal0, 6, __constVal32, 7, __constVal0, 5, __constVal0, 10, __constVal96, 11, __constVal32, 12, __constVal32, 0, __constVal63
11	6256	178	#line 6256 "C:\Users\Kawtar\Documents\GitHub\OS_Project\Attacking\Main_left.nxc"
11	26	178	#line 26 "C:\Users\Kawtar\Documents\GitHub\OS_Project\Attacking\Main_left.nxc"
11	27	178	#line 27 "C:\Users\Kawtar\Documents\GitHub\OS_Project\Attacking\Main_left.nxc"
11	27	178	#line 27 "C:\Users\Kawtar\Documents\GitHub\OS_Project\Attacking\Main_left.nxc"
11	28	178		exit 0, 2
12	30	0	#line 30 "C:\Users\Kawtar\Documents\GitHub\OS_Project\Attacking\Main_left.nxc"
12	30	0	#line 30 "C:\Users\Kawtar\Documents\GitHub\OS_Project\Attacking\Main_left.nxc"
12	30	0	#line 30 "C:\Users\Kawtar\Documents\GitHub\OS_Project\Attacking\Main_left.nxc"
12	30	0	#line 30 "C:\Users\Kawtar\Documents\GitHub\OS_Project\Attacking\Main_left.nxc"
12	31	0		sub __D0getDegreeDiff, __getDegreeDiff_7qG2_current_7qG2_000, __getDegreeDiff_7qG2_old_7qG2_000
12	31	4	#line 31 "C:\Users\Kawtar\Documents\GitHub\OS_Project\Attacking\Main_left.nxc"
12	32	4		abs __getDegreeDiff_7qG2_diff_7qG2_000, __D0getDegreeDiff
12	31	7	#line 31 "C:\Users\Kawtar\Documents\GitHub\OS_Project\Attacking\Main_left.nxc"
12	31	7	#line 31 "C:\Users\Kawtar\Documents\GitHub\OS_Project\Attacking\Main_left.nxc"
12	32	7		mov __signed_stack_001getDegreeDiff, __getDegreeDiff_7qG2_diff_7qG2_000
12	31	9	#line 31 "C:\Users\Kawtar\Documents\GitHub\OS_Project\Attacking\Main_left.nxc"
12	32	9	#line 32 "C:\Users\Kawtar\Documents\GitHub\OS_Project\Attacking\Main_left.nxc"
12	33	9		set __D0getDegreeDiff, 180
12	32	12	#line 32 "C:\Users\Kawtar\Documents\GitHub\OS_Project\Attacking\Main_left.nxc"
12	33	12		cmp 1, __zfgetDegreeDiff, __signed_stack_001getDegreeDiff, __D0getDegreeDiff
12	32	16	#line 32 "C:\Users\Kawtar\Documents\GitHub\OS_Project\Attacking\Main_left.nxc"
12	33	16		mov __D0getDegreeDiff, __zfgetDegreeDiff
12	32	19	#line 32 "C:\Users\Kawtar\Documents\GitHub\OS_Project\Attacking\Main_left.nxc"
12	33	19		brtst 4, __NXC_Label_523, __zfgetDegreeDiff
12	32	22	#line 32 "C:\Users\Kawtar\Documents\GitHub\OS_Project\Attacking\Main_left.nxc"
12	32	22	#line 32 "C:\Users\Kawtar\Documents\GitHub\OS_Project\Attacking\Main_left.nxc"
12	33	22	#line 33 "C:\Users\Kawtar\Documents\GitHub\OS_Project\Attacking\Main_left.nxc"
12	33	22	#line 33 "C:\Users\Kawtar\Documents\GitHub\OS_Project\Attacking\Main_left.nxc"
12	34	22		sub __getDegreeDiff_7qG2_diff_7qG2_000, __constVal360, __getDegreeDiff_7qG2_diff_7qG2_000
12	33	26	#line 33 "C:\Users\Kawtar\Documents\GitHub\OS_Project\Attacking\Main_left.nxc"
12	33	26	#line 33 "C:\Users\Kawtar\Documents\GitHub\OS_Project\Attacking\Main_left.nxc"
12	33	26	#line 33 "C:\Users\Kawtar\Documents\GitHub\OS_Project\Attacking\Main_left.nxc"
12	34	26	#line 34 "C:\Users\Kawtar\Documents\GitHub\OS_Project\Attacking\Main_left.nxc"
12	35	26		mov __D0getDegreeDiff, __getDegreeDiff_7qG2_diff_7qG2_000
12	34	28	#line 34 "C:\Users\Kawtar\Documents\GitHub\OS_Project\Attacking\Main_left.nxc"
12	35	28		subret __getDegreeDiff_return
12	34	30	#line 34 "C:\Users\Kawtar\Documents\GitHub\OS_Project\Attacking\Main_left.nxc"
12	36	30	#line 36 "C:\Users\Kawtar\Documents\GitHub\OS_Project\Attacking\Main_left.nxc"
12	37	30		subret __getDegreeDiff_return
13	38	0	#line 38 "C:\Users\Kawtar\Documents\GitHub\OS_Project\Attacking\Main_left.nxc"
13	39	0		mov __signed_stack_001backtoOrigin, relBearing
13	38	2	#line 38 "C:\Users\Kawtar\Documents\GitHub\OS_Project\Attacking\Main_left.nxc"
13	39	2	#line 39 "C:\Users\Kawtar\Documents\GitHub\OS_Project\Attacking\Main_left.nxc"
13	40	2		set __D0backtoOrigin, 5
13	39	5	#line 39 "C:\Users\Kawtar\Documents\GitHub\OS_Project\Attacking\Main_left.nxc"
13	40	5		cmp 1, __zfbacktoOrigin, __signed_stack_001backtoOrigin, __D0backtoOrigin
13	39	9	#line 39 "C:\Users\Kawtar\Documents\GitHub\OS_Project\Attacking\Main_left.nxc"
13	40	9		mov __D0backtoOrigin, __zfbacktoOrigin
13	40	12	#line 40 "C:\Users\Kawtar\Documents\GitHub\OS_Project\Attacking\Main_left.nxc"
13	41	12		brtst 4, __NXC_Label_529, __zfbacktoOrigin
13	40	15	#line 40 "C:\Users\Kawtar\Documents\GitHub\OS_Project\Attacking\Main_left.nxc"
13	41	15		set __reverseDirection_7qG2_moveTime_7qG2_000, 100
13	40	18	#line 40 "C:\Users\Kawtar\Documents\GitHub\OS_Project\Attacking\Main_left.nxc"
13	41	18	#line 41 "C:\Users\Kawtar\Documents\GitHub\OS_Project\Attacking\Main_left.nxc"
13	42	18		subcall reverseDirection, __reverseDirection_return
13	41	21	#line 41 "C:\Users\Kawtar\Documents\GitHub\OS_Project\Attacking\Main_left.nxc"
13	41	21	#line 41 "C:\Users\Kawtar\Documents\GitHub\OS_Project\Attacking\Main_left.nxc"
13	42	21	#pragma macro 30
13	42	21		acquire __RLSBmutex1
13	42	22		mov __RLSReadBuf1, __RLSBbufLSWrite1
13	42	24		set __RLSBytesCount1, 2
13	42	27		subcall __ReadLSBytes1, ____ReadLSBytes1_return
13	42	30		index __D0backtoOrigin, __RLSReadBuf1, 65535
13	42	34		index __RLSBytesCount1, __RLSReadBuf1, __constVal1
13	42	38		add __D0backtoOrigin, __D0backtoOrigin, __D0backtoOrigin
13	42	42		add __D0backtoOrigin, __D0backtoOrigin, __RLSBytesCount1
13	42	46		release __RLSBmutex1
13	6350	47	#line 6350 "C:\Users\Kawtar\Documents\GitHub\OS_Project\Attacking\Main_left.nxc"
13	41	47	#line 41 "C:\Users\Kawtar\Documents\GitHub\OS_Project\Attacking\Main_left.nxc"
13	42	47		mov currentCompass, __D0backtoOrigin
13	41	49	#line 41 "C:\Users\Kawtar\Documents\GitHub\OS_Project\Attacking\Main_left.nxc"
13	41	49	#line 41 "C:\Users\Kawtar\Documents\GitHub\OS_Project\Attacking\Main_left.nxc"
13	43	49	#line 43 "C:\Users\Kawtar\Documents\GitHub\OS_Project\Attacking\Main_left.nxc"
13	43	49	#line 43 "C:\Users\Kawtar\Documents\GitHub\OS_Project\Attacking\Main_left.nxc"
13	43	49	#line 43 "C:\Users\Kawtar\Documents\GitHub\OS_Project\Attacking\Main_left.nxc"
13	43	49	#line 43 "C:\Users\Kawtar\Documents\GitHub\OS_Project\Attacking\Main_left.nxc"
13	44	49		sub __D0backtoOrigin, __D0backtoOrigin, ownGoal
13	44	53	#line 44 "C:\Users\Kawtar\Documents\GitHub\OS_Project\Attacking\Main_left.nxc"
13	45	53		abs relBearing, __D0backtoOrigin
13	44	56	#line 44 "C:\Users\Kawtar\Documents\GitHub\OS_Project\Attacking\Main_left.nxc"
13	44	56	#line 44 "C:\Users\Kawtar\Documents\GitHub\OS_Project\Attacking\Main_left.nxc"
13	45	56	#line 45 "C:\Users\Kawtar\Documents\GitHub\OS_Project\Attacking\Main_left.nxc"
13	46	56		jmp __NXC_Label_528
13	45	58	#line 45 "C:\Users\Kawtar\Documents\GitHub\OS_Project\Attacking\Main_left.nxc"
13	46	58	#line 46 "C:\Users\Kawtar\Documents\GitHub\OS_Project\Attacking\Main_left.nxc"
13	47	58	#pragma macro 7
13	47	58		setout motors, 2, __constVal0, 1, __constVal3, 8, __constVal0, 6, __constVal32, 7, __constVal0, 5, __constVal0, 10, __constVal96, 11, __constVal32, 12, __constVal32, 0, __constVal63
13	6379	81	#line 6379 "C:\Users\Kawtar\Documents\GitHub\OS_Project\Attacking\Main_left.nxc"
13	46	81	#line 46 "C:\Users\Kawtar\Documents\GitHub\OS_Project\Attacking\Main_left.nxc"
13	47	81	#line 47 "C:\Users\Kawtar\Documents\GitHub\OS_Project\Attacking\Main_left.nxc"
13	48	81		subret __backtoOrigin_return
14	63	0	#line 63 "C:\Users\Kawtar\Documents\GitHub\OS_Project\Attacking\Main_left.nxc"
14	64	0		set __signed_stack_001throwBall, 60
14	63	3	#line 63 "C:\Users\Kawtar\Documents\GitHub\OS_Project\Attacking\Main_left.nxc"
14	63	3	#line 63 "C:\Users\Kawtar\Documents\GitHub\OS_Project\Attacking\Main_left.nxc"
14	64	3		set __D0throwBall, 1
14	64	6	#line 64 "C:\Users\Kawtar\Documents\GitHub\OS_Project\Attacking\Main_left.nxc"
14	65	6	#pragma macro 10
14	65	6		acquire __OnRevMutex
14	65	7		neg __OnRev_Tmp, __signed_stack_001throwBall
14	65	10		setout motors, 2, __OnRev_Tmp, 1, __constVal7, 8, __constVal2, 7, __D0throwBall, 6, __constVal32, 5, __constVal0, 10, __constVal96, 11, __constVal32, 12, __constVal32, 0, __constVal63
14	65	33		release __OnRevMutex
14	6465	34	#line 6465 "C:\Users\Kawtar\Documents\GitHub\OS_Project\Attacking\Main_left.nxc"
14	64	34	#line 64 "C:\Users\Kawtar\Documents\GitHub\OS_Project\Attacking\Main_left.nxc"
14	64	34	#line 64 "C:\Users\Kawtar\Documents\GitHub\OS_Project\Attacking\Main_left.nxc"
14	65	34		set __Wait_7qG2_ms_7qG2_000_inline_throwBall, 1200
14	64	37	#line 64 "C:\Users\Kawtar\Documents\GitHub\OS_Project\Attacking\Main_left.nxc"
14	7921	37	#line 7921 "NXCDefs.h"
14	7922	37		wait2 NA, __Wait_7qG2_ms_7qG2_000_inline_throwBall
14	7921	40	#line 7921 "NXCDefs.h"
14	65	40	#line 65 "C:\Users\Kawtar\Documents\GitHub\OS_Project\Attacking\Main_left.nxc"
14	66	40	#line 66 "C:\Users\Kawtar\Documents\GitHub\OS_Project\Attacking\Main_left.nxc"
14	67	40	#pragma macro 7
14	67	40		setout motors, 2, __constVal0, 1, __constVal3, 8, __constVal0, 6, __constVal32, 7, __constVal0, 5, __constVal0, 10, __constVal96, 11, __constVal32, 12, __constVal32, 0, __constVal63
14	6482	63	#line 6482 "C:\Users\Kawtar\Documents\GitHub\OS_Project\Attacking\Main_left.nxc"
14	66	63	#line 66 "C:\Users\Kawtar\Documents\GitHub\OS_Project\Attacking\Main_left.nxc"
14	67	63	#line 67 "C:\Users\Kawtar\Documents\GitHub\OS_Project\Attacking\Main_left.nxc"
14	68	63		subcall close, __close_return
14	67	65	#line 67 "C:\Users\Kawtar\Documents\GitHub\OS_Project\Attacking\Main_left.nxc"
14	67	65	#line 67 "C:\Users\Kawtar\Documents\GitHub\OS_Project\Attacking\Main_left.nxc"
14	68	65		set __signed_stack_001throwBall, 100
14	67	68	#line 67 "C:\Users\Kawtar\Documents\GitHub\OS_Project\Attacking\Main_left.nxc"
14	67	68	#line 67 "C:\Users\Kawtar\Documents\GitHub\OS_Project\Attacking\Main_left.nxc"
14	68	68		set __D0throwBall, 1
14	68	71	#line 68 "C:\Users\Kawtar\Documents\GitHub\OS_Project\Attacking\Main_left.nxc"
14	69	71	#pragma macro 7
14	69	71		setout motors, 2, __signed_stack_001throwBall, 1, __constVal7, 8, __constVal2, 7, __D0throwBall, 6, __constVal32, 5, __constVal0, 10, __constVal96, 11, __constVal32, 12, __constVal32, 0, __constVal63
14	6498	94	#line 6498 "C:\Users\Kawtar\Documents\GitHub\OS_Project\Attacking\Main_left.nxc"
14	68	94	#line 68 "C:\Users\Kawtar\Documents\GitHub\OS_Project\Attacking\Main_left.nxc"
14	68	94	#line 68 "C:\Users\Kawtar\Documents\GitHub\OS_Project\Attacking\Main_left.nxc"
14	69	94		set __Wait_7qG2_ms_7qG2_000_inline_throwBall, 900
14	68	97	#line 68 "C:\Users\Kawtar\Documents\GitHub\OS_Project\Attacking\Main_left.nxc"
14	7921	97	#line 7921 "NXCDefs.h"
14	7922	97		wait2 NA, __Wait_7qG2_ms_7qG2_000_inline_throwBall
14	7921	100	#line 7921 "NXCDefs.h"
14	69	100	#line 69 "C:\Users\Kawtar\Documents\GitHub\OS_Project\Attacking\Main_left.nxc"
14	69	100	#line 69 "C:\Users\Kawtar\Documents\GitHub\OS_Project\Attacking\Main_left.nxc"
14	70	100		set __open_7qG2_angle_7qG2_000, 180
14	69	103	#line 69 "C:\Users\Kawtar\Documents\GitHub\OS_Project\Attacking\Main_left.nxc"
14	70	103	#line 70 "C:\Users\Kawtar\Documents\GitHub\OS_Project\Attacking\Main_left.nxc"
14	71	103		subcall open, __open_return
14	70	105	#line 70 "C:\Users\Kawtar\Documents\GitHub\OS_Project\Attacking\Main_left.nxc"
14	71	105	#line 71 "C:\Users\Kawtar\Documents\GitHub\OS_Project\Attacking\Main_left.nxc"
14	72	105	#pragma macro 7
14	72	105		setout motors, 2, __constVal0, 1, __constVal3, 8, __constVal0, 6, __constVal32, 7, __constVal0, 5, __constVal0, 10, __constVal96, 11, __constVal32, 12, __constVal32, 0, __constVal63
14	6520	128	#line 6520 "C:\Users\Kawtar\Documents\GitHub\OS_Project\Attacking\Main_left.nxc"
14	71	128	#line 71 "C:\Users\Kawtar\Documents\GitHub\OS_Project\Attacking\Main_left.nxc"
14	72	128	#line 72 "C:\Users\Kawtar\Documents\GitHub\OS_Project\Attacking\Main_left.nxc"
14	73	128		subcall stopRotor, __stopRotor_return
14	72	130	#line 72 "C:\Users\Kawtar\Documents\GitHub\OS_Project\Attacking\Main_left.nxc"
14	74	130	#line 74 "C:\Users\Kawtar\Documents\GitHub\OS_Project\Attacking\Main_left.nxc"
14	75	130		subret __throwBall_return
15	79	0	#line 79 "C:\Users\Kawtar\Documents\GitHub\OS_Project\Attacking\Main_left.nxc"
15	80	0		set __getObjColor_7qG2_output_7qG2_000, 0
15	79	3	#line 79 "C:\Users\Kawtar\Documents\GitHub\OS_Project\Attacking\Main_left.nxc"
15	79	3	#line 79 "C:\Users\Kawtar\Documents\GitHub\OS_Project\Attacking\Main_left.nxc"
15	80	3	#pragma macro 32
15	80	3		acquire __RLSBmutex2
15	80	4		mov __RLSReadBuf2, __RLSBbufLSWrite1
15	80	6		set __RLSBytesCount2, 4
15	80	9		subcall __ReadLSBytes2, ____ReadLSBytes2_return
15	80	12		tst 4, __D0getObjColor, __RLSBResult2
15	80	15		index __getObjColor_7qG2_output_7qG2_000, __RLSReadBuf2, 65535
15	80	19		release __RLSBmutex2
15	6553	20	#line 6553 "C:\Users\Kawtar\Documents\GitHub\OS_Project\Attacking\Main_left.nxc"
15	79	20	#line 79 "C:\Users\Kawtar\Documents\GitHub\OS_Project\Attacking\Main_left.nxc"
15	79	20	#line 79 "C:\Users\Kawtar\Documents\GitHub\OS_Project\Attacking\Main_left.nxc"
15	81	20	#line 81 "C:\Users\Kawtar\Documents\GitHub\OS_Project\Attacking\Main_left.nxc"
15	82	20		mov __DU0getObjColor, __getObjColor_7qG2_output_7qG2_000
15	81	23	#line 81 "C:\Users\Kawtar\Documents\GitHub\OS_Project\Attacking\Main_left.nxc"
15	82	23		subret __getObjColor_return
15	81	25	#line 81 "C:\Users\Kawtar\Documents\GitHub\OS_Project\Attacking\Main_left.nxc"
15	83	25	#line 83 "C:\Users\Kawtar\Documents\GitHub\OS_Project\Attacking\Main_left.nxc"
15	84	25		subret __getObjColor_return
16	86	0	#line 86 "C:\Users\Kawtar\Documents\GitHub\OS_Project\Attacking\Main_left.nxc"
16	87	0		subcall getObjColor, __getObjColor_return
16	86	3	#line 86 "C:\Users\Kawtar\Documents\GitHub\OS_Project\Attacking\Main_left.nxc"
16	87	3		mov __isNotField_7qG2_output_7qG2_000, __DU0getObjColor
16	86	5	#line 86 "C:\Users\Kawtar\Documents\GitHub\OS_Project\Attacking\Main_left.nxc"
16	86	5	#line 86 "C:\Users\Kawtar\Documents\GitHub\OS_Project\Attacking\Main_left.nxc"
16	87	5		mov __unsigned_stack_001isNotField, __DU0getObjColor
16	86	7	#line 86 "C:\Users\Kawtar\Documents\GitHub\OS_Project\Attacking\Main_left.nxc"
16	86	7	#line 86 "C:\Users\Kawtar\Documents\GitHub\OS_Project\Attacking\Main_left.nxc"
16	87	7		set __D0isNotField, 2
16	86	10	#line 86 "C:\Users\Kawtar\Documents\GitHub\OS_Project\Attacking\Main_left.nxc"
16	87	10		cmp 5, __zfisNotField, __unsigned_stack_001isNotField, __D0isNotField
16	86	14	#line 86 "C:\Users\Kawtar\Documents\GitHub\OS_Project\Attacking\Main_left.nxc"
16	87	14		mov __D0isNotField, __zfisNotField
16	86	17	#line 86 "C:\Users\Kawtar\Documents\GitHub\OS_Project\Attacking\Main_left.nxc"
16	87	17		brtst 4, __NXC_Label_579, __zfisNotField
16	86	20	#line 86 "C:\Users\Kawtar\Documents\GitHub\OS_Project\Attacking\Main_left.nxc"
16	87	20		mov __signed_stack_001isNotField, __D0isNotField
16	86	22	#line 86 "C:\Users\Kawtar\Documents\GitHub\OS_Project\Attacking\Main_left.nxc"
16	87	22		mov __unsigned_stack_002isNotField, __isNotField_7qG2_output_7qG2_000
16	86	24	#line 86 "C:\Users\Kawtar\Documents\GitHub\OS_Project\Attacking\Main_left.nxc"
16	86	24	#line 86 "C:\Users\Kawtar\Documents\GitHub\OS_Project\Attacking\Main_left.nxc"
16	87	24		set __D0isNotField, 9
16	86	27	#line 86 "C:\Users\Kawtar\Documents\GitHub\OS_Project\Attacking\Main_left.nxc"
16	87	27		cmp 5, __zfisNotField, __unsigned_stack_002isNotField, __D0isNotField
16	86	31	#line 86 "C:\Users\Kawtar\Documents\GitHub\OS_Project\Attacking\Main_left.nxc"
16	86	31	#line 86 "C:\Users\Kawtar\Documents\GitHub\OS_Project\Attacking\Main_left.nxc"
16	87	31		and __D0isNotField, __signed_stack_001isNotField, __zfisNotField
16	86	35	#line 86 "C:\Users\Kawtar\Documents\GitHub\OS_Project\Attacking\Main_left.nxc"
16	87	35		tst 5, __zfisNotField, __D0isNotField
16	86	38	#line 86 "C:\Users\Kawtar\Documents\GitHub\OS_Project\Attacking\Main_left.nxc"
16	87	38		mov __D0isNotField, __zfisNotField
16	86	41	#line 86 "C:\Users\Kawtar\Documents\GitHub\OS_Project\Attacking\Main_left.nxc"
16	87	41		brtst 4, __NXC_Label_579, __zfisNotField
16	86	44	#line 86 "C:\Users\Kawtar\Documents\GitHub\OS_Project\Attacking\Main_left.nxc"
16	87	44		mov __signed_stack_001isNotField, __D0isNotField
16	86	46	#line 86 "C:\Users\Kawtar\Documents\GitHub\OS_Project\Attacking\Main_left.nxc"
16	87	46		mov __unsigned_stack_002isNotField, __isNotField_7qG2_output_7qG2_000
16	86	48	#line 86 "C:\Users\Kawtar\Documents\GitHub\OS_Project\Attacking\Main_left.nxc"
16	86	48	#line 86 "C:\Users\Kawtar\Documents\GitHub\OS_Project\Attacking\Main_left.nxc"
16	87	48		set __D0isNotField, 17
16	86	51	#line 86 "C:\Users\Kawtar\Documents\GitHub\OS_Project\Attacking\Main_left.nxc"
16	87	51		cmp 5, __zfisNotField, __unsigned_stack_002isNotField, __D0isNotField
16	86	55	#line 86 "C:\Users\Kawtar\Documents\GitHub\OS_Project\Attacking\Main_left.nxc"
16	86	55	#line 86 "C:\Users\Kawtar\Documents\GitHub\OS_Project\Attacking\Main_left.nxc"
16	87	55		and __D0isNotField, __signed_stack_001isNotField, __zfisNotField
16	86	59	#line 86 "C:\Users\Kawtar\Documents\GitHub\OS_Project\Attacking\Main_left.nxc"
16	87	59		tst 5, __zfisNotField, __D0isNotField
16	86	62	#line 86 "C:\Users\Kawtar\Documents\GitHub\OS_Project\Attacking\Main_left.nxc"
16	87	62		mov __D0isNotField, __zfisNotField
16	86	65	#line 86 "C:\Users\Kawtar\Documents\GitHub\OS_Project\Attacking\Main_left.nxc"
16	87	65		brtst 4, __NXC_Label_579, __zfisNotField
16	86	68	#line 86 "C:\Users\Kawtar\Documents\GitHub\OS_Project\Attacking\Main_left.nxc"
16	87	68		mov __signed_stack_001isNotField, __D0isNotField
16	86	70	#line 86 "C:\Users\Kawtar\Documents\GitHub\OS_Project\Attacking\Main_left.nxc"
16	87	70		mov __unsigned_stack_002isNotField, __isNotField_7qG2_output_7qG2_000
16	86	72	#line 86 "C:\Users\Kawtar\Documents\GitHub\OS_Project\Attacking\Main_left.nxc"
16	86	72	#line 86 "C:\Users\Kawtar\Documents\GitHub\OS_Project\Attacking\Main_left.nxc"
16	87	72		set __D0isNotField, 0
16	86	75	#line 86 "C:\Users\Kawtar\Documents\GitHub\OS_Project\Attacking\Main_left.nxc"
16	87	75		cmp 5, __zfisNotField, __unsigned_stack_002isNotField, __D0isNotField
16	86	79	#line 86 "C:\Users\Kawtar\Documents\GitHub\OS_Project\Attacking\Main_left.nxc"
16	86	79	#line 86 "C:\Users\Kawtar\Documents\GitHub\OS_Project\Attacking\Main_left.nxc"
16	87	79		and __D0isNotField, __signed_stack_001isNotField, __zfisNotField
16	87	83	#line 87 "C:\Users\Kawtar\Documents\GitHub\OS_Project\Attacking\Main_left.nxc"
16	88	83		mov __DU0isNotField, __D0isNotField
16	87	85	#line 87 "C:\Users\Kawtar\Documents\GitHub\OS_Project\Attacking\Main_left.nxc"
16	88	85		subret __isNotField_return
16	87	87	#line 87 "C:\Users\Kawtar\Documents\GitHub\OS_Project\Attacking\Main_left.nxc"
16	89	87	#line 89 "C:\Users\Kawtar\Documents\GitHub\OS_Project\Attacking\Main_left.nxc"
16	90	87		subret __isNotField_return
17	92	0	#line 92 "C:\Users\Kawtar\Documents\GitHub\OS_Project\Attacking\Main_left.nxc"
17	93	0		subcall getObjColor, __getObjColor_return
17	92	3	#line 92 "C:\Users\Kawtar\Documents\GitHub\OS_Project\Attacking\Main_left.nxc"
17	93	3		mov __checkandthrow_7qG2_output_7qG2_000, __DU0getObjColor
17	92	5	#line 92 "C:\Users\Kawtar\Documents\GitHub\OS_Project\Attacking\Main_left.nxc"
17	92	5	#line 92 "C:\Users\Kawtar\Documents\GitHub\OS_Project\Attacking\Main_left.nxc"
17	93	5		mov __unsigned_stack_001checkandthrow, __DU0getObjColor
17	92	7	#line 92 "C:\Users\Kawtar\Documents\GitHub\OS_Project\Attacking\Main_left.nxc"
17	92	7	#line 92 "C:\Users\Kawtar\Documents\GitHub\OS_Project\Attacking\Main_left.nxc"
17	93	7		set __D0checkandthrow, 9
17	92	10	#line 92 "C:\Users\Kawtar\Documents\GitHub\OS_Project\Attacking\Main_left.nxc"
17	93	10		cmp 4, __zfcheckandthrow, __unsigned_stack_001checkandthrow, __D0checkandthrow
17	92	14	#line 92 "C:\Users\Kawtar\Documents\GitHub\OS_Project\Attacking\Main_left.nxc"
17	93	14		mov __D0checkandthrow, __zfcheckandthrow
17	92	17	#line 92 "C:\Users\Kawtar\Documents\GitHub\OS_Project\Attacking\Main_left.nxc"
17	93	17		brtst 5, __NXC_Label_590, __zfcheckandthrow
17	92	20	#line 92 "C:\Users\Kawtar\Documents\GitHub\OS_Project\Attacking\Main_left.nxc"
17	93	20		mov __signed_stack_001checkandthrow, __D0checkandthrow
17	92	22	#line 92 "C:\Users\Kawtar\Documents\GitHub\OS_Project\Attacking\Main_left.nxc"
17	93	22		mov __unsigned_stack_002checkandthrow, __checkandthrow_7qG2_output_7qG2_000
17	92	24	#line 92 "C:\Users\Kawtar\Documents\GitHub\OS_Project\Attacking\Main_left.nxc"
17	93	24	#line 93 "C:\Users\Kawtar\Documents\GitHub\OS_Project\Attacking\Main_left.nxc"
17	94	24		set __D0checkandthrow, 2
17	93	27	#line 93 "C:\Users\Kawtar\Documents\GitHub\OS_Project\Attacking\Main_left.nxc"
17	94	27		cmp 4, __zfcheckandthrow, __unsigned_stack_002checkandthrow, __D0checkandthrow
17	93	31	#line 93 "C:\Users\Kawtar\Documents\GitHub\OS_Project\Attacking\Main_left.nxc"
17	93	31	#line 93 "C:\Users\Kawtar\Documents\GitHub\OS_Project\Attacking\Main_left.nxc"
17	94	31		or __D0checkandthrow, __signed_stack_001checkandthrow, __zfcheckandthrow
17	94	35	#line 94 "C:\Users\Kawtar\Documents\GitHub\OS_Project\Attacking\Main_left.nxc"
17	95	35		tst 5, __zfcheckandthrow, __D0checkandthrow
17	94	38	#line 94 "C:\Users\Kawtar\Documents\GitHub\OS_Project\Attacking\Main_left.nxc"
17	95	38		brtst 4, __NXC_Label_593, __zfcheckandthrow
17	95	41	#line 95 "C:\Users\Kawtar\Documents\GitHub\OS_Project\Attacking\Main_left.nxc"
17	96	41		subcall close, __close_return
17	95	43	#line 95 "C:\Users\Kawtar\Documents\GitHub\OS_Project\Attacking\Main_left.nxc"
17	96	43	#line 96 "C:\Users\Kawtar\Documents\GitHub\OS_Project\Attacking\Main_left.nxc"
17	97	43		subcall backtoOrigin, __backtoOrigin_return
17	96	46	#line 96 "C:\Users\Kawtar\Documents\GitHub\OS_Project\Attacking\Main_left.nxc"
17	96	46	#line 96 "C:\Users\Kawtar\Documents\GitHub\OS_Project\Attacking\Main_left.nxc"
17	97	46		set __open_7qG2_angle_7qG2_000, 15
17	96	49	#line 96 "C:\Users\Kawtar\Documents\GitHub\OS_Project\Attacking\Main_left.nxc"
17	97	49	#line 97 "C:\Users\Kawtar\Documents\GitHub\OS_Project\Attacking\Main_left.nxc"
17	98	49		subcall open, __open_return
17	97	51	#line 97 "C:\Users\Kawtar\Documents\GitHub\OS_Project\Attacking\Main_left.nxc"
17	97	51	#line 97 "C:\Users\Kawtar\Documents\GitHub\OS_Project\Attacking\Main_left.nxc"
17	98	51		set __Wait_7qG2_ms_7qG2_000_inline_checkandthrow, 800
17	97	54	#line 97 "C:\Users\Kawtar\Documents\GitHub\OS_Project\Attacking\Main_left.nxc"
17	7921	54	#line 7921 "NXCDefs.h"
17	7922	54		wait2 NA, __Wait_7qG2_ms_7qG2_000_inline_checkandthrow
17	7921	57	#line 7921 "NXCDefs.h"
17	98	57	#line 98 "C:\Users\Kawtar\Documents\GitHub\OS_Project\Attacking\Main_left.nxc"
17	98	57	#line 98 "C:\Users\Kawtar\Documents\GitHub\OS_Project\Attacking\Main_left.nxc"
17	99	57		set __open_7qG2_angle_7qG2_000, 165
17	98	60	#line 98 "C:\Users\Kawtar\Documents\GitHub\OS_Project\Attacking\Main_left.nxc"
17	99	60	#line 99 "C:\Users\Kawtar\Documents\GitHub\OS_Project\Attacking\Main_left.nxc"
17	100	60		subcall open, __open_return
17	99	62	#line 99 "C:\Users\Kawtar\Documents\GitHub\OS_Project\Attacking\Main_left.nxc"
17	100	62	#line 100 "C:\Users\Kawtar\Documents\GitHub\OS_Project\Attacking\Main_left.nxc"
17	101	62		subcall throwBall, __throwBall_return
17	100	65	#line 100 "C:\Users\Kawtar\Documents\GitHub\OS_Project\Attacking\Main_left.nxc"
17	101	65	#line 101 "C:\Users\Kawtar\Documents\GitHub\OS_Project\Attacking\Main_left.nxc"
17	102	65		set __DU0checkandthrow, 1
17	101	68	#line 101 "C:\Users\Kawtar\Documents\GitHub\OS_Project\Attacking\Main_left.nxc"
17	101	68	#line 101 "C:\Users\Kawtar\Documents\GitHub\OS_Project\Attacking\Main_left.nxc"
17	102	68		subret __checkandthrow_return
17	101	70	#line 101 "C:\Users\Kawtar\Documents\GitHub\OS_Project\Attacking\Main_left.nxc"
17	102	70	#line 102 "C:\Users\Kawtar\Documents\GitHub\OS_Project\Attacking\Main_left.nxc"
17	103	70	#line 103 "C:\Users\Kawtar\Documents\GitHub\OS_Project\Attacking\Main_left.nxc"
17	104	70		set __DU0checkandthrow, 0
17	103	73	#line 103 "C:\Users\Kawtar\Documents\GitHub\OS_Project\Attacking\Main_left.nxc"
17	103	73	#line 103 "C:\Users\Kawtar\Documents\GitHub\OS_Project\Attacking\Main_left.nxc"
17	104	73		subret __checkandthrow_return
17	103	75	#line 103 "C:\Users\Kawtar\Documents\GitHub\OS_Project\Attacking\Main_left.nxc"
17	106	75	#line 106 "C:\Users\Kawtar\Documents\GitHub\OS_Project\Attacking\Main_left.nxc"
17	107	75		subret __checkandthrow_return
18	108	0	#line 108 "C:\Users\Kawtar\Documents\GitHub\OS_Project\Attacking\Main_left.nxc"
18	109	0		set __signed_stack_001moveTowardObj, 40
18	108	3	#line 108 "C:\Users\Kawtar\Documents\GitHub\OS_Project\Attacking\Main_left.nxc"
18	108	3	#line 108 "C:\Users\Kawtar\Documents\GitHub\OS_Project\Attacking\Main_left.nxc"
18	109	3		set __D0moveTowardObj, 1
18	109	6	#line 109 "C:\Users\Kawtar\Documents\GitHub\OS_Project\Attacking\Main_left.nxc"
18	110	6	#pragma macro 7
18	110	6		setout __OUT_AC, 2, __signed_stack_001moveTowardObj, 1, __constVal7, 8, __constVal2, 7, __D0moveTowardObj, 6, __constVal32, 5, __constVal0, 10, __constVal96, 11, __constVal32, 12, __constVal32, 0, __constVal63
18	6790	29	#line 6790 "C:\Users\Kawtar\Documents\GitHub\OS_Project\Attacking\Main_left.nxc"
18	109	29	#line 109 "C:\Users\Kawtar\Documents\GitHub\OS_Project\Attacking\Main_left.nxc"
18	110	29	#line 110 "C:\Users\Kawtar\Documents\GitHub\OS_Project\Attacking\Main_left.nxc"
18	111	29		set __moveTowardObj_7qG2_meetWall_7qG2_000, 0
18	110	32	#line 110 "C:\Users\Kawtar\Documents\GitHub\OS_Project\Attacking\Main_left.nxc"
18	111	32	#line 111 "C:\Users\Kawtar\Documents\GitHub\OS_Project\Attacking\Main_left.nxc"
18	112	32		set __D0moveTowardObj, 1
18	112	35	#line 112 "C:\Users\Kawtar\Documents\GitHub\OS_Project\Attacking\Main_left.nxc"
18	113	35		tst 5, __zfmoveTowardObj, __D0moveTowardObj
18	112	38	#line 112 "C:\Users\Kawtar\Documents\GitHub\OS_Project\Attacking\Main_left.nxc"
18	113	38		brtst 4, __NXC_Label_611, __zfmoveTowardObj
18	112	41	#line 112 "C:\Users\Kawtar\Documents\GitHub\OS_Project\Attacking\Main_left.nxc"
18	113	41		set __ClearSensor_7qG2_port_7qG2_000_inline_moveTowardObj, 0
18	112	44	#line 112 "C:\Users\Kawtar\Documents\GitHub\OS_Project\Attacking\Main_left.nxc"
18	3684	44	#line 3684 "NXCDefs.h"
18	3685	44		setin __constVal0, __ClearSensor_7qG2_port_7qG2_000_inline_moveTowardObj, 4
18	3684	48	#line 3684 "NXCDefs.h"
18	113	48	#line 113 "C:\Users\Kawtar\Documents\GitHub\OS_Project\Attacking\Main_left.nxc"
18	114	48	#line 114 "C:\Users\Kawtar\Documents\GitHub\OS_Project\Attacking\Main_left.nxc"
18	115	48		subcall isNotField, __isNotField_return
18	114	51	#line 114 "C:\Users\Kawtar\Documents\GitHub\OS_Project\Attacking\Main_left.nxc"
18	115	51		mov __moveTowardObj_7qG2_meetWall_7qG2_000, __DU0isNotField
18	114	53	#line 114 "C:\Users\Kawtar\Documents\GitHub\OS_Project\Attacking\Main_left.nxc"
18	114	53	#line 114 "C:\Users\Kawtar\Documents\GitHub\OS_Project\Attacking\Main_left.nxc"
18	114	53	#line 114 "C:\Users\Kawtar\Documents\GitHub\OS_Project\Attacking\Main_left.nxc"
18	115	53	#pragma macro 26
18	115	53		acquire __RLSBmutex0
18	115	54		mov __RLSReadBuf0, __RLSBbufLSWrite1
18	115	56		set __RLSBytesCount0, 1
18	115	59		wait2 NA, __constVal15
18	115	62		subcall __ReadLSBytes0, ____ReadLSBytes0_return
18	115	65		index __D0moveTowardObj, __RLSReadBuf0, 65535
18	115	69		release __RLSBmutex0
18	6835	70	#line 6835 "C:\Users\Kawtar\Documents\GitHub\OS_Project\Attacking\Main_left.nxc"
18	114	70	#line 114 "C:\Users\Kawtar\Documents\GitHub\OS_Project\Attacking\Main_left.nxc"
18	115	70		mov __signed_stack_001moveTowardObj, __D0moveTowardObj
18	114	72	#line 114 "C:\Users\Kawtar\Documents\GitHub\OS_Project\Attacking\Main_left.nxc"
18	115	72		set __D0moveTowardObj, 7
18	114	75	#line 114 "C:\Users\Kawtar\Documents\GitHub\OS_Project\Attacking\Main_left.nxc"
18	115	75		cmp 2, __zfmoveTowardObj, __signed_stack_001moveTowardObj, __D0moveTowardObj
18	114	79	#line 114 "C:\Users\Kawtar\Documents\GitHub\OS_Project\Attacking\Main_left.nxc"
18	115	79		mov __D0moveTowardObj, __zfmoveTowardObj
18	114	82	#line 114 "C:\Users\Kawtar\Documents\GitHub\OS_Project\Attacking\Main_left.nxc"
18	115	82		brtst 5, __NXC_Label_618, __zfmoveTowardObj
18	114	85	#line 114 "C:\Users\Kawtar\Documents\GitHub\OS_Project\Attacking\Main_left.nxc"
18	115	85		mov __signed_stack_001moveTowardObj, __D0moveTowardObj
18	114	87	#line 114 "C:\Users\Kawtar\Documents\GitHub\OS_Project\Attacking\Main_left.nxc"
18	115	87		mov __DU0moveTowardObj, __moveTowardObj_7qG2_meetWall_7qG2_000
18	115	90	#line 115 "C:\Users\Kawtar\Documents\GitHub\OS_Project\Attacking\Main_left.nxc"
18	116	90		tst 5, __zfmoveTowardObj, __DU0moveTowardObj
18	115	93	#line 115 "C:\Users\Kawtar\Documents\GitHub\OS_Project\Attacking\Main_left.nxc"
18	115	93	#line 115 "C:\Users\Kawtar\Documents\GitHub\OS_Project\Attacking\Main_left.nxc"
18	116	93		or __D0moveTowardObj, __signed_stack_001moveTowardObj, __zfmoveTowardObj
18	116	97	#line 116 "C:\Users\Kawtar\Documents\GitHub\OS_Project\Attacking\Main_left.nxc"
18	117	97		tst 5, __zfmoveTowardObj, __D0moveTowardObj
18	116	100	#line 116 "C:\Users\Kawtar\Documents\GitHub\OS_Project\Attacking\Main_left.nxc"
18	117	100		brtst 4, __NXC_Label_625, __zfmoveTowardObj
18	117	103	#line 117 "C:\Users\Kawtar\Documents\GitHub\OS_Project\Attacking\Main_left.nxc"
18	118	103	#pragma macro 7
18	118	103		setout motors, 2, __constVal0, 1, __constVal3, 8, __constVal0, 6, __constVal32, 7, __constVal0, 5, __constVal0, 10, __constVal96, 11, __constVal32, 12, __constVal32, 0, __constVal63
18	6868	126	#line 6868 "C:\Users\Kawtar\Documents\GitHub\OS_Project\Attacking\Main_left.nxc"
18	117	126	#line 117 "C:\Users\Kawtar\Documents\GitHub\OS_Project\Attacking\Main_left.nxc"
18	118	126	#line 118 "C:\Users\Kawtar\Documents\GitHub\OS_Project\Attacking\Main_left.nxc"
18	119	126		jmp __NXC_Label_611
18	118	128	#line 118 "C:\Users\Kawtar\Documents\GitHub\OS_Project\Attacking\Main_left.nxc"
18	121	128	#line 121 "C:\Users\Kawtar\Documents\GitHub\OS_Project\Attacking\Main_left.nxc"
18	121	128	#line 121 "C:\Users\Kawtar\Documents\GitHub\OS_Project\Attacking\Main_left.nxc"
18	122	128		jmp __NXC_Label_610
18	121	130	#line 121 "C:\Users\Kawtar\Documents\GitHub\OS_Project\Attacking\Main_left.nxc"
18	122	130	#line 122 "C:\Users\Kawtar\Documents\GitHub\OS_Project\Attacking\Main_left.nxc"
18	123	130		mov __DU0moveTowardObj, __moveTowardObj_7qG2_meetWall_7qG2_000
18	123	133	#line 123 "C:\Users\Kawtar\Documents\GitHub\OS_Project\Attacking\Main_left.nxc"
18	124	133		tst 5, __zfmoveTowardObj, __DU0moveTowardObj
18	123	136	#line 123 "C:\Users\Kawtar\Documents\GitHub\OS_Project\Attacking\Main_left.nxc"
18	124	136		brtst 4, __NXC_Label_628, __zfmoveTowardObj
18	124	139	#line 124 "C:\Users\Kawtar\Documents\GitHub\OS_Project\Attacking\Main_left.nxc"
18	125	139		set __DU0moveTowardObj, 0
18	124	142	#line 124 "C:\Users\Kawtar\Documents\GitHub\OS_Project\Attacking\Main_left.nxc"
18	124	142	#line 124 "C:\Users\Kawtar\Documents\GitHub\OS_Project\Attacking\Main_left.nxc"
18	125	142		subret __moveTowardObj_return
18	124	144	#line 124 "C:\Users\Kawtar\Documents\GitHub\OS_Project\Attacking\Main_left.nxc"
18	127	144	#line 127 "C:\Users\Kawtar\Documents\GitHub\OS_Project\Attacking\Main_left.nxc"
18	128	144		jmp __NXC_Label_631
18	128	146	#line 128 "C:\Users\Kawtar\Documents\GitHub\OS_Project\Attacking\Main_left.nxc"
18	129	146		set __DU0moveTowardObj, 1
18	128	149	#line 128 "C:\Users\Kawtar\Documents\GitHub\OS_Project\Attacking\Main_left.nxc"
18	128	149	#line 128 "C:\Users\Kawtar\Documents\GitHub\OS_Project\Attacking\Main_left.nxc"
18	129	149		subret __moveTowardObj_return
18	128	151	#line 128 "C:\Users\Kawtar\Documents\GitHub\OS_Project\Attacking\Main_left.nxc"
18	132	151	#line 132 "C:\Users\Kawtar\Documents\GitHub\OS_Project\Attacking\Main_left.nxc"
18	132	151	#line 132 "C:\Users\Kawtar\Documents\GitHub\OS_Project\Attacking\Main_left.nxc"
18	133	151		subret __moveTowardObj_return
19	135	0	#line 135 "C:\Users\Kawtar\Documents\GitHub\OS_Project\Attacking\Main_left.nxc"
19	136	0		mov scanningLeft, scanningRight
19	135	2	#line 135 "C:\Users\Kawtar\Documents\GitHub\OS_Project\Attacking\Main_left.nxc"
19	135	2	#line 135 "C:\Users\Kawtar\Documents\GitHub\OS_Project\Attacking\Main_left.nxc"
19	136	2	#line 136 "C:\Users\Kawtar\Documents\GitHub\OS_Project\Attacking\Main_left.nxc"
19	136	2	#line 136 "C:\Users\Kawtar\Documents\GitHub\OS_Project\Attacking\Main_left.nxc"
19	137	2		not scanningRight, scanningRight
19	136	5	#line 136 "C:\Users\Kawtar\Documents\GitHub\OS_Project\Attacking\Main_left.nxc"
19	136	5	#line 136 "C:\Users\Kawtar\Documents\GitHub\OS_Project\Attacking\Main_left.nxc"
19	138	5	#line 138 "C:\Users\Kawtar\Documents\GitHub\OS_Project\Attacking\Main_left.nxc"
19	139	5		subret __changeDirection_return
20	140	0	#line 140 "C:\Users\Kawtar\Documents\GitHub\OS_Project\Attacking\Main_left.nxc"
20	141	0		set __signed_stack_001moveFwd, 40
20	140	3	#line 140 "C:\Users\Kawtar\Documents\GitHub\OS_Project\Attacking\Main_left.nxc"
20	140	3	#line 140 "C:\Users\Kawtar\Documents\GitHub\OS_Project\Attacking\Main_left.nxc"
20	141	3		set __D0moveFwd, 2
20	141	6	#line 141 "C:\Users\Kawtar\Documents\GitHub\OS_Project\Attacking\Main_left.nxc"
20	142	6	#pragma macro 7
20	142	6		setout __OUT_AC, 2, __signed_stack_001moveFwd, 1, __constVal7, 8, __constVal2, 7, __D0moveFwd, 6, __constVal32, 5, __constVal0, 10, __constVal96, 11, __constVal32, 12, __constVal32, 0, __constVal63
20	6947	29	#line 6947 "C:\Users\Kawtar\Documents\GitHub\OS_Project\Attacking\Main_left.nxc"
20	141	29	#line 141 "C:\Users\Kawtar\Documents\GitHub\OS_Project\Attacking\Main_left.nxc"
20	141	29	#line 141 "C:\Users\Kawtar\Documents\GitHub\OS_Project\Attacking\Main_left.nxc"
20	142	29		mov __Wait_7qG2_ms_7qG2_000_inline_moveFwd, __moveFwd_7qG2_moveTime_7qG2_000
20	141	31	#line 141 "C:\Users\Kawtar\Documents\GitHub\OS_Project\Attacking\Main_left.nxc"
20	7921	31	#line 7921 "NXCDefs.h"
20	7922	31		wait2 NA, __Wait_7qG2_ms_7qG2_000_inline_moveFwd
20	7921	34	#line 7921 "NXCDefs.h"
20	142	34	#line 142 "C:\Users\Kawtar\Documents\GitHub\OS_Project\Attacking\Main_left.nxc"
20	143	34	#line 143 "C:\Users\Kawtar\Documents\GitHub\OS_Project\Attacking\Main_left.nxc"
20	144	34	#pragma macro 7
20	144	34		setout motors, 2, __constVal0, 1, __constVal3, 8, __constVal0, 6, __constVal32, 7, __constVal0, 5, __constVal0, 10, __constVal96, 11, __constVal32, 12, __constVal32, 0, __constVal63
20	6964	57	#line 6964 "C:\Users\Kawtar\Documents\GitHub\OS_Project\Attacking\Main_left.nxc"
20	143	57	#line 143 "C:\Users\Kawtar\Documents\GitHub\OS_Project\Attacking\Main_left.nxc"
20	144	57	#line 144 "C:\Users\Kawtar\Documents\GitHub\OS_Project\Attacking\Main_left.nxc"
20	145	57		subret __moveFwd_return
21	146	0	#line 146 "C:\Users\Kawtar\Documents\GitHub\OS_Project\Attacking\Main_left.nxc"
21	147	0		set __signed_stack_001moveBwd, 40
21	146	3	#line 146 "C:\Users\Kawtar\Documents\GitHub\OS_Project\Attacking\Main_left.nxc"
21	146	3	#line 146 "C:\Users\Kawtar\Documents\GitHub\OS_Project\Attacking\Main_left.nxc"
21	147	3		set __D0moveBwd, 2
21	147	6	#line 147 "C:\Users\Kawtar\Documents\GitHub\OS_Project\Attacking\Main_left.nxc"
21	148	6	#pragma macro 10
21	148	6		acquire __OnRevMutex
21	148	7		neg __OnRev_Tmp, __signed_stack_001moveBwd
21	148	10		setout __OUT_AC, 2, __OnRev_Tmp, 1, __constVal7, 8, __constVal2, 7, __D0moveBwd, 6, __constVal32, 5, __constVal0, 10, __constVal96, 11, __constVal32, 12, __constVal32, 0, __constVal63
21	148	33		release __OnRevMutex
21	6982	34	#line 6982 "C:\Users\Kawtar\Documents\GitHub\OS_Project\Attacking\Main_left.nxc"
21	147	34	#line 147 "C:\Users\Kawtar\Documents\GitHub\OS_Project\Attacking\Main_left.nxc"
21	147	34	#line 147 "C:\Users\Kawtar\Documents\GitHub\OS_Project\Attacking\Main_left.nxc"
21	148	34		mov __Wait_7qG2_ms_7qG2_000_inline_moveBwd, __moveBwd_7qG2_moveTime_7qG2_000
21	147	36	#line 147 "C:\Users\Kawtar\Documents\GitHub\OS_Project\Attacking\Main_left.nxc"
21	7921	36	#line 7921 "NXCDefs.h"
21	7922	36		wait2 NA, __Wait_7qG2_ms_7qG2_000_inline_moveBwd
21	7921	39	#line 7921 "NXCDefs.h"
21	148	39	#line 148 "C:\Users\Kawtar\Documents\GitHub\OS_Project\Attacking\Main_left.nxc"
21	149	39	#line 149 "C:\Users\Kawtar\Documents\GitHub\OS_Project\Attacking\Main_left.nxc"
21	150	39	#pragma macro 7
21	150	39		setout motors, 2, __constVal0, 1, __constVal3, 8, __constVal0, 6, __constVal32, 7, __constVal0, 5, __constVal0, 10, __constVal96, 11, __constVal32, 12, __constVal32, 0, __constVal63
21	6999	62	#line 6999 "C:\Users\Kawtar\Documents\GitHub\OS_Project\Attacking\Main_left.nxc"
21	149	62	#line 149 "C:\Users\Kawtar\Documents\GitHub\OS_Project\Attacking\Main_left.nxc"
21	150	62	#line 150 "C:\Users\Kawtar\Documents\GitHub\OS_Project\Attacking\Main_left.nxc"
21	151	62		subret __moveBwd_return
22	153	0	#line 153 "C:\Users\Kawtar\Documents\GitHub\OS_Project\Attacking\Main_left.nxc"
22	154	0		mov __DU0reverseDirection, scanningRight
22	154	2	#line 154 "C:\Users\Kawtar\Documents\GitHub\OS_Project\Attacking\Main_left.nxc"
22	155	2		tst 5, __zfreverseDirection, __DU0reverseDirection
22	154	5	#line 154 "C:\Users\Kawtar\Documents\GitHub\OS_Project\Attacking\Main_left.nxc"
22	155	5		brtst 4, __NXC_Label_652, __zfreverseDirection
22	154	8	#line 154 "C:\Users\Kawtar\Documents\GitHub\OS_Project\Attacking\Main_left.nxc"
22	155	8		set __D0reverseDirection, 25
22	155	11	#line 155 "C:\Users\Kawtar\Documents\GitHub\OS_Project\Attacking\Main_left.nxc"
22	156	11	#pragma macro 7
22	156	11		setout RMotor, 2, __D0reverseDirection, 1, __constVal3, 8, __constVal0, 6, __constVal32, 7, __constVal0, 5, __constVal0, 10, __constVal96, 11, __constVal32, 12, __constVal32, 0, __constVal63
22	7019	34	#line 7019 "C:\Users\Kawtar\Documents\GitHub\OS_Project\Attacking\Main_left.nxc"
22	155	34	#line 155 "C:\Users\Kawtar\Documents\GitHub\OS_Project\Attacking\Main_left.nxc"
22	155	34	#line 155 "C:\Users\Kawtar\Documents\GitHub\OS_Project\Attacking\Main_left.nxc"
22	156	34		set __D0reverseDirection, 25
22	156	37	#line 156 "C:\Users\Kawtar\Documents\GitHub\OS_Project\Attacking\Main_left.nxc"
22	157	37	#pragma macro 10
22	157	37		acquire __OnRevMutex
22	157	38		neg __OnRev_Tmp, __D0reverseDirection
22	157	41		setout LMotor, 2, __OnRev_Tmp, 1, __constVal3, 8, __constVal0, 6, __constVal32, 7, __constVal0, 5, __constVal0, 10, __constVal96, 11, __constVal32, 12, __constVal32, 0, __constVal63
22	157	64		release __OnRevMutex
22	7026	65	#line 7026 "C:\Users\Kawtar\Documents\GitHub\OS_Project\Attacking\Main_left.nxc"
22	156	65	#line 156 "C:\Users\Kawtar\Documents\GitHub\OS_Project\Attacking\Main_left.nxc"
22	159	65	#line 159 "C:\Users\Kawtar\Documents\GitHub\OS_Project\Attacking\Main_left.nxc"
22	160	65		jmp __NXC_Label_657
22	159	67	#line 159 "C:\Users\Kawtar\Documents\GitHub\OS_Project\Attacking\Main_left.nxc"
22	160	67		set __D0reverseDirection, 25
22	160	70	#line 160 "C:\Users\Kawtar\Documents\GitHub\OS_Project\Attacking\Main_left.nxc"
22	161	70	#pragma macro 7
22	161	70		setout LMotor, 2, __D0reverseDirection, 1, __constVal3, 8, __constVal0, 6, __constVal32, 7, __constVal0, 5, __constVal0, 10, __constVal96, 11, __constVal32, 12, __constVal32, 0, __constVal63
22	7036	93	#line 7036 "C:\Users\Kawtar\Documents\GitHub\OS_Project\Attacking\Main_left.nxc"
22	160	93	#line 160 "C:\Users\Kawtar\Documents\GitHub\OS_Project\Attacking\Main_left.nxc"
22	160	93	#line 160 "C:\Users\Kawtar\Documents\GitHub\OS_Project\Attacking\Main_left.nxc"
22	161	93		set __D0reverseDirection, 25
22	161	96	#line 161 "C:\Users\Kawtar\Documents\GitHub\OS_Project\Attacking\Main_left.nxc"
22	162	96	#pragma macro 10
22	162	96		acquire __OnRevMutex
22	162	97		neg __OnRev_Tmp, __D0reverseDirection
22	162	100		setout RMotor, 2, __OnRev_Tmp, 1, __constVal3, 8, __constVal0, 6, __constVal32, 7, __constVal0, 5, __constVal0, 10, __constVal96, 11, __constVal32, 12, __constVal32, 0, __constVal63
22	162	123		release __OnRevMutex
22	7043	124	#line 7043 "C:\Users\Kawtar\Documents\GitHub\OS_Project\Attacking\Main_left.nxc"
22	161	124	#line 161 "C:\Users\Kawtar\Documents\GitHub\OS_Project\Attacking\Main_left.nxc"
22	162	124	#line 162 "C:\Users\Kawtar\Documents\GitHub\OS_Project\Attacking\Main_left.nxc"
22	162	124	#line 162 "C:\Users\Kawtar\Documents\GitHub\OS_Project\Attacking\Main_left.nxc"
22	163	124		mov __Wait_7qG2_ms_7qG2_000_inline_reverseDirection, __reverseDirection_7qG2_moveTime_7qG2_000
22	162	126	#line 162 "C:\Users\Kawtar\Documents\GitHub\OS_Project\Attacking\Main_left.nxc"
22	7921	126	#line 7921 "NXCDefs.h"
22	7922	126		wait2 NA, __Wait_7qG2_ms_7qG2_000_inline_reverseDirection
22	7921	129	#line 7921 "NXCDefs.h"
22	163	129	#line 163 "C:\Users\Kawtar\Documents\GitHub\OS_Project\Attacking\Main_left.nxc"
22	166	129	#line 166 "C:\Users\Kawtar\Documents\GitHub\OS_Project\Attacking\Main_left.nxc"
22	167	129		subret __reverseDirection_return
23	168	0	#line 168 "C:\Users\Kawtar\Documents\GitHub\OS_Project\Attacking\Main_left.nxc"
23	169	0		getin __signed_stack_001checkWallBack, __constVal3, 4
23	168	4	#line 168 "C:\Users\Kawtar\Documents\GitHub\OS_Project\Attacking\Main_left.nxc"
23	169	4	#line 169 "C:\Users\Kawtar\Documents\GitHub\OS_Project\Attacking\Main_left.nxc"
23	170	4		set __D0checkWallBack, 1
23	169	7	#line 169 "C:\Users\Kawtar\Documents\GitHub\OS_Project\Attacking\Main_left.nxc"
23	170	7		cmp 4, __zfcheckWallBack, __signed_stack_001checkWallBack, __D0checkWallBack
23	169	11	#line 169 "C:\Users\Kawtar\Documents\GitHub\OS_Project\Attacking\Main_left.nxc"
23	170	11		mov __D0checkWallBack, __zfcheckWallBack
23	170	14	#line 170 "C:\Users\Kawtar\Documents\GitHub\OS_Project\Attacking\Main_left.nxc"
23	171	14		brtst 4, __NXC_Label_666, __zfcheckWallBack
23	171	17	#line 171 "C:\Users\Kawtar\Documents\GitHub\OS_Project\Attacking\Main_left.nxc"
23	172	17		set __DU0checkWallBack, 1
23	171	20	#line 171 "C:\Users\Kawtar\Documents\GitHub\OS_Project\Attacking\Main_left.nxc"
23	171	20	#line 171 "C:\Users\Kawtar\Documents\GitHub\OS_Project\Attacking\Main_left.nxc"
23	172	20		subret __checkWallBack_return
23	171	22	#line 171 "C:\Users\Kawtar\Documents\GitHub\OS_Project\Attacking\Main_left.nxc"
23	172	22	#line 172 "C:\Users\Kawtar\Documents\GitHub\OS_Project\Attacking\Main_left.nxc"
23	173	22	#line 173 "C:\Users\Kawtar\Documents\GitHub\OS_Project\Attacking\Main_left.nxc"
23	174	22		set __DU0checkWallBack, 0
23	173	25	#line 173 "C:\Users\Kawtar\Documents\GitHub\OS_Project\Attacking\Main_left.nxc"
23	173	25	#line 173 "C:\Users\Kawtar\Documents\GitHub\OS_Project\Attacking\Main_left.nxc"
23	174	25		subret __checkWallBack_return
23	173	27	#line 173 "C:\Users\Kawtar\Documents\GitHub\OS_Project\Attacking\Main_left.nxc"
23	174	27	#line 174 "C:\Users\Kawtar\Documents\GitHub\OS_Project\Attacking\Main_left.nxc"
23	175	27		subret __checkWallBack_return
24	175	0	#line 175 "C:\Users\Kawtar\Documents\GitHub\OS_Project\Attacking\Main_left.nxc"
24	176	0		set __D0reading, 1
24	177	3	#line 177 "C:\Users\Kawtar\Documents\GitHub\OS_Project\Attacking\Main_left.nxc"
24	178	3		tst 5, __zfreading, __D0reading
24	177	6	#line 177 "C:\Users\Kawtar\Documents\GitHub\OS_Project\Attacking\Main_left.nxc"
24	178	6		brtst 4, __NXC_Label_672, __zfreading
24	179	9	#line 179 "C:\Users\Kawtar\Documents\GitHub\OS_Project\Attacking\Main_left.nxc"
24	180	9		acquire moveMutex
24	179	10	#line 179 "C:\Users\Kawtar\Documents\GitHub\OS_Project\Attacking\Main_left.nxc"
24	179	10	#line 179 "C:\Users\Kawtar\Documents\GitHub\OS_Project\Attacking\Main_left.nxc"
24	180	10	#pragma macro 30
24	180	10		acquire __RLSBmutex1
24	180	11		mov __RLSReadBuf1, __RLSBbufLSWrite1
24	180	13		set __RLSBytesCount1, 2
24	180	16		subcall __ReadLSBytes1, ____ReadLSBytes1_return
24	180	19		index __D0reading, __RLSReadBuf1, 65535
24	180	23		index __RLSBytesCount1, __RLSReadBuf1, __constVal1
24	180	27		add __D0reading, __D0reading, __D0reading
24	180	31		add __D0reading, __D0reading, __RLSBytesCount1
24	180	35		release __RLSBmutex1
24	7118	36	#line 7118 "C:\Users\Kawtar\Documents\GitHub\OS_Project\Attacking\Main_left.nxc"
24	179	36	#line 179 "C:\Users\Kawtar\Documents\GitHub\OS_Project\Attacking\Main_left.nxc"
24	180	36		mov currentCompass, __D0reading
24	179	38	#line 179 "C:\Users\Kawtar\Documents\GitHub\OS_Project\Attacking\Main_left.nxc"
24	179	38	#line 179 "C:\Users\Kawtar\Documents\GitHub\OS_Project\Attacking\Main_left.nxc"
24	6069	38	#line 6069 "NXCDefs.h"
24	6070	38	#pragma macro 6
24	6070	38		acquire __PointOutMutex
24	6070	39		mov __PointOutArgs.Location.X, __constVal200
24	6070	42		mov __PointOutArgs.Location.Y, __constVal200
24	6070	45		mov __PointOutArgs.Options, __constVal1
24	6070	47		syscall 14, __PointOutArgs
24	6070	50		release __PointOutMutex
24	7126	51	#line 7126 "NXCDefs.h"
24	6069	51	#line 6069 "NXCDefs.h"
24	182	51	#line 182 "C:\Users\Kawtar\Documents\GitHub\OS_Project\Attacking\Main_left.nxc"
24	182	51	#line 182 "C:\Users\Kawtar\Documents\GitHub\OS_Project\Attacking\Main_left.nxc"
24	183	51		set __signed_stack_001reading, 10
24	182	54	#line 182 "C:\Users\Kawtar\Documents\GitHub\OS_Project\Attacking\Main_left.nxc"
24	182	54	#line 182 "C:\Users\Kawtar\Documents\GitHub\OS_Project\Attacking\Main_left.nxc"
24	183	54		set __signed_stack_002reading, 56
24	182	57	#line 182 "C:\Users\Kawtar\Documents\GitHub\OS_Project\Attacking\Main_left.nxc"
24	182	57	#line 182 "C:\Users\Kawtar\Documents\GitHub\OS_Project\Attacking\Main_left.nxc"
24	183	57		strcat __strbufreading, __constStr0009
24	183	61	#line 183 "C:\Users\Kawtar\Documents\GitHub\OS_Project\Attacking\Main_left.nxc"
24	184	61		acquire __TextOutMutex
24	183	62	#line 183 "C:\Users\Kawtar\Documents\GitHub\OS_Project\Attacking\Main_left.nxc"
24	184	62		mov __TextOutArgs.Location.X, __signed_stack_001reading
24	183	65	#line 183 "C:\Users\Kawtar\Documents\GitHub\OS_Project\Attacking\Main_left.nxc"
24	184	65		mov __TextOutArgs.Location.Y, __signed_stack_002reading
24	183	68	#line 183 "C:\Users\Kawtar\Documents\GitHub\OS_Project\Attacking\Main_left.nxc"
24	184	68		set __TextOutArgs.Options, 0
24	183	71	#line 183 "C:\Users\Kawtar\Documents\GitHub\OS_Project\Attacking\Main_left.nxc"
24	184	71		mov __TextOutArgs.Text, __strbufreading
24	183	73	#line 183 "C:\Users\Kawtar\Documents\GitHub\OS_Project\Attacking\Main_left.nxc"
24	184	73		syscall 13, __TextOutArgs
24	183	76	#line 183 "C:\Users\Kawtar\Documents\GitHub\OS_Project\Attacking\Main_left.nxc"
24	184	76		mov __D0reading, __TextOutArgs.Result
24	183	79	#line 183 "C:\Users\Kawtar\Documents\GitHub\OS_Project\Attacking\Main_left.nxc"
24	184	79		release __TextOutMutex
24	183	80	#line 183 "C:\Users\Kawtar\Documents\GitHub\OS_Project\Attacking\Main_left.nxc"
24	183	80	#line 183 "C:\Users\Kawtar\Documents\GitHub\OS_Project\Attacking\Main_left.nxc"
24	184	80		set __signed_stack_001reading, 10
24	183	83	#line 183 "C:\Users\Kawtar\Documents\GitHub\OS_Project\Attacking\Main_left.nxc"
24	183	83	#line 183 "C:\Users\Kawtar\Documents\GitHub\OS_Project\Attacking\Main_left.nxc"
24	184	83		set __signed_stack_002reading, 48
24	183	86	#line 183 "C:\Users\Kawtar\Documents\GitHub\OS_Project\Attacking\Main_left.nxc"
24	183	86	#line 183 "C:\Users\Kawtar\Documents\GitHub\OS_Project\Attacking\Main_left.nxc"
24	184	86		mov __D0reading, ownGoal
24	185	88	#line 185 "C:\Users\Kawtar\Documents\GitHub\OS_Project\Attacking\Main_left.nxc"
24	186	88		acquire __TextOutMutex
24	185	89	#line 185 "C:\Users\Kawtar\Documents\GitHub\OS_Project\Attacking\Main_left.nxc"
24	186	89		mov __TextOutArgs.Location.X, __signed_stack_001reading
24	185	92	#line 185 "C:\Users\Kawtar\Documents\GitHub\OS_Project\Attacking\Main_left.nxc"
24	186	92		mov __TextOutArgs.Location.Y, __signed_stack_002reading
24	185	95	#line 185 "C:\Users\Kawtar\Documents\GitHub\OS_Project\Attacking\Main_left.nxc"
24	186	95		set __TextOutArgs.Options, 0
24	185	98	#line 185 "C:\Users\Kawtar\Documents\GitHub\OS_Project\Attacking\Main_left.nxc"
24	186	98		numtostr __TextOutArgs.Text, __D0reading
24	185	101	#line 185 "C:\Users\Kawtar\Documents\GitHub\OS_Project\Attacking\Main_left.nxc"
24	186	101		syscall 13, __TextOutArgs
24	185	104	#line 185 "C:\Users\Kawtar\Documents\GitHub\OS_Project\Attacking\Main_left.nxc"
24	186	104		mov __D0reading, __TextOutArgs.Result
24	185	107	#line 185 "C:\Users\Kawtar\Documents\GitHub\OS_Project\Attacking\Main_left.nxc"
24	186	107		release __TextOutMutex
24	185	108	#line 185 "C:\Users\Kawtar\Documents\GitHub\OS_Project\Attacking\Main_left.nxc"
24	185	108	#line 185 "C:\Users\Kawtar\Documents\GitHub\OS_Project\Attacking\Main_left.nxc"
24	186	108		set __signed_stack_001reading, 10
24	185	111	#line 185 "C:\Users\Kawtar\Documents\GitHub\OS_Project\Attacking\Main_left.nxc"
24	185	111	#line 185 "C:\Users\Kawtar\Documents\GitHub\OS_Project\Attacking\Main_left.nxc"
24	186	111		set __signed_stack_002reading, 40
24	185	114	#line 185 "C:\Users\Kawtar\Documents\GitHub\OS_Project\Attacking\Main_left.nxc"
24	185	114	#line 185 "C:\Users\Kawtar\Documents\GitHub\OS_Project\Attacking\Main_left.nxc"
24	186	114		strcat __strbufreading, __constStr0010
24	186	118	#line 186 "C:\Users\Kawtar\Documents\GitHub\OS_Project\Attacking\Main_left.nxc"
24	187	118		acquire __TextOutMutex
24	186	119	#line 186 "C:\Users\Kawtar\Documents\GitHub\OS_Project\Attacking\Main_left.nxc"
24	187	119		mov __TextOutArgs.Location.X, __signed_stack_001reading
24	186	122	#line 186 "C:\Users\Kawtar\Documents\GitHub\OS_Project\Attacking\Main_left.nxc"
24	187	122		mov __TextOutArgs.Location.Y, __signed_stack_002reading
24	186	125	#line 186 "C:\Users\Kawtar\Documents\GitHub\OS_Project\Attacking\Main_left.nxc"
24	187	125		set __TextOutArgs.Options, 0
24	186	128	#line 186 "C:\Users\Kawtar\Documents\GitHub\OS_Project\Attacking\Main_left.nxc"
24	187	128		mov __TextOutArgs.Text, __strbufreading
24	186	130	#line 186 "C:\Users\Kawtar\Documents\GitHub\OS_Project\Attacking\Main_left.nxc"
24	187	130		syscall 13, __TextOutArgs
24	186	133	#line 186 "C:\Users\Kawtar\Documents\GitHub\OS_Project\Attacking\Main_left.nxc"
24	187	133		mov __D0reading, __TextOutArgs.Result
24	186	136	#line 186 "C:\Users\Kawtar\Documents\GitHub\OS_Project\Attacking\Main_left.nxc"
24	187	136		release __TextOutMutex
24	186	137	#line 186 "C:\Users\Kawtar\Documents\GitHub\OS_Project\Attacking\Main_left.nxc"
24	186	137	#line 186 "C:\Users\Kawtar\Documents\GitHub\OS_Project\Attacking\Main_left.nxc"
24	187	137		set __signed_stack_001reading, 10
24	186	140	#line 186 "C:\Users\Kawtar\Documents\GitHub\OS_Project\Attacking\Main_left.nxc"
24	186	140	#line 186 "C:\Users\Kawtar\Documents\GitHub\OS_Project\Attacking\Main_left.nxc"
24	187	140		set __signed_stack_002reading, 32
24	186	143	#line 186 "C:\Users\Kawtar\Documents\GitHub\OS_Project\Attacking\Main_left.nxc"
24	186	143	#line 186 "C:\Users\Kawtar\Documents\GitHub\OS_Project\Attacking\Main_left.nxc"
24	187	143		mov __D0reading, currentCompass
24	188	145	#line 188 "C:\Users\Kawtar\Documents\GitHub\OS_Project\Attacking\Main_left.nxc"
24	189	145		acquire __TextOutMutex
24	188	146	#line 188 "C:\Users\Kawtar\Documents\GitHub\OS_Project\Attacking\Main_left.nxc"
24	189	146		mov __TextOutArgs.Location.X, __signed_stack_001reading
24	188	149	#line 188 "C:\Users\Kawtar\Documents\GitHub\OS_Project\Attacking\Main_left.nxc"
24	189	149		mov __TextOutArgs.Location.Y, __signed_stack_002reading
24	188	152	#line 188 "C:\Users\Kawtar\Documents\GitHub\OS_Project\Attacking\Main_left.nxc"
24	189	152		set __TextOutArgs.Options, 0
24	188	155	#line 188 "C:\Users\Kawtar\Documents\GitHub\OS_Project\Attacking\Main_left.nxc"
24	189	155		numtostr __TextOutArgs.Text, __D0reading
24	188	158	#line 188 "C:\Users\Kawtar\Documents\GitHub\OS_Project\Attacking\Main_left.nxc"
24	189	158		syscall 13, __TextOutArgs
24	188	161	#line 188 "C:\Users\Kawtar\Documents\GitHub\OS_Project\Attacking\Main_left.nxc"
24	189	161		mov __D0reading, __TextOutArgs.Result
24	188	164	#line 188 "C:\Users\Kawtar\Documents\GitHub\OS_Project\Attacking\Main_left.nxc"
24	189	164		release __TextOutMutex
24	188	165	#line 188 "C:\Users\Kawtar\Documents\GitHub\OS_Project\Attacking\Main_left.nxc"
24	188	165	#line 188 "C:\Users\Kawtar\Documents\GitHub\OS_Project\Attacking\Main_left.nxc"
24	189	165		mov __getDegreeDiff_7qG2_current_7qG2_000, currentCompass
24	188	167	#line 188 "C:\Users\Kawtar\Documents\GitHub\OS_Project\Attacking\Main_left.nxc"
24	188	167	#line 188 "C:\Users\Kawtar\Documents\GitHub\OS_Project\Attacking\Main_left.nxc"
24	189	167		mov __getDegreeDiff_7qG2_old_7qG2_000, ownGoal
24	188	169	#line 188 "C:\Users\Kawtar\Documents\GitHub\OS_Project\Attacking\Main_left.nxc"
24	189	169	#line 189 "C:\Users\Kawtar\Documents\GitHub\OS_Project\Attacking\Main_left.nxc"
24	190	169		subcall getDegreeDiff, __getDegreeDiff_return
24	189	172	#line 189 "C:\Users\Kawtar\Documents\GitHub\OS_Project\Attacking\Main_left.nxc"
24	190	172		mov relBearing, __D0getDegreeDiff
24	189	174	#line 189 "C:\Users\Kawtar\Documents\GitHub\OS_Project\Attacking\Main_left.nxc"
24	189	174	#line 189 "C:\Users\Kawtar\Documents\GitHub\OS_Project\Attacking\Main_left.nxc"
24	189	174	#line 189 "C:\Users\Kawtar\Documents\GitHub\OS_Project\Attacking\Main_left.nxc"
24	190	174		set __signed_stack_001reading, 10
24	189	177	#line 189 "C:\Users\Kawtar\Documents\GitHub\OS_Project\Attacking\Main_left.nxc"
24	189	177	#line 189 "C:\Users\Kawtar\Documents\GitHub\OS_Project\Attacking\Main_left.nxc"
24	190	177		set __signed_stack_002reading, 24
24	189	180	#line 189 "C:\Users\Kawtar\Documents\GitHub\OS_Project\Attacking\Main_left.nxc"
24	189	180	#line 189 "C:\Users\Kawtar\Documents\GitHub\OS_Project\Attacking\Main_left.nxc"
24	190	180		strcat __strbufreading, __constStr0011
24	190	184	#line 190 "C:\Users\Kawtar\Documents\GitHub\OS_Project\Attacking\Main_left.nxc"
24	191	184		acquire __TextOutMutex
24	190	185	#line 190 "C:\Users\Kawtar\Documents\GitHub\OS_Project\Attacking\Main_left.nxc"
24	191	185		mov __TextOutArgs.Location.X, __signed_stack_001reading
24	190	188	#line 190 "C:\Users\Kawtar\Documents\GitHub\OS_Project\Attacking\Main_left.nxc"
24	191	188		mov __TextOutArgs.Location.Y, __signed_stack_002reading
24	190	191	#line 190 "C:\Users\Kawtar\Documents\GitHub\OS_Project\Attacking\Main_left.nxc"
24	191	191		set __TextOutArgs.Options, 0
24	190	194	#line 190 "C:\Users\Kawtar\Documents\GitHub\OS_Project\Attacking\Main_left.nxc"
24	191	194		mov __TextOutArgs.Text, __strbufreading
24	190	196	#line 190 "C:\Users\Kawtar\Documents\GitHub\OS_Project\Attacking\Main_left.nxc"
24	191	196		syscall 13, __TextOutArgs
24	190	199	#line 190 "C:\Users\Kawtar\Documents\GitHub\OS_Project\Attacking\Main_left.nxc"
24	191	199		mov __D0reading, __TextOutArgs.Result
24	190	202	#line 190 "C:\Users\Kawtar\Documents\GitHub\OS_Project\Attacking\Main_left.nxc"
24	191	202		release __TextOutMutex
24	190	203	#line 190 "C:\Users\Kawtar\Documents\GitHub\OS_Project\Attacking\Main_left.nxc"
24	190	203	#line 190 "C:\Users\Kawtar\Documents\GitHub\OS_Project\Attacking\Main_left.nxc"
24	191	203		set __signed_stack_001reading, 10
24	190	206	#line 190 "C:\Users\Kawtar\Documents\GitHub\OS_Project\Attacking\Main_left.nxc"
24	190	206	#line 190 "C:\Users\Kawtar\Documents\GitHub\OS_Project\Attacking\Main_left.nxc"
24	191	206		set __signed_stack_002reading, 16
24	190	209	#line 190 "C:\Users\Kawtar\Documents\GitHub\OS_Project\Attacking\Main_left.nxc"
24	190	209	#line 190 "C:\Users\Kawtar\Documents\GitHub\OS_Project\Attacking\Main_left.nxc"
24	191	209		mov __D0reading, relBearing
24	191	211	#line 191 "C:\Users\Kawtar\Documents\GitHub\OS_Project\Attacking\Main_left.nxc"
24	192	211		acquire __TextOutMutex
24	191	212	#line 191 "C:\Users\Kawtar\Documents\GitHub\OS_Project\Attacking\Main_left.nxc"
24	192	212		mov __TextOutArgs.Location.X, __signed_stack_001reading
24	191	215	#line 191 "C:\Users\Kawtar\Documents\GitHub\OS_Project\Attacking\Main_left.nxc"
24	192	215		mov __TextOutArgs.Location.Y, __signed_stack_002reading
24	191	218	#line 191 "C:\Users\Kawtar\Documents\GitHub\OS_Project\Attacking\Main_left.nxc"
24	192	218		set __TextOutArgs.Options, 0
24	191	221	#line 191 "C:\Users\Kawtar\Documents\GitHub\OS_Project\Attacking\Main_left.nxc"
24	192	221		numtostr __TextOutArgs.Text, __D0reading
24	191	224	#line 191 "C:\Users\Kawtar\Documents\GitHub\OS_Project\Attacking\Main_left.nxc"
24	192	224		syscall 13, __TextOutArgs
24	191	227	#line 191 "C:\Users\Kawtar\Documents\GitHub\OS_Project\Attacking\Main_left.nxc"
24	192	227		mov __D0reading, __TextOutArgs.Result
24	191	230	#line 191 "C:\Users\Kawtar\Documents\GitHub\OS_Project\Attacking\Main_left.nxc"
24	192	230		release __TextOutMutex
24	191	231	#line 191 "C:\Users\Kawtar\Documents\GitHub\OS_Project\Attacking\Main_left.nxc"
24	191	231	#line 191 "C:\Users\Kawtar\Documents\GitHub\OS_Project\Attacking\Main_left.nxc"
24	192	231		subcall checkWallBack, __checkWallBack_return
24	191	233	#line 191 "C:\Users\Kawtar\Documents\GitHub\OS_Project\Attacking\Main_left.nxc"
24	192	233		mov __unsigned_stack_001reading, __DU0checkWallBack
24	191	235	#line 191 "C:\Users\Kawtar\Documents\GitHub\OS_Project\Attacking\Main_left.nxc"
24	192	235	#line 192 "C:\Users\Kawtar\Documents\GitHub\OS_Project\Attacking\Main_left.nxc"
24	193	235		set __D0reading, 0
24	192	238	#line 192 "C:\Users\Kawtar\Documents\GitHub\OS_Project\Attacking\Main_left.nxc"
24	193	238		cmp 4, __zfreading, __unsigned_stack_001reading, __D0reading
24	192	242	#line 192 "C:\Users\Kawtar\Documents\GitHub\OS_Project\Attacking\Main_left.nxc"
24	193	242		mov __D0reading, __zfreading
24	193	245	#line 193 "C:\Users\Kawtar\Documents\GitHub\OS_Project\Attacking\Main_left.nxc"
24	194	245		brtst 4, __NXC_Label_715, __zfreading
24	193	248	#line 193 "C:\Users\Kawtar\Documents\GitHub\OS_Project\Attacking\Main_left.nxc"
24	194	248		mov __signed_stack_001reading, relBearing
24	193	250	#line 193 "C:\Users\Kawtar\Documents\GitHub\OS_Project\Attacking\Main_left.nxc"
24	194	250	#line 194 "C:\Users\Kawtar\Documents\GitHub\OS_Project\Attacking\Main_left.nxc"
24	195	250		set __D0reading, 75
24	194	253	#line 194 "C:\Users\Kawtar\Documents\GitHub\OS_Project\Attacking\Main_left.nxc"
24	195	253		cmp 0, __zfreading, __signed_stack_001reading, __D0reading
24	194	257	#line 194 "C:\Users\Kawtar\Documents\GitHub\OS_Project\Attacking\Main_left.nxc"
24	195	257		mov __D0reading, __zfreading
24	196	260	#line 196 "C:\Users\Kawtar\Documents\GitHub\OS_Project\Attacking\Main_left.nxc"
24	197	260		brtst 4, __NXC_Label_718, __zfreading
24	196	263	#line 196 "C:\Users\Kawtar\Documents\GitHub\OS_Project\Attacking\Main_left.nxc"
24	197	263		set __ClearSensor_7qG2_port_7qG2_000_inline_reading, 0
24	196	266	#line 196 "C:\Users\Kawtar\Documents\GitHub\OS_Project\Attacking\Main_left.nxc"
24	3684	266	#line 3684 "NXCDefs.h"
24	3685	266		setin __constVal0, __ClearSensor_7qG2_port_7qG2_000_inline_reading, 4
24	3684	270	#line 3684 "NXCDefs.h"
24	197	270	#line 197 "C:\Users\Kawtar\Documents\GitHub\OS_Project\Attacking\Main_left.nxc"
24	197	270	#line 197 "C:\Users\Kawtar\Documents\GitHub\OS_Project\Attacking\Main_left.nxc"
24	198	270	#pragma macro 26
24	198	270		acquire __RLSBmutex0
24	198	271		mov __RLSReadBuf0, __RLSBbufLSWrite1
24	198	273		set __RLSBytesCount0, 1
24	198	276		wait2 NA, __constVal15
24	198	279		subcall __ReadLSBytes0, ____ReadLSBytes0_return
24	198	282		index __D0reading, __RLSReadBuf0, 65535
24	198	286		release __RLSBmutex0
24	7387	287	#line 7387 "C:\Users\Kawtar\Documents\GitHub\OS_Project\Attacking\Main_left.nxc"
24	197	287	#line 197 "C:\Users\Kawtar\Documents\GitHub\OS_Project\Attacking\Main_left.nxc"
24	198	287		mov __signed_stack_001reading, __D0reading
24	198	289	#line 198 "C:\Users\Kawtar\Documents\GitHub\OS_Project\Attacking\Main_left.nxc"
24	199	289		set __D0reading, 40
24	198	292	#line 198 "C:\Users\Kawtar\Documents\GitHub\OS_Project\Attacking\Main_left.nxc"
24	199	292		cmp 2, __zfreading, __signed_stack_001reading, __D0reading
24	198	296	#line 198 "C:\Users\Kawtar\Documents\GitHub\OS_Project\Attacking\Main_left.nxc"
24	199	296		mov __D0reading, __zfreading
24	200	299	#line 200 "C:\Users\Kawtar\Documents\GitHub\OS_Project\Attacking\Main_left.nxc"
24	201	299		brtst 4, __NXC_Label_723, __zfreading
24	201	302	#line 201 "C:\Users\Kawtar\Documents\GitHub\OS_Project\Attacking\Main_left.nxc"
24	202	302	#pragma macro 7
24	202	302		setout motors, 2, __constVal0, 1, __constVal3, 8, __constVal0, 6, __constVal32, 7, __constVal0, 5, __constVal0, 10, __constVal96, 11, __constVal32, 12, __constVal32, 0, __constVal63
24	7401	325	#line 7401 "C:\Users\Kawtar\Documents\GitHub\OS_Project\Attacking\Main_left.nxc"
24	201	325	#line 201 "C:\Users\Kawtar\Documents\GitHub\OS_Project\Attacking\Main_left.nxc"
24	202	325	#line 202 "C:\Users\Kawtar\Documents\GitHub\OS_Project\Attacking\Main_left.nxc"
24	203	325		subcall moveTowardObj, __moveTowardObj_return
24	202	328	#line 202 "C:\Users\Kawtar\Documents\GitHub\OS_Project\Attacking\Main_left.nxc"
24	203	328		mov __reading_7qG2_grab_7qG2_004, __DU0moveTowardObj
24	202	331	#line 202 "C:\Users\Kawtar\Documents\GitHub\OS_Project\Attacking\Main_left.nxc"
24	203	331	#line 203 "C:\Users\Kawtar\Documents\GitHub\OS_Project\Attacking\Main_left.nxc"
24	204	331		mov __DU0reading, __DU0moveTowardObj
24	204	333	#line 204 "C:\Users\Kawtar\Documents\GitHub\OS_Project\Attacking\Main_left.nxc"
24	205	333		tst 5, __zfreading, __DU0reading
24	204	336	#line 204 "C:\Users\Kawtar\Documents\GitHub\OS_Project\Attacking\Main_left.nxc"
24	205	336		brtst 4, __NXC_Label_728, __zfreading
24	205	339	#line 205 "C:\Users\Kawtar\Documents\GitHub\OS_Project\Attacking\Main_left.nxc"
24	206	339		subcall checkandthrow, __checkandthrow_return
24	205	342	#line 205 "C:\Users\Kawtar\Documents\GitHub\OS_Project\Attacking\Main_left.nxc"
24	206	342		mov __reading_7qG2_grab_7qG2_004, __DU0checkandthrow
24	205	344	#line 205 "C:\Users\Kawtar\Documents\GitHub\OS_Project\Attacking\Main_left.nxc"
24	205	344	#line 205 "C:\Users\Kawtar\Documents\GitHub\OS_Project\Attacking\Main_left.nxc"
24	207	344	#line 207 "C:\Users\Kawtar\Documents\GitHub\OS_Project\Attacking\Main_left.nxc"
24	208	344	#line 208 "C:\Users\Kawtar\Documents\GitHub\OS_Project\Attacking\Main_left.nxc"
24	208	344	#line 208 "C:\Users\Kawtar\Documents\GitHub\OS_Project\Attacking\Main_left.nxc"
24	209	344		not __DU0reading, __reading_7qG2_grab_7qG2_004
24	209	347	#line 209 "C:\Users\Kawtar\Documents\GitHub\OS_Project\Attacking\Main_left.nxc"
24	210	347		tst 5, __zfreading, __DU0reading
24	209	350	#line 209 "C:\Users\Kawtar\Documents\GitHub\OS_Project\Attacking\Main_left.nxc"
24	210	350		brtst 4, __NXC_Label_733, __zfreading
24	209	353	#line 209 "C:\Users\Kawtar\Documents\GitHub\OS_Project\Attacking\Main_left.nxc"
24	210	353		set __PlaySound_7qG2_aCode_7qG2_000, 3
24	209	356	#line 209 "C:\Users\Kawtar\Documents\GitHub\OS_Project\Attacking\Main_left.nxc"
24	211	356	#line 211 "C:\Users\Kawtar\Documents\GitHub\OS_Project\Attacking\Main_left.nxc"
24	212	356		subcall PlaySound, __PlaySound_return
24	211	358	#line 211 "C:\Users\Kawtar\Documents\GitHub\OS_Project\Attacking\Main_left.nxc"
24	211	358	#line 211 "C:\Users\Kawtar\Documents\GitHub\OS_Project\Attacking\Main_left.nxc"
24	212	358		set __moveBwd_7qG2_moveTime_7qG2_000, 5000
24	211	361	#line 211 "C:\Users\Kawtar\Documents\GitHub\OS_Project\Attacking\Main_left.nxc"
24	212	361	#line 212 "C:\Users\Kawtar\Documents\GitHub\OS_Project\Attacking\Main_left.nxc"
24	213	361		subcall moveBwd, __moveBwd_return
24	212	363	#line 212 "C:\Users\Kawtar\Documents\GitHub\OS_Project\Attacking\Main_left.nxc"
24	213	363	#line 213 "C:\Users\Kawtar\Documents\GitHub\OS_Project\Attacking\Main_left.nxc"
24	214	363		mov __DU0reading, scanningRight
24	217	365	#line 217 "C:\Users\Kawtar\Documents\GitHub\OS_Project\Attacking\Main_left.nxc"
24	218	365		tst 5, __zfreading, __DU0reading
24	217	368	#line 217 "C:\Users\Kawtar\Documents\GitHub\OS_Project\Attacking\Main_left.nxc"
24	218	368		brtst 4, __NXC_Label_740, __zfreading
24	217	371	#line 217 "C:\Users\Kawtar\Documents\GitHub\OS_Project\Attacking\Main_left.nxc"
24	218	371		set __signed_stack_001reading, 40
24	217	374	#line 217 "C:\Users\Kawtar\Documents\GitHub\OS_Project\Attacking\Main_left.nxc"
24	217	374	#line 217 "C:\Users\Kawtar\Documents\GitHub\OS_Project\Attacking\Main_left.nxc"
24	218	374		set __D0reading, 810
24	218	377	#line 218 "C:\Users\Kawtar\Documents\GitHub\OS_Project\Attacking\Main_left.nxc"
24	219	377	#pragma macro 22
24	219	377		acquire __rotateMutex0
24	219	378		acquire __rotateMutex1
24	219	379		acquire __rotateMutex2
24	219	380		arrbuild __rotate_ports6, RMotor
24	219	384		mov __rotate_power6, __signed_stack_001reading
24	219	386		mov __rotate_angle6, __D0reading
24	219	388		mov __rotate_turnpct6, __constVal0
24	219	390		mov __rotate_sync6, __constVal0
24	219	392		mov __rotate_stop6, __constVal1
24	219	394		mov __rotate_theRVP6, __constVal32
24	219	396		mov __rotate_theRVI6, __constVal0
24	219	398		mov __rotate_theRVD6, __constVal96
24	219	400		subcall __RotateMotorVar, ____RotateMotorVar_return
24	219	403		release __rotateMutex2
24	219	404		release __rotateMutex1
24	219	405		release __rotateMutex0
24	7481	406	#line 7481 "C:\Users\Kawtar\Documents\GitHub\OS_Project\Attacking\Main_left.nxc"
24	218	406	#line 218 "C:\Users\Kawtar\Documents\GitHub\OS_Project\Attacking\Main_left.nxc"
24	219	406	#line 219 "C:\Users\Kawtar\Documents\GitHub\OS_Project\Attacking\Main_left.nxc"
24	220	406	#pragma macro 7
24	220	406		setout motors, 2, __constVal0, 1, __constVal3, 8, __constVal0, 6, __constVal32, 7, __constVal0, 5, __constVal0, 10, __constVal96, 11, __constVal32, 12, __constVal32, 0, __constVal63
24	7484	429	#line 7484 "C:\Users\Kawtar\Documents\GitHub\OS_Project\Attacking\Main_left.nxc"
24	219	429	#line 219 "C:\Users\Kawtar\Documents\GitHub\OS_Project\Attacking\Main_left.nxc"
24	222	429	#line 222 "C:\Users\Kawtar\Documents\GitHub\OS_Project\Attacking\Main_left.nxc"
24	223	429		jmp __NXC_Label_745
24	222	431	#line 222 "C:\Users\Kawtar\Documents\GitHub\OS_Project\Attacking\Main_left.nxc"
24	223	431		set __signed_stack_001reading, 40
24	222	434	#line 222 "C:\Users\Kawtar\Documents\GitHub\OS_Project\Attacking\Main_left.nxc"
24	222	434	#line 222 "C:\Users\Kawtar\Documents\GitHub\OS_Project\Attacking\Main_left.nxc"
24	223	434		set __D0reading, 810
24	223	437	#line 223 "C:\Users\Kawtar\Documents\GitHub\OS_Project\Attacking\Main_left.nxc"
24	224	437	#pragma macro 22
24	224	437		acquire __rotateMutex0
24	224	438		acquire __rotateMutex1
24	224	439		acquire __rotateMutex2
24	224	440		arrbuild __rotate_ports6, LMotor
24	224	444		mov __rotate_power6, __signed_stack_001reading
24	224	446		mov __rotate_angle6, __D0reading
24	224	448		mov __rotate_turnpct6, __constVal0
24	224	450		mov __rotate_sync6, __constVal0
24	224	452		mov __rotate_stop6, __constVal1
24	224	454		mov __rotate_theRVP6, __constVal32
24	224	456		mov __rotate_theRVI6, __constVal0
24	224	458		mov __rotate_theRVD6, __constVal96
24	224	460		subcall __RotateMotorVar, ____RotateMotorVar_return
24	224	463		release __rotateMutex2
24	224	464		release __rotateMutex1
24	224	465		release __rotateMutex0
24	7500	466	#line 7500 "C:\Users\Kawtar\Documents\GitHub\OS_Project\Attacking\Main_left.nxc"
24	223	466	#line 223 "C:\Users\Kawtar\Documents\GitHub\OS_Project\Attacking\Main_left.nxc"
24	224	466	#line 224 "C:\Users\Kawtar\Documents\GitHub\OS_Project\Attacking\Main_left.nxc"
24	225	466	#pragma macro 7
24	225	466		setout motors, 2, __constVal0, 1, __constVal3, 8, __constVal0, 6, __constVal32, 7, __constVal0, 5, __constVal0, 10, __constVal96, 11, __constVal32, 12, __constVal32, 0, __constVal63
24	7503	489	#line 7503 "C:\Users\Kawtar\Documents\GitHub\OS_Project\Attacking\Main_left.nxc"
24	224	489	#line 224 "C:\Users\Kawtar\Documents\GitHub\OS_Project\Attacking\Main_left.nxc"
24	226	489	#line 226 "C:\Users\Kawtar\Documents\GitHub\OS_Project\Attacking\Main_left.nxc"
24	227	489	#line 227 "C:\Users\Kawtar\Documents\GitHub\OS_Project\Attacking\Main_left.nxc"
24	228	489		subcall changeDirection, __changeDirection_return
24	227	491	#line 227 "C:\Users\Kawtar\Documents\GitHub\OS_Project\Attacking\Main_left.nxc"
24	230	491	#line 230 "C:\Users\Kawtar\Documents\GitHub\OS_Project\Attacking\Main_left.nxc"
24	231	491	#line 231 "C:\Users\Kawtar\Documents\GitHub\OS_Project\Attacking\Main_left.nxc"
24	233	491	#line 233 "C:\Users\Kawtar\Documents\GitHub\OS_Project\Attacking\Main_left.nxc"
24	234	491		jmp __NXC_Label_750
24	234	493	#line 234 "C:\Users\Kawtar\Documents\GitHub\OS_Project\Attacking\Main_left.nxc"
24	235	493		mov __DU0reading, scanningRight
24	236	495	#line 236 "C:\Users\Kawtar\Documents\GitHub\OS_Project\Attacking\Main_left.nxc"
24	237	495		tst 5, __zfreading, __DU0reading
24	236	498	#line 236 "C:\Users\Kawtar\Documents\GitHub\OS_Project\Attacking\Main_left.nxc"
24	237	498		brtst 4, __NXC_Label_753, __zfreading
24	237	501	#line 237 "C:\Users\Kawtar\Documents\GitHub\OS_Project\Attacking\Main_left.nxc"
24	238	501		subcall backtoOrigin, __backtoOrigin_return
24	237	504	#line 237 "C:\Users\Kawtar\Documents\GitHub\OS_Project\Attacking\Main_left.nxc"
24	237	504	#line 237 "C:\Users\Kawtar\Documents\GitHub\OS_Project\Attacking\Main_left.nxc"
24	238	504		set __moveFwd_7qG2_moveTime_7qG2_000, 1000
24	237	507	#line 237 "C:\Users\Kawtar\Documents\GitHub\OS_Project\Attacking\Main_left.nxc"
24	238	507	#line 238 "C:\Users\Kawtar\Documents\GitHub\OS_Project\Attacking\Main_left.nxc"
24	239	507		subcall moveFwd, __moveFwd_return
24	238	509	#line 238 "C:\Users\Kawtar\Documents\GitHub\OS_Project\Attacking\Main_left.nxc"
24	239	509	#line 239 "C:\Users\Kawtar\Documents\GitHub\OS_Project\Attacking\Main_left.nxc"
24	241	509	#line 241 "C:\Users\Kawtar\Documents\GitHub\OS_Project\Attacking\Main_left.nxc"
24	242	509		subcall changeDirection, __changeDirection_return
24	241	511	#line 241 "C:\Users\Kawtar\Documents\GitHub\OS_Project\Attacking\Main_left.nxc"
24	242	511	#line 242 "C:\Users\Kawtar\Documents\GitHub\OS_Project\Attacking\Main_left.nxc"
24	243	511		release moveMutex
24	242	512	#line 242 "C:\Users\Kawtar\Documents\GitHub\OS_Project\Attacking\Main_left.nxc"
24	242	512	#line 242 "C:\Users\Kawtar\Documents\GitHub\OS_Project\Attacking\Main_left.nxc"
24	243	512		set __Wait_7qG2_ms_7qG2_000_inline_reading, 1000
24	242	515	#line 242 "C:\Users\Kawtar\Documents\GitHub\OS_Project\Attacking\Main_left.nxc"
24	7921	515	#line 7921 "NXCDefs.h"
24	7922	515		wait2 NA, __Wait_7qG2_ms_7qG2_000_inline_reading
24	7921	518	#line 7921 "NXCDefs.h"
24	243	518	#line 243 "C:\Users\Kawtar\Documents\GitHub\OS_Project\Attacking\Main_left.nxc"
24	244	518	#line 244 "C:\Users\Kawtar\Documents\GitHub\OS_Project\Attacking\Main_left.nxc"
24	245	518		acquire moveMutex
24	244	519	#line 244 "C:\Users\Kawtar\Documents\GitHub\OS_Project\Attacking\Main_left.nxc"
24	246	519	#line 246 "C:\Users\Kawtar\Documents\GitHub\OS_Project\Attacking\Main_left.nxc"
24	248	519	#line 248 "C:\Users\Kawtar\Documents\GitHub\OS_Project\Attacking\Main_left.nxc"
24	249	519		jmp __NXC_Label_758
24	248	521	#line 248 "C:\Users\Kawtar\Documents\GitHub\OS_Project\Attacking\Main_left.nxc"
24	249	521		set __moveFwd_7qG2_moveTime_7qG2_000, 4000
24	248	524	#line 248 "C:\Users\Kawtar\Documents\GitHub\OS_Project\Attacking\Main_left.nxc"
24	250	524	#line 250 "C:\Users\Kawtar\Documents\GitHub\OS_Project\Attacking\Main_left.nxc"
24	251	524		subcall moveFwd, __moveFwd_return
24	250	526	#line 250 "C:\Users\Kawtar\Documents\GitHub\OS_Project\Attacking\Main_left.nxc"
24	251	526	#line 251 "C:\Users\Kawtar\Documents\GitHub\OS_Project\Attacking\Main_left.nxc"
24	252	526		set __D0reading, 1
24	252	529	#line 252 "C:\Users\Kawtar\Documents\GitHub\OS_Project\Attacking\Main_left.nxc"
24	253	529		tst 5, __zfreading, __D0reading
24	252	532	#line 252 "C:\Users\Kawtar\Documents\GitHub\OS_Project\Attacking\Main_left.nxc"
24	253	532		brtst 4, __NXC_Label_762, __zfreading
24	252	535	#line 252 "C:\Users\Kawtar\Documents\GitHub\OS_Project\Attacking\Main_left.nxc"
24	253	535		set __D0reading, 25
24	253	538	#line 253 "C:\Users\Kawtar\Documents\GitHub\OS_Project\Attacking\Main_left.nxc"
24	254	538	#pragma macro 10
24	254	538		acquire __OnRevMutex
24	254	539		neg __OnRev_Tmp, __D0reading
24	254	542		setout LMotor, 2, __OnRev_Tmp, 1, __constVal3, 8, __constVal0, 6, __constVal32, 7, __constVal0, 5, __constVal0, 10, __constVal96, 11, __constVal32, 12, __constVal32, 0, __constVal63
24	254	565		release __OnRevMutex
24	7590	566	#line 7590 "C:\Users\Kawtar\Documents\GitHub\OS_Project\Attacking\Main_left.nxc"
24	253	566	#line 253 "C:\Users\Kawtar\Documents\GitHub\OS_Project\Attacking\Main_left.nxc"
24	253	566	#line 253 "C:\Users\Kawtar\Documents\GitHub\OS_Project\Attacking\Main_left.nxc"
24	254	566		set __D0reading, 25
24	254	569	#line 254 "C:\Users\Kawtar\Documents\GitHub\OS_Project\Attacking\Main_left.nxc"
24	255	569	#pragma macro 7
24	255	569		setout RMotor, 2, __D0reading, 1, __constVal3, 8, __constVal0, 6, __constVal32, 7, __constVal0, 5, __constVal0, 10, __constVal96, 11, __constVal32, 12, __constVal32, 0, __constVal63
24	7597	592	#line 7597 "C:\Users\Kawtar\Documents\GitHub\OS_Project\Attacking\Main_left.nxc"
24	254	592	#line 254 "C:\Users\Kawtar\Documents\GitHub\OS_Project\Attacking\Main_left.nxc"
24	254	592	#line 254 "C:\Users\Kawtar\Documents\GitHub\OS_Project\Attacking\Main_left.nxc"
24	255	592		set __Wait_7qG2_ms_7qG2_000_inline_reading, 100
24	254	595	#line 254 "C:\Users\Kawtar\Documents\GitHub\OS_Project\Attacking\Main_left.nxc"
24	7921	595	#line 7921 "NXCDefs.h"
24	7922	595		wait2 NA, __Wait_7qG2_ms_7qG2_000_inline_reading
24	7921	598	#line 7921 "NXCDefs.h"
24	255	598	#line 255 "C:\Users\Kawtar\Documents\GitHub\OS_Project\Attacking\Main_left.nxc"
24	255	598	#line 255 "C:\Users\Kawtar\Documents\GitHub\OS_Project\Attacking\Main_left.nxc"
24	256	598		mov __signed_stack_001reading, relBearing
24	255	600	#line 255 "C:\Users\Kawtar\Documents\GitHub\OS_Project\Attacking\Main_left.nxc"
24	256	600	#line 256 "C:\Users\Kawtar\Documents\GitHub\OS_Project\Attacking\Main_left.nxc"
24	257	600		set __D0reading, 4
24	256	603	#line 256 "C:\Users\Kawtar\Documents\GitHub\OS_Project\Attacking\Main_left.nxc"
24	257	603		cmp 2, __zfreading, __signed_stack_001reading, __D0reading
24	256	607	#line 256 "C:\Users\Kawtar\Documents\GitHub\OS_Project\Attacking\Main_left.nxc"
24	257	607		mov __D0reading, __zfreading
24	257	610	#line 257 "C:\Users\Kawtar\Documents\GitHub\OS_Project\Attacking\Main_left.nxc"
24	258	610		brtst 4, __NXC_Label_773, __zfreading
24	258	613	#line 258 "C:\Users\Kawtar\Documents\GitHub\OS_Project\Attacking\Main_left.nxc"
24	259	613		jmp __NXC_Label_762
24	258	615	#line 258 "C:\Users\Kawtar\Documents\GitHub\OS_Project\Attacking\Main_left.nxc"
24	260	615	#line 260 "C:\Users\Kawtar\Documents\GitHub\OS_Project\Attacking\Main_left.nxc"
24	260	615	#line 260 "C:\Users\Kawtar\Documents\GitHub\OS_Project\Attacking\Main_left.nxc"
24	261	615		jmp __NXC_Label_761
24	260	617	#line 260 "C:\Users\Kawtar\Documents\GitHub\OS_Project\Attacking\Main_left.nxc"
24	262	617	#line 262 "C:\Users\Kawtar\Documents\GitHub\OS_Project\Attacking\Main_left.nxc"
24	263	617	#pragma macro 7
24	263	617		setout motors, 2, __constVal0, 1, __constVal3, 8, __constVal0, 6, __constVal32, 7, __constVal0, 5, __constVal0, 10, __constVal96, 11, __constVal32, 12, __constVal32, 0, __constVal63
24	7633	640	#line 7633 "C:\Users\Kawtar\Documents\GitHub\OS_Project\Attacking\Main_left.nxc"
24	262	640	#line 262 "C:\Users\Kawtar\Documents\GitHub\OS_Project\Attacking\Main_left.nxc"
24	264	640	#line 264 "C:\Users\Kawtar\Documents\GitHub\OS_Project\Attacking\Main_left.nxc"
24	265	640	#line 265 "C:\Users\Kawtar\Documents\GitHub\OS_Project\Attacking\Main_left.nxc"
24	266	640		release moveMutex
24	265	641	#line 265 "C:\Users\Kawtar\Documents\GitHub\OS_Project\Attacking\Main_left.nxc"
24	269	641	#line 269 "C:\Users\Kawtar\Documents\GitHub\OS_Project\Attacking\Main_left.nxc"
24	270	641		jmp __NXC_Label_671
24	269	643	#line 269 "C:\Users\Kawtar\Documents\GitHub\OS_Project\Attacking\Main_left.nxc"
24	270	643		exit -1, -1
25	271	0	#line 271 "C:\Users\Kawtar\Documents\GitHub\OS_Project\Attacking\Main_left.nxc"
25	272	0		set __signed_stack_001containBalls, 40
25	271	3	#line 271 "C:\Users\Kawtar\Documents\GitHub\OS_Project\Attacking\Main_left.nxc"
25	271	3	#line 271 "C:\Users\Kawtar\Documents\GitHub\OS_Project\Attacking\Main_left.nxc"
25	272	3		set __D0containBalls, 50
25	274	6	#line 274 "C:\Users\Kawtar\Documents\GitHub\OS_Project\Attacking\Main_left.nxc"
25	275	6	#pragma macro 22
25	275	6		acquire __rotateMutex0
25	275	7		acquire __rotateMutex1
25	275	8		acquire __rotateMutex2
25	275	9		arrbuild __rotate_ports6, RMotor
25	275	13		mov __rotate_power6, __signed_stack_001containBalls
25	275	15		mov __rotate_angle6, __D0containBalls
25	275	17		mov __rotate_turnpct6, __constVal0
25	275	19		mov __rotate_sync6, __constVal0
25	275	21		mov __rotate_stop6, __constVal1
25	275	23		mov __rotate_theRVP6, __constVal32
25	275	25		mov __rotate_theRVI6, __constVal0
25	275	27		mov __rotate_theRVD6, __constVal96
25	275	29		subcall __RotateMotorVar, ____RotateMotorVar_return
25	275	32		release __rotateMutex2
25	275	33		release __rotateMutex1
25	275	34		release __rotateMutex0
25	7658	35	#line 7658 "C:\Users\Kawtar\Documents\GitHub\OS_Project\Attacking\Main_left.nxc"
25	274	35	#line 274 "C:\Users\Kawtar\Documents\GitHub\OS_Project\Attacking\Main_left.nxc"
25	275	35	#line 275 "C:\Users\Kawtar\Documents\GitHub\OS_Project\Attacking\Main_left.nxc"
25	276	35	#pragma macro 7
25	276	35		setout motors, 2, __constVal0, 1, __constVal3, 8, __constVal0, 6, __constVal32, 7, __constVal0, 5, __constVal0, 10, __constVal96, 11, __constVal32, 12, __constVal32, 0, __constVal63
25	7661	58	#line 7661 "C:\Users\Kawtar\Documents\GitHub\OS_Project\Attacking\Main_left.nxc"
25	275	58	#line 275 "C:\Users\Kawtar\Documents\GitHub\OS_Project\Attacking\Main_left.nxc"
25	276	58	#line 276 "C:\Users\Kawtar\Documents\GitHub\OS_Project\Attacking\Main_left.nxc"
25	277	58		subcall close, __close_return
25	276	60	#line 276 "C:\Users\Kawtar\Documents\GitHub\OS_Project\Attacking\Main_left.nxc"
25	280	60	#line 280 "C:\Users\Kawtar\Documents\GitHub\OS_Project\Attacking\Main_left.nxc"
25	281	60		subcall stopRotor, __stopRotor_return
25	280	62	#line 280 "C:\Users\Kawtar\Documents\GitHub\OS_Project\Attacking\Main_left.nxc"
25	280	62	#line 280 "C:\Users\Kawtar\Documents\GitHub\OS_Project\Attacking\Main_left.nxc"
25	281	62		set __signed_stack_001containBalls, 40
25	280	65	#line 280 "C:\Users\Kawtar\Documents\GitHub\OS_Project\Attacking\Main_left.nxc"
25	280	65	#line 280 "C:\Users\Kawtar\Documents\GitHub\OS_Project\Attacking\Main_left.nxc"
25	281	65		set __D0containBalls, 50
25	281	68	#line 281 "C:\Users\Kawtar\Documents\GitHub\OS_Project\Attacking\Main_left.nxc"
25	282	68	#pragma macro 22
25	282	68		acquire __rotateMutex0
25	282	69		acquire __rotateMutex1
25	282	70		acquire __rotateMutex2
25	282	71		arrbuild __rotate_ports6, LMotor
25	282	75		mov __rotate_power6, __signed_stack_001containBalls
25	282	77		mov __rotate_angle6, __D0containBalls
25	282	79		mov __rotate_turnpct6, __constVal0
25	282	81		mov __rotate_sync6, __constVal0
25	282	83		mov __rotate_stop6, __constVal1
25	282	85		mov __rotate_theRVP6, __constVal32
25	282	87		mov __rotate_theRVI6, __constVal0
25	282	89		mov __rotate_theRVD6, __constVal96
25	282	91		subcall __RotateMotorVar, ____RotateMotorVar_return
25	282	94		release __rotateMutex2
25	282	95		release __rotateMutex1
25	282	96		release __rotateMutex0
25	7680	97	#line 7680 "C:\Users\Kawtar\Documents\GitHub\OS_Project\Attacking\Main_left.nxc"
25	281	97	#line 281 "C:\Users\Kawtar\Documents\GitHub\OS_Project\Attacking\Main_left.nxc"
25	282	97	#line 282 "C:\Users\Kawtar\Documents\GitHub\OS_Project\Attacking\Main_left.nxc"
25	283	97	#pragma macro 7
25	283	97		setout motors, 2, __constVal0, 1, __constVal3, 8, __constVal0, 6, __constVal32, 7, __constVal0, 5, __constVal0, 10, __constVal96, 11, __constVal32, 12, __constVal32, 0, __constVal63
25	7683	120	#line 7683 "C:\Users\Kawtar\Documents\GitHub\OS_Project\Attacking\Main_left.nxc"
25	282	120	#line 282 "C:\Users\Kawtar\Documents\GitHub\OS_Project\Attacking\Main_left.nxc"
25	282	120	#line 282 "C:\Users\Kawtar\Documents\GitHub\OS_Project\Attacking\Main_left.nxc"
25	283	120		set __open_7qG2_angle_7qG2_000, 180
25	282	123	#line 282 "C:\Users\Kawtar\Documents\GitHub\OS_Project\Attacking\Main_left.nxc"
25	283	123	#line 283 "C:\Users\Kawtar\Documents\GitHub\OS_Project\Attacking\Main_left.nxc"
25	284	123		subcall open, __open_return
25	283	125	#line 283 "C:\Users\Kawtar\Documents\GitHub\OS_Project\Attacking\Main_left.nxc"
25	284	125	#line 284 "C:\Users\Kawtar\Documents\GitHub\OS_Project\Attacking\Main_left.nxc"
25	285	125		subcall stopRotor, __stopRotor_return
25	284	127	#line 284 "C:\Users\Kawtar\Documents\GitHub\OS_Project\Attacking\Main_left.nxc"
25	284	127	#line 284 "C:\Users\Kawtar\Documents\GitHub\OS_Project\Attacking\Main_left.nxc"
25	285	127		set __Wait_7qG2_ms_7qG2_000_inline_containBalls, 1000
25	284	130	#line 284 "C:\Users\Kawtar\Documents\GitHub\OS_Project\Attacking\Main_left.nxc"
25	7921	130	#line 7921 "NXCDefs.h"
25	7922	130		wait2 NA, __Wait_7qG2_ms_7qG2_000_inline_containBalls
25	7921	133	#line 7921 "NXCDefs.h"
25	285	133	#line 285 "C:\Users\Kawtar\Documents\GitHub\OS_Project\Attacking\Main_left.nxc"
25	285	133	#line 285 "C:\Users\Kawtar\Documents\GitHub\OS_Project\Attacking\Main_left.nxc"
25	286	133		set __signed_stack_001containBalls, 40
25	285	136	#line 285 "C:\Users\Kawtar\Documents\GitHub\OS_Project\Attacking\Main_left.nxc"
25	285	136	#line 285 "C:\Users\Kawtar\Documents\GitHub\OS_Project\Attacking\Main_left.nxc"
25	286	136		set __D0containBalls, 2
25	286	139	#line 286 "C:\Users\Kawtar\Documents\GitHub\OS_Project\Attacking\Main_left.nxc"
25	287	139	#pragma macro 10
25	287	139		acquire __OnRevMutex
25	287	140		neg __OnRev_Tmp, __signed_stack_001containBalls
25	287	143		setout __OUT_AC, 2, __OnRev_Tmp, 1, __constVal7, 8, __constVal2, 7, __D0containBalls, 6, __constVal32, 5, __constVal0, 10, __constVal96, 11, __constVal32, 12, __constVal32, 0, __constVal63
25	287	166		release __OnRevMutex
25	7722	167	#line 7722 "C:\Users\Kawtar\Documents\GitHub\OS_Project\Attacking\Main_left.nxc"
25	286	167	#line 286 "C:\Users\Kawtar\Documents\GitHub\OS_Project\Attacking\Main_left.nxc"
25	286	167	#line 286 "C:\Users\Kawtar\Documents\GitHub\OS_Project\Attacking\Main_left.nxc"
25	287	167		set __Wait_7qG2_ms_7qG2_000_inline_containBalls, 200
25	286	170	#line 286 "C:\Users\Kawtar\Documents\GitHub\OS_Project\Attacking\Main_left.nxc"
25	7921	170	#line 7921 "NXCDefs.h"
25	7922	170		wait2 NA, __Wait_7qG2_ms_7qG2_000_inline_containBalls
25	7921	173	#line 7921 "NXCDefs.h"
25	287	173	#line 287 "C:\Users\Kawtar\Documents\GitHub\OS_Project\Attacking\Main_left.nxc"
25	288	173	#line 288 "C:\Users\Kawtar\Documents\GitHub\OS_Project\Attacking\Main_left.nxc"
25	289	173	#pragma macro 7
25	289	173		setout motors, 2, __constVal0, 1, __constVal3, 8, __constVal0, 6, __constVal32, 7, __constVal0, 5, __constVal0, 10, __constVal96, 11, __constVal32, 12, __constVal32, 0, __constVal63
25	7735	196	#line 7735 "C:\Users\Kawtar\Documents\GitHub\OS_Project\Attacking\Main_left.nxc"
25	288	196	#line 288 "C:\Users\Kawtar\Documents\GitHub\OS_Project\Attacking\Main_left.nxc"
25	290	196	#line 290 "C:\Users\Kawtar\Documents\GitHub\OS_Project\Attacking\Main_left.nxc"
25	291	196		subcall goToPredefined, __goToPredefined_return
25	290	198	#line 290 "C:\Users\Kawtar\Documents\GitHub\OS_Project\Attacking\Main_left.nxc"
25	291	198	#line 291 "C:\Users\Kawtar\Documents\GitHub\OS_Project\Attacking\Main_left.nxc"
25	292	198		subret __containBalls_return
26	293	0	#line 293 "C:\Users\Kawtar\Documents\GitHub\OS_Project\Attacking\Main_left.nxc"
26	294	0		set __SetSensorLowspeed_7qG2_port_7qG2_000_inline_goToPredefined, 0
26	293	3	#line 293 "C:\Users\Kawtar\Documents\GitHub\OS_Project\Attacking\Main_left.nxc"
26	294	3	#line 294 "C:\Users\Kawtar\Documents\GitHub\OS_Project\Attacking\Main_left.nxc"
26	295	3		mov __SetSensorLowspeed_7qG2_bIsPowered_7qG2_000_inline_goToPredefined, __constVal1
26	3758	5	#line 3758 "NXCDefs.h"
26	3759	5		mov __SetSensorType_7qG2_port_7qG2_000_inline_SetSensorLowspeed_inline_goToPredefined, __SetSensorLowspeed_7qG2_port_7qG2_000_inline_goToPredefined
26	3758	7	#line 3758 "NXCDefs.h"
26	3758	7	#line 3758 "NXCDefs.h"
26	3759	7		mov __DU0SetSensorLowspeed_inline_goToPredefined, __SetSensorLowspeed_7qG2_bIsPowered_7qG2_000_inline_goToPredefined
26	3758	10	#line 3758 "NXCDefs.h"
26	3759	10		tst 5, __zfSetSensorLowspeed_inline_goToPredefined, __DU0SetSensorLowspeed_inline_goToPredefined
26	3758	13	#line 3758 "NXCDefs.h"
26	3759	13		brtst 4, __006__NXC_Label_36, __zfSetSensorLowspeed_inline_goToPredefined
26	3758	16	#line 3758 "NXCDefs.h"
26	3759	16		set __D0SetSensorLowspeed_inline_goToPredefined, 11
26	3758	19	#line 3758 "NXCDefs.h"
26	3759	19		jmp __006__NXC_Label_37
26	3758	21	#line 3758 "NXCDefs.h"
26	3759	21		set __D0SetSensorLowspeed_inline_goToPredefined, 10
26	3758	24	#line 3758 "NXCDefs.h"
26	3759	24		mov __SetSensorType_7qG2_type_7qG2_000_inline_SetSensorLowspeed_inline_goToPredefined, __D0SetSensorLowspeed_inline_goToPredefined
26	3663	27	#line 3663 "NXCDefs.h"
26	3664	27		setin __SetSensorType_7qG2_type_7qG2_000_inline_SetSensorLowspeed_inline_goToPredefined, __SetSensorType_7qG2_port_7qG2_000_inline_SetSensorLowspeed_inline_goToPredefined, 0
26	3663	31	#line 3663 "NXCDefs.h"
26	3759	31	#line 3759 "NXCDefs.h"
26	3759	31	#line 3759 "NXCDefs.h"
26	3760	31		mov __SetSensorMode_7qG2_port_7qG2_000_inline_SetSensorLowspeed_inline_goToPredefined, __SetSensorLowspeed_7qG2_port_7qG2_000_inline_goToPredefined
26	3759	33	#line 3759 "NXCDefs.h"
26	3759	33	#line 3759 "NXCDefs.h"
26	3760	33		set __SetSensorMode_7qG2_mode_7qG2_000_inline_SetSensorLowspeed_inline_goToPredefined, 0
26	3759	36	#line 3759 "NXCDefs.h"
26	3676	36	#line 3676 "NXCDefs.h"
26	3677	36		setin __SetSensorMode_7qG2_mode_7qG2_000_inline_SetSensorLowspeed_inline_goToPredefined, __SetSensorMode_7qG2_port_7qG2_000_inline_SetSensorLowspeed_inline_goToPredefined, 1
26	3676	40	#line 3676 "NXCDefs.h"
26	3760	40	#line 3760 "NXCDefs.h"
26	3760	40	#line 3760 "NXCDefs.h"
26	3761	40		mov __ResetSensor_7qG2_port_7qG2_000_inline_SetSensorLowspeed_inline_goToPredefined, __SetSensorLowspeed_7qG2_port_7qG2_000_inline_goToPredefined
26	3760	42	#line 3760 "NXCDefs.h"
26	3694	42	#line 3694 "NXCDefs.h"
26	3695	42	#pragma macro 4
26	3695	42		acquire __ResetSensorMutex
26	3695	43		mov __ResetSensorPort, __ResetSensor_7qG2_port_7qG2_000_inline_SetSensorLowspeed_inline_goToPredefined
26	3695	45		subcall __ResetSensorSubroutine, ____ResetSensorSubroutine_return
26	3695	48		release __ResetSensorMutex
26	7836	49	#line 7836 "NXCDefs.h"
26	3694	49	#line 3694 "NXCDefs.h"
26	3761	49	#line 3761 "NXCDefs.h"
26	294	49	#line 294 "C:\Users\Kawtar\Documents\GitHub\OS_Project\Attacking\Main_left.nxc"
26	294	49	#line 294 "C:\Users\Kawtar\Documents\GitHub\OS_Project\Attacking\Main_left.nxc"
26	295	49		set __ClearSensor_7qG2_port_7qG2_000_inline_goToPredefined, 0
26	294	52	#line 294 "C:\Users\Kawtar\Documents\GitHub\OS_Project\Attacking\Main_left.nxc"
26	3684	52	#line 3684 "NXCDefs.h"
26	3685	52		setin __constVal0, __ClearSensor_7qG2_port_7qG2_000_inline_goToPredefined, 4
26	3684	56	#line 3684 "NXCDefs.h"
26	295	56	#line 295 "C:\Users\Kawtar\Documents\GitHub\OS_Project\Attacking\Main_left.nxc"
26	295	56	#line 295 "C:\Users\Kawtar\Documents\GitHub\OS_Project\Attacking\Main_left.nxc"
26	296	56		mov __signed_stack_001goToPredefined, __constValNeg40
26	295	58	#line 295 "C:\Users\Kawtar\Documents\GitHub\OS_Project\Attacking\Main_left.nxc"
26	295	58	#line 295 "C:\Users\Kawtar\Documents\GitHub\OS_Project\Attacking\Main_left.nxc"
26	296	58		set __D0goToPredefined, 405
26	296	61	#line 296 "C:\Users\Kawtar\Documents\GitHub\OS_Project\Attacking\Main_left.nxc"
26	297	61	#pragma macro 22
26	297	61		acquire __rotateMutex0
26	297	62		acquire __rotateMutex1
26	297	63		acquire __rotateMutex2
26	297	64		arrbuild __rotate_ports6, LMotor
26	297	68		mov __rotate_power6, __signed_stack_001goToPredefined
26	297	70		mov __rotate_angle6, __D0goToPredefined
26	297	72		mov __rotate_turnpct6, __constVal0
26	297	74		mov __rotate_sync6, __constVal0
26	297	76		mov __rotate_stop6, __constVal1
26	297	78		mov __rotate_theRVP6, __constVal32
26	297	80		mov __rotate_theRVI6, __constVal0
26	297	82		mov __rotate_theRVD6, __constVal96
26	297	84		subcall __RotateMotorVar, ____RotateMotorVar_return
26	297	87		release __rotateMutex2
26	297	88		release __rotateMutex1
26	297	89		release __rotateMutex0
26	7865	90	#line 7865 "C:\Users\Kawtar\Documents\GitHub\OS_Project\Attacking\Main_left.nxc"
26	296	90	#line 296 "C:\Users\Kawtar\Documents\GitHub\OS_Project\Attacking\Main_left.nxc"
26	297	90	#line 297 "C:\Users\Kawtar\Documents\GitHub\OS_Project\Attacking\Main_left.nxc"
26	298	90	#pragma macro 7
26	298	90		setout motors, 2, __constVal0, 1, __constVal3, 8, __constVal0, 6, __constVal32, 7, __constVal0, 5, __constVal0, 10, __constVal96, 11, __constVal32, 12, __constVal32, 0, __constVal63
26	7868	113	#line 7868 "C:\Users\Kawtar\Documents\GitHub\OS_Project\Attacking\Main_left.nxc"
26	297	113	#line 297 "C:\Users\Kawtar\Documents\GitHub\OS_Project\Attacking\Main_left.nxc"
26	297	113	#line 297 "C:\Users\Kawtar\Documents\GitHub\OS_Project\Attacking\Main_left.nxc"
26	298	113		set __ClearSensor_7qG2_port_7qG2_000_inline_goToPredefined, 0
26	297	116	#line 297 "C:\Users\Kawtar\Documents\GitHub\OS_Project\Attacking\Main_left.nxc"
26	3684	116	#line 3684 "NXCDefs.h"
26	3685	116		setin __constVal0, __ClearSensor_7qG2_port_7qG2_000_inline_goToPredefined, 4
26	3684	120	#line 3684 "NXCDefs.h"
26	298	120	#line 298 "C:\Users\Kawtar\Documents\GitHub\OS_Project\Attacking\Main_left.nxc"
26	298	120	#line 298 "C:\Users\Kawtar\Documents\GitHub\OS_Project\Attacking\Main_left.nxc"
26	299	120		set __Wait_7qG2_ms_7qG2_000_inline_goToPredefined, 500
26	298	123	#line 298 "C:\Users\Kawtar\Documents\GitHub\OS_Project\Attacking\Main_left.nxc"
26	7921	123	#line 7921 "NXCDefs.h"
26	7922	123		wait2 NA, __Wait_7qG2_ms_7qG2_000_inline_goToPredefined
26	7921	126	#line 7921 "NXCDefs.h"
26	299	126	#line 299 "C:\Users\Kawtar\Documents\GitHub\OS_Project\Attacking\Main_left.nxc"
26	299	126	#line 299 "C:\Users\Kawtar\Documents\GitHub\OS_Project\Attacking\Main_left.nxc"
26	300	126		set __signed_stack_001goToPredefined, 40
26	299	129	#line 299 "C:\Users\Kawtar\Documents\GitHub\OS_Project\Attacking\Main_left.nxc"
26	299	129	#line 299 "C:\Users\Kawtar\Documents\GitHub\OS_Project\Attacking\Main_left.nxc"
26	300	129		set __D0goToPredefined, 2
26	300	132	#line 300 "C:\Users\Kawtar\Documents\GitHub\OS_Project\Attacking\Main_left.nxc"
26	301	132	#pragma macro 7
26	301	132		setout __OUT_AC, 2, __signed_stack_001goToPredefined, 1, __constVal7, 8, __constVal2, 7, __D0goToPredefined, 6, __constVal32, 5, __constVal0, 10, __constVal96, 11, __constVal32, 12, __constVal32, 0, __constVal63
26	7905	155	#line 7905 "C:\Users\Kawtar\Documents\GitHub\OS_Project\Attacking\Main_left.nxc"
26	300	155	#line 300 "C:\Users\Kawtar\Documents\GitHub\OS_Project\Attacking\Main_left.nxc"
26	300	155	#line 300 "C:\Users\Kawtar\Documents\GitHub\OS_Project\Attacking\Main_left.nxc"
26	301	155	#pragma macro 26
26	301	155		acquire __RLSBmutex0
26	301	156		mov __RLSReadBuf0, __RLSBbufLSWrite1
26	301	158		set __RLSBytesCount0, 1
26	301	161		wait2 NA, __constVal15
26	301	164		subcall __ReadLSBytes0, ____ReadLSBytes0_return
26	301	167		index __D0goToPredefined, __RLSReadBuf0, 65535
26	301	171		release __RLSBmutex0
26	7909	172	#line 7909 "C:\Users\Kawtar\Documents\GitHub\OS_Project\Attacking\Main_left.nxc"
26	300	172	#line 300 "C:\Users\Kawtar\Documents\GitHub\OS_Project\Attacking\Main_left.nxc"
26	301	172		mov __signed_stack_001goToPredefined, __D0goToPredefined
26	300	174	#line 300 "C:\Users\Kawtar\Documents\GitHub\OS_Project\Attacking\Main_left.nxc"
26	301	174		set __D0goToPredefined, 25
26	300	177	#line 300 "C:\Users\Kawtar\Documents\GitHub\OS_Project\Attacking\Main_left.nxc"
26	301	177		cmp 2, __zfgoToPredefined, __signed_stack_001goToPredefined, __D0goToPredefined
26	300	181	#line 300 "C:\Users\Kawtar\Documents\GitHub\OS_Project\Attacking\Main_left.nxc"
26	300	181	#line 300 "C:\Users\Kawtar\Documents\GitHub\OS_Project\Attacking\Main_left.nxc"
26	301	181		not __D0goToPredefined, __zfgoToPredefined
26	302	184	#line 302 "C:\Users\Kawtar\Documents\GitHub\OS_Project\Attacking\Main_left.nxc"
26	303	184		tst 5, __zfgoToPredefined, __D0goToPredefined
26	302	187	#line 302 "C:\Users\Kawtar\Documents\GitHub\OS_Project\Attacking\Main_left.nxc"
26	303	187		brtst 4, __NXC_Label_809, __zfgoToPredefined
26	302	190	#line 302 "C:\Users\Kawtar\Documents\GitHub\OS_Project\Attacking\Main_left.nxc"
26	302	190	#line 302 "C:\Users\Kawtar\Documents\GitHub\OS_Project\Attacking\Main_left.nxc"
26	303	190		jmp __NXC_Label_808
26	302	192	#line 302 "C:\Users\Kawtar\Documents\GitHub\OS_Project\Attacking\Main_left.nxc"
26	303	192	#line 303 "C:\Users\Kawtar\Documents\GitHub\OS_Project\Attacking\Main_left.nxc"
26	304	192	#pragma macro 7
26	304	192		setout motors, 2, __constVal0, 1, __constVal3, 8, __constVal0, 6, __constVal32, 7, __constVal0, 5, __constVal0, 10, __constVal96, 11, __constVal32, 12, __constVal32, 0, __constVal63
26	7934	215	#line 7934 "C:\Users\Kawtar\Documents\GitHub\OS_Project\Attacking\Main_left.nxc"
26	303	215	#line 303 "C:\Users\Kawtar\Documents\GitHub\OS_Project\Attacking\Main_left.nxc"
26	303	215	#line 303 "C:\Users\Kawtar\Documents\GitHub\OS_Project\Attacking\Main_left.nxc"
26	304	215		set __signed_stack_001goToPredefined, 40
26	303	218	#line 303 "C:\Users\Kawtar\Documents\GitHub\OS_Project\Attacking\Main_left.nxc"
26	303	218	#line 303 "C:\Users\Kawtar\Documents\GitHub\OS_Project\Attacking\Main_left.nxc"
26	304	218		set __D0goToPredefined, 405
26	304	221	#line 304 "C:\Users\Kawtar\Documents\GitHub\OS_Project\Attacking\Main_left.nxc"
26	305	221	#pragma macro 22
26	305	221		acquire __rotateMutex0
26	305	222		acquire __rotateMutex1
26	305	223		acquire __rotateMutex2
26	305	224		arrbuild __rotate_ports6, LMotor
26	305	228		mov __rotate_power6, __signed_stack_001goToPredefined
26	305	230		mov __rotate_angle6, __D0goToPredefined
26	305	232		mov __rotate_turnpct6, __constVal0
26	305	234		mov __rotate_sync6, __constVal0
26	305	236		mov __rotate_stop6, __constVal1
26	305	238		mov __rotate_theRVP6, __constVal32
26	305	240		mov __rotate_theRVI6, __constVal0
26	305	242		mov __rotate_theRVD6, __constVal96
26	305	244		subcall __RotateMotorVar, ____RotateMotorVar_return
26	305	247		release __rotateMutex2
26	305	248		release __rotateMutex1
26	305	249		release __rotateMutex0
26	7947	250	#line 7947 "C:\Users\Kawtar\Documents\GitHub\OS_Project\Attacking\Main_left.nxc"
26	304	250	#line 304 "C:\Users\Kawtar\Documents\GitHub\OS_Project\Attacking\Main_left.nxc"
26	305	250	#line 305 "C:\Users\Kawtar\Documents\GitHub\OS_Project\Attacking\Main_left.nxc"
26	306	250	#pragma macro 7
26	306	250		setout motors, 2, __constVal0, 1, __constVal3, 8, __constVal0, 6, __constVal32, 7, __constVal0, 5, __constVal0, 10, __constVal96, 11, __constVal32, 12, __constVal32, 0, __constVal63
26	7950	273	#line 7950 "C:\Users\Kawtar\Documents\GitHub\OS_Project\Attacking\Main_left.nxc"
26	305	273	#line 305 "C:\Users\Kawtar\Documents\GitHub\OS_Project\Attacking\Main_left.nxc"
26	305	273	#line 305 "C:\Users\Kawtar\Documents\GitHub\OS_Project\Attacking\Main_left.nxc"
26	306	273		set __signed_stack_001goToPredefined, 40
26	305	276	#line 305 "C:\Users\Kawtar\Documents\GitHub\OS_Project\Attacking\Main_left.nxc"
26	305	276	#line 305 "C:\Users\Kawtar\Documents\GitHub\OS_Project\Attacking\Main_left.nxc"
26	306	276		set __D0goToPredefined, 2
26	306	279	#line 306 "C:\Users\Kawtar\Documents\GitHub\OS_Project\Attacking\Main_left.nxc"
26	307	279	#pragma macro 7
26	307	279		setout __OUT_AC, 2, __signed_stack_001goToPredefined, 1, __constVal7, 8, __constVal2, 7, __D0goToPredefined, 6, __constVal32, 5, __constVal0, 10, __constVal96, 11, __constVal32, 12, __constVal32, 0, __constVal63
26	7963	302	#line 7963 "C:\Users\Kawtar\Documents\GitHub\OS_Project\Attacking\Main_left.nxc"
26	306	302	#line 306 "C:\Users\Kawtar\Documents\GitHub\OS_Project\Attacking\Main_left.nxc"
26	306	302	#line 306 "C:\Users\Kawtar\Documents\GitHub\OS_Project\Attacking\Main_left.nxc"
26	307	302	#pragma macro 26
26	307	302		acquire __RLSBmutex0
26	307	303		mov __RLSReadBuf0, __RLSBbufLSWrite1
26	307	305		set __RLSBytesCount0, 1
26	307	308		wait2 NA, __constVal15
26	307	311		subcall __ReadLSBytes0, ____ReadLSBytes0_return
26	307	314		index __D0goToPredefined, __RLSReadBuf0, 65535
26	307	318		release __RLSBmutex0
26	7967	319	#line 7967 "C:\Users\Kawtar\Documents\GitHub\OS_Project\Attacking\Main_left.nxc"
26	306	319	#line 306 "C:\Users\Kawtar\Documents\GitHub\OS_Project\Attacking\Main_left.nxc"
26	307	319		mov __signed_stack_001goToPredefined, __D0goToPredefined
26	306	321	#line 306 "C:\Users\Kawtar\Documents\GitHub\OS_Project\Attacking\Main_left.nxc"
26	307	321		set __D0goToPredefined, 7
26	306	324	#line 306 "C:\Users\Kawtar\Documents\GitHub\OS_Project\Attacking\Main_left.nxc"
26	307	324		cmp 2, __zfgoToPredefined, __signed_stack_001goToPredefined, __D0goToPredefined
26	306	328	#line 306 "C:\Users\Kawtar\Documents\GitHub\OS_Project\Attacking\Main_left.nxc"
26	306	328	#line 306 "C:\Users\Kawtar\Documents\GitHub\OS_Project\Attacking\Main_left.nxc"
26	307	328		not __D0goToPredefined, __zfgoToPredefined
26	307	331	#line 307 "C:\Users\Kawtar\Documents\GitHub\OS_Project\Attacking\Main_left.nxc"
26	308	331		tst 5, __zfgoToPredefined, __D0goToPredefined
26	307	334	#line 307 "C:\Users\Kawtar\Documents\GitHub\OS_Project\Attacking\Main_left.nxc"
26	308	334		brtst 4, __NXC_Label_823, __zfgoToPredefined
26	307	337	#line 307 "C:\Users\Kawtar\Documents\GitHub\OS_Project\Attacking\Main_left.nxc"
26	307	337	#line 307 "C:\Users\Kawtar\Documents\GitHub\OS_Project\Attacking\Main_left.nxc"
26	308	337		jmp __NXC_Label_822
26	307	339	#line 307 "C:\Users\Kawtar\Documents\GitHub\OS_Project\Attacking\Main_left.nxc"
26	308	339	#line 308 "C:\Users\Kawtar\Documents\GitHub\OS_Project\Attacking\Main_left.nxc"
26	309	339	#pragma macro 7
26	309	339		setout motors, 2, __constVal0, 1, __constVal3, 8, __constVal0, 6, __constVal32, 7, __constVal0, 5, __constVal0, 10, __constVal96, 11, __constVal32, 12, __constVal32, 0, __constVal63
26	7992	362	#line 7992 "C:\Users\Kawtar\Documents\GitHub\OS_Project\Attacking\Main_left.nxc"
26	308	362	#line 308 "C:\Users\Kawtar\Documents\GitHub\OS_Project\Attacking\Main_left.nxc"
26	309	362	#line 309 "C:\Users\Kawtar\Documents\GitHub\OS_Project\Attacking\Main_left.nxc"
26	310	362		subcall close, __close_return
26	309	364	#line 309 "C:\Users\Kawtar\Documents\GitHub\OS_Project\Attacking\Main_left.nxc"
26	310	364	#line 310 "C:\Users\Kawtar\Documents\GitHub\OS_Project\Attacking\Main_left.nxc"
26	311	364		subcall stopRotor, __stopRotor_return
26	310	366	#line 310 "C:\Users\Kawtar\Documents\GitHub\OS_Project\Attacking\Main_left.nxc"
26	310	366	#line 310 "C:\Users\Kawtar\Documents\GitHub\OS_Project\Attacking\Main_left.nxc"
26	311	366		set __open_7qG2_angle_7qG2_000, 15
26	310	369	#line 310 "C:\Users\Kawtar\Documents\GitHub\OS_Project\Attacking\Main_left.nxc"
26	311	369	#line 311 "C:\Users\Kawtar\Documents\GitHub\OS_Project\Attacking\Main_left.nxc"
26	312	369		subcall open, __open_return
26	311	371	#line 311 "C:\Users\Kawtar\Documents\GitHub\OS_Project\Attacking\Main_left.nxc"
26	312	371	#line 312 "C:\Users\Kawtar\Documents\GitHub\OS_Project\Attacking\Main_left.nxc"
26	313	371		subcall stopRotor, __stopRotor_return
26	312	373	#line 312 "C:\Users\Kawtar\Documents\GitHub\OS_Project\Attacking\Main_left.nxc"
26	312	373	#line 312 "C:\Users\Kawtar\Documents\GitHub\OS_Project\Attacking\Main_left.nxc"
26	313	373		set __open_7qG2_angle_7qG2_000, 165
26	312	376	#line 312 "C:\Users\Kawtar\Documents\GitHub\OS_Project\Attacking\Main_left.nxc"
26	313	376	#line 313 "C:\Users\Kawtar\Documents\GitHub\OS_Project\Attacking\Main_left.nxc"
26	314	376		subcall open, __open_return
26	313	378	#line 313 "C:\Users\Kawtar\Documents\GitHub\OS_Project\Attacking\Main_left.nxc"
26	314	378	#line 314 "C:\Users\Kawtar\Documents\GitHub\OS_Project\Attacking\Main_left.nxc"
26	315	378		subcall stopRotor, __stopRotor_return
26	314	380	#line 314 "C:\Users\Kawtar\Documents\GitHub\OS_Project\Attacking\Main_left.nxc"
26	316	380	#line 316 "C:\Users\Kawtar\Documents\GitHub\OS_Project\Attacking\Main_left.nxc"
26	317	380		subcall throwBall, __throwBall_return
26	316	383	#line 316 "C:\Users\Kawtar\Documents\GitHub\OS_Project\Attacking\Main_left.nxc"
26	317	383	#line 317 "C:\Users\Kawtar\Documents\GitHub\OS_Project\Attacking\Main_left.nxc"
26	318	383	#pragma macro 7
26	318	383		setout motors, 2, __constVal0, 1, __constVal3, 8, __constVal0, 6, __constVal32, 7, __constVal0, 5, __constVal0, 10, __constVal96, 11, __constVal32, 12, __constVal32, 0, __constVal63
26	8028	406	#line 8028 "C:\Users\Kawtar\Documents\GitHub\OS_Project\Attacking\Main_left.nxc"
26	317	406	#line 317 "C:\Users\Kawtar\Documents\GitHub\OS_Project\Attacking\Main_left.nxc"
26	317	406	#line 317 "C:\Users\Kawtar\Documents\GitHub\OS_Project\Attacking\Main_left.nxc"
26	318	406		set __Wait_7qG2_ms_7qG2_000_inline_goToPredefined, 500
26	317	409	#line 317 "C:\Users\Kawtar\Documents\GitHub\OS_Project\Attacking\Main_left.nxc"
26	7921	409	#line 7921 "NXCDefs.h"
26	7922	409		wait2 NA, __Wait_7qG2_ms_7qG2_000_inline_goToPredefined
26	7921	412	#line 7921 "NXCDefs.h"
26	320	412	#line 320 "C:\Users\Kawtar\Documents\GitHub\OS_Project\Attacking\Main_left.nxc"
26	320	412	#line 320 "C:\Users\Kawtar\Documents\GitHub\OS_Project\Attacking\Main_left.nxc"
26	321	412		set __signed_stack_001goToPredefined, 40
26	320	415	#line 320 "C:\Users\Kawtar\Documents\GitHub\OS_Project\Attacking\Main_left.nxc"
26	320	415	#line 320 "C:\Users\Kawtar\Documents\GitHub\OS_Project\Attacking\Main_left.nxc"
26	321	415		set __D0goToPredefined, 50
26	321	418	#line 321 "C:\Users\Kawtar\Documents\GitHub\OS_Project\Attacking\Main_left.nxc"
26	322	418	#pragma macro 22
26	322	418		acquire __rotateMutex0
26	322	419		acquire __rotateMutex1
26	322	420		acquire __rotateMutex2
26	322	421		arrbuild __rotate_ports6, RMotor
26	322	425		mov __rotate_power6, __signed_stack_001goToPredefined
26	322	427		mov __rotate_angle6, __D0goToPredefined
26	322	429		mov __rotate_turnpct6, __constVal0
26	322	431		mov __rotate_sync6, __constVal0
26	322	433		mov __rotate_stop6, __constVal1
26	322	435		mov __rotate_theRVP6, __constVal32
26	322	437		mov __rotate_theRVI6, __constVal0
26	322	439		mov __rotate_theRVD6, __constVal96
26	322	441		subcall __RotateMotorVar, ____RotateMotorVar_return
26	322	444		release __rotateMutex2
26	322	445		release __rotateMutex1
26	322	446		release __rotateMutex0
26	8051	447	#line 8051 "C:\Users\Kawtar\Documents\GitHub\OS_Project\Attacking\Main_left.nxc"
26	321	447	#line 321 "C:\Users\Kawtar\Documents\GitHub\OS_Project\Attacking\Main_left.nxc"
26	322	447	#line 322 "C:\Users\Kawtar\Documents\GitHub\OS_Project\Attacking\Main_left.nxc"
26	323	447	#pragma macro 7
26	323	447		setout motors, 2, __constVal0, 1, __constVal3, 8, __constVal0, 6, __constVal32, 7, __constVal0, 5, __constVal0, 10, __constVal96, 11, __constVal32, 12, __constVal32, 0, __constVal63
26	8054	470	#line 8054 "C:\Users\Kawtar\Documents\GitHub\OS_Project\Attacking\Main_left.nxc"
26	322	470	#line 322 "C:\Users\Kawtar\Documents\GitHub\OS_Project\Attacking\Main_left.nxc"
26	322	470	#line 322 "C:\Users\Kawtar\Documents\GitHub\OS_Project\Attacking\Main_left.nxc"
26	323	470		set __signed_stack_001goToPredefined, 40
26	322	473	#line 322 "C:\Users\Kawtar\Documents\GitHub\OS_Project\Attacking\Main_left.nxc"
26	322	473	#line 322 "C:\Users\Kawtar\Documents\GitHub\OS_Project\Attacking\Main_left.nxc"
26	323	473		set __D0goToPredefined, 2
26	326	476	#line 326 "C:\Users\Kawtar\Documents\GitHub\OS_Project\Attacking\Main_left.nxc"
26	327	476	#pragma macro 10
26	327	476		acquire __OnRevMutex
26	327	477		neg __OnRev_Tmp, __signed_stack_001goToPredefined
26	327	480		setout __OUT_AC, 2, __OnRev_Tmp, 1, __constVal7, 8, __constVal2, 7, __D0goToPredefined, 6, __constVal32, 5, __constVal0, 10, __constVal96, 11, __constVal32, 12, __constVal32, 0, __constVal63
26	327	503		release __OnRevMutex
26	8067	504	#line 8067 "C:\Users\Kawtar\Documents\GitHub\OS_Project\Attacking\Main_left.nxc"
26	326	504	#line 326 "C:\Users\Kawtar\Documents\GitHub\OS_Project\Attacking\Main_left.nxc"
26	327	504	#line 327 "C:\Users\Kawtar\Documents\GitHub\OS_Project\Attacking\Main_left.nxc"
26	328	504		set __D0goToPredefined, 1
26	328	507	#line 328 "C:\Users\Kawtar\Documents\GitHub\OS_Project\Attacking\Main_left.nxc"
26	329	507		tst 5, __zfgoToPredefined, __D0goToPredefined
26	328	510	#line 328 "C:\Users\Kawtar\Documents\GitHub\OS_Project\Attacking\Main_left.nxc"
26	329	510		brtst 4, __NXC_Label_843, __zfgoToPredefined
26	328	513	#line 328 "C:\Users\Kawtar\Documents\GitHub\OS_Project\Attacking\Main_left.nxc"
26	329	513		getin __signed_stack_001goToPredefined, __constVal3, 4
26	328	517	#line 328 "C:\Users\Kawtar\Documents\GitHub\OS_Project\Attacking\Main_left.nxc"
26	329	517	#line 329 "C:\Users\Kawtar\Documents\GitHub\OS_Project\Attacking\Main_left.nxc"
26	330	517		set __D0goToPredefined, 1
26	329	520	#line 329 "C:\Users\Kawtar\Documents\GitHub\OS_Project\Attacking\Main_left.nxc"
26	330	520		cmp 4, __zfgoToPredefined, __signed_stack_001goToPredefined, __D0goToPredefined
26	329	524	#line 329 "C:\Users\Kawtar\Documents\GitHub\OS_Project\Attacking\Main_left.nxc"
26	330	524		mov __D0goToPredefined, __zfgoToPredefined
26	331	527	#line 331 "C:\Users\Kawtar\Documents\GitHub\OS_Project\Attacking\Main_left.nxc"
26	332	527		brtst 4, __NXC_Label_848, __zfgoToPredefined
26	332	530	#line 332 "C:\Users\Kawtar\Documents\GitHub\OS_Project\Attacking\Main_left.nxc"
26	333	530		jmp __NXC_Label_843
26	332	532	#line 332 "C:\Users\Kawtar\Documents\GitHub\OS_Project\Attacking\Main_left.nxc"
26	335	532	#line 335 "C:\Users\Kawtar\Documents\GitHub\OS_Project\Attacking\Main_left.nxc"
26	335	532	#line 335 "C:\Users\Kawtar\Documents\GitHub\OS_Project\Attacking\Main_left.nxc"
26	336	532		jmp __NXC_Label_842
26	335	534	#line 335 "C:\Users\Kawtar\Documents\GitHub\OS_Project\Attacking\Main_left.nxc"
26	337	534	#line 337 "C:\Users\Kawtar\Documents\GitHub\OS_Project\Attacking\Main_left.nxc"
26	338	534	#pragma macro 7
26	338	534		setout motors, 2, __constVal0, 1, __constVal3, 8, __constVal0, 6, __constVal32, 7, __constVal0, 5, __constVal0, 10, __constVal96, 11, __constVal32, 12, __constVal32, 0, __constVal63
26	8102	557	#line 8102 "C:\Users\Kawtar\Documents\GitHub\OS_Project\Attacking\Main_left.nxc"
26	337	557	#line 337 "C:\Users\Kawtar\Documents\GitHub\OS_Project\Attacking\Main_left.nxc"
26	337	557	#line 337 "C:\Users\Kawtar\Documents\GitHub\OS_Project\Attacking\Main_left.nxc"
26	338	557		set __signed_stack_001goToPredefined, 40
26	337	560	#line 337 "C:\Users\Kawtar\Documents\GitHub\OS_Project\Attacking\Main_left.nxc"
26	337	560	#line 337 "C:\Users\Kawtar\Documents\GitHub\OS_Project\Attacking\Main_left.nxc"
26	338	560		set __D0goToPredefined, 405
26	338	563	#line 338 "C:\Users\Kawtar\Documents\GitHub\OS_Project\Attacking\Main_left.nxc"
26	339	563	#pragma macro 22
26	339	563		acquire __rotateMutex0
26	339	564		acquire __rotateMutex1
26	339	565		acquire __rotateMutex2
26	339	566		arrbuild __rotate_ports6, LMotor
26	339	570		mov __rotate_power6, __signed_stack_001goToPredefined
26	339	572		mov __rotate_angle6, __D0goToPredefined
26	339	574		mov __rotate_turnpct6, __constVal0
26	339	576		mov __rotate_sync6, __constVal0
26	339	578		mov __rotate_stop6, __constVal1
26	339	580		mov __rotate_theRVP6, __constVal32
26	339	582		mov __rotate_theRVI6, __constVal0
26	339	584		mov __rotate_theRVD6, __constVal96
26	339	586		subcall __RotateMotorVar, ____RotateMotorVar_return
26	339	589		release __rotateMutex2
26	339	590		release __rotateMutex1
26	339	591		release __rotateMutex0
26	8115	592	#line 8115 "C:\Users\Kawtar\Documents\GitHub\OS_Project\Attacking\Main_left.nxc"
26	338	592	#line 338 "C:\Users\Kawtar\Documents\GitHub\OS_Project\Attacking\Main_left.nxc"
26	339	592	#line 339 "C:\Users\Kawtar\Documents\GitHub\OS_Project\Attacking\Main_left.nxc"
26	340	592	#pragma macro 7
26	340	592		setout motors, 2, __constVal0, 1, __constVal3, 8, __constVal0, 6, __constVal32, 7, __constVal0, 5, __constVal0, 10, __constVal96, 11, __constVal32, 12, __constVal32, 0, __constVal63
26	8118	615	#line 8118 "C:\Users\Kawtar\Documents\GitHub\OS_Project\Attacking\Main_left.nxc"
26	339	615	#line 339 "C:\Users\Kawtar\Documents\GitHub\OS_Project\Attacking\Main_left.nxc"
26	339	615	#line 339 "C:\Users\Kawtar\Documents\GitHub\OS_Project\Attacking\Main_left.nxc"
26	340	615		set __ClearSensor_7qG2_port_7qG2_000_inline_goToPredefined, 0
26	339	618	#line 339 "C:\Users\Kawtar\Documents\GitHub\OS_Project\Attacking\Main_left.nxc"
26	3684	618	#line 3684 "NXCDefs.h"
26	3685	618		setin __constVal0, __ClearSensor_7qG2_port_7qG2_000_inline_goToPredefined, 4
26	3684	622	#line 3684 "NXCDefs.h"
26	340	622	#line 340 "C:\Users\Kawtar\Documents\GitHub\OS_Project\Attacking\Main_left.nxc"
26	340	622	#line 340 "C:\Users\Kawtar\Documents\GitHub\OS_Project\Attacking\Main_left.nxc"
26	341	622		set __Wait_7qG2_ms_7qG2_000_inline_goToPredefined, 500
26	340	625	#line 340 "C:\Users\Kawtar\Documents\GitHub\OS_Project\Attacking\Main_left.nxc"
26	7921	625	#line 7921 "NXCDefs.h"
26	7922	625		wait2 NA, __Wait_7qG2_ms_7qG2_000_inline_goToPredefined
26	7921	628	#line 7921 "NXCDefs.h"
26	341	628	#line 341 "C:\Users\Kawtar\Documents\GitHub\OS_Project\Attacking\Main_left.nxc"
26	341	628	#line 341 "C:\Users\Kawtar\Documents\GitHub\OS_Project\Attacking\Main_left.nxc"
26	342	628		set __signed_stack_001goToPredefined, 40
26	341	631	#line 341 "C:\Users\Kawtar\Documents\GitHub\OS_Project\Attacking\Main_left.nxc"
26	341	631	#line 341 "C:\Users\Kawtar\Documents\GitHub\OS_Project\Attacking\Main_left.nxc"
26	342	631		set __D0goToPredefined, 2
26	343	634	#line 343 "C:\Users\Kawtar\Documents\GitHub\OS_Project\Attacking\Main_left.nxc"
26	344	634	#pragma macro 7
26	344	634		setout __OUT_AC, 2, __signed_stack_001goToPredefined, 1, __constVal7, 8, __constVal2, 7, __D0goToPredefined, 6, __constVal32, 5, __constVal0, 10, __constVal96, 11, __constVal32, 12, __constVal32, 0, __constVal63
26	8151	657	#line 8151 "C:\Users\Kawtar\Documents\GitHub\OS_Project\Attacking\Main_left.nxc"
26	343	657	#line 343 "C:\Users\Kawtar\Documents\GitHub\OS_Project\Attacking\Main_left.nxc"
26	343	657	#line 343 "C:\Users\Kawtar\Documents\GitHub\OS_Project\Attacking\Main_left.nxc"
26	344	657	#pragma macro 26
26	344	657		acquire __RLSBmutex0
26	344	658		mov __RLSReadBuf0, __RLSBbufLSWrite1
26	344	660		set __RLSBytesCount0, 1
26	344	663		wait2 NA, __constVal15
26	344	666		subcall __ReadLSBytes0, ____ReadLSBytes0_return
26	344	669		index __D0goToPredefined, __RLSReadBuf0, 65535
26	344	673		release __RLSBmutex0
26	8155	674	#line 8155 "C:\Users\Kawtar\Documents\GitHub\OS_Project\Attacking\Main_left.nxc"
26	343	674	#line 343 "C:\Users\Kawtar\Documents\GitHub\OS_Project\Attacking\Main_left.nxc"
26	344	674		mov __signed_stack_001goToPredefined, __D0goToPredefined
26	343	676	#line 343 "C:\Users\Kawtar\Documents\GitHub\OS_Project\Attacking\Main_left.nxc"
26	344	676		set __D0goToPredefined, 25
26	343	679	#line 343 "C:\Users\Kawtar\Documents\GitHub\OS_Project\Attacking\Main_left.nxc"
26	344	679		cmp 2, __zfgoToPredefined, __signed_stack_001goToPredefined, __D0goToPredefined
26	343	683	#line 343 "C:\Users\Kawtar\Documents\GitHub\OS_Project\Attacking\Main_left.nxc"
26	343	683	#line 343 "C:\Users\Kawtar\Documents\GitHub\OS_Project\Attacking\Main_left.nxc"
26	344	683		not __D0goToPredefined, __zfgoToPredefined
26	344	686	#line 344 "C:\Users\Kawtar\Documents\GitHub\OS_Project\Attacking\Main_left.nxc"
26	345	686		tst 5, __zfgoToPredefined, __D0goToPredefined
26	344	689	#line 344 "C:\Users\Kawtar\Documents\GitHub\OS_Project\Attacking\Main_left.nxc"
26	345	689		brtst 4, __NXC_Label_862, __zfgoToPredefined
26	344	692	#line 344 "C:\Users\Kawtar\Documents\GitHub\OS_Project\Attacking\Main_left.nxc"
26	344	692	#line 344 "C:\Users\Kawtar\Documents\GitHub\OS_Project\Attacking\Main_left.nxc"
26	345	692		jmp __NXC_Label_861
26	344	694	#line 344 "C:\Users\Kawtar\Documents\GitHub\OS_Project\Attacking\Main_left.nxc"
26	345	694	#line 345 "C:\Users\Kawtar\Documents\GitHub\OS_Project\Attacking\Main_left.nxc"
26	346	694	#pragma macro 7
26	346	694		setout motors, 2, __constVal0, 1, __constVal3, 8, __constVal0, 6, __constVal32, 7, __constVal0, 5, __constVal0, 10, __constVal96, 11, __constVal32, 12, __constVal32, 0, __constVal63
26	8180	717	#line 8180 "C:\Users\Kawtar\Documents\GitHub\OS_Project\Attacking\Main_left.nxc"
26	345	717	#line 345 "C:\Users\Kawtar\Documents\GitHub\OS_Project\Attacking\Main_left.nxc"
26	345	717	#line 345 "C:\Users\Kawtar\Documents\GitHub\OS_Project\Attacking\Main_left.nxc"
26	346	717		set __signed_stack_001goToPredefined, 40
26	345	720	#line 345 "C:\Users\Kawtar\Documents\GitHub\OS_Project\Attacking\Main_left.nxc"
26	345	720	#line 345 "C:\Users\Kawtar\Documents\GitHub\OS_Project\Attacking\Main_left.nxc"
26	346	720		set __D0goToPredefined, 405
26	346	723	#line 346 "C:\Users\Kawtar\Documents\GitHub\OS_Project\Attacking\Main_left.nxc"
26	347	723	#pragma macro 22
26	347	723		acquire __rotateMutex0
26	347	724		acquire __rotateMutex1
26	347	725		acquire __rotateMutex2
26	347	726		arrbuild __rotate_ports6, RMotor
26	347	730		mov __rotate_power6, __signed_stack_001goToPredefined
26	347	732		mov __rotate_angle6, __D0goToPredefined
26	347	734		mov __rotate_turnpct6, __constVal0
26	347	736		mov __rotate_sync6, __constVal0
26	347	738		mov __rotate_stop6, __constVal1
26	347	740		mov __rotate_theRVP6, __constVal32
26	347	742		mov __rotate_theRVI6, __constVal0
26	347	744		mov __rotate_theRVD6, __constVal96
26	347	746		subcall __RotateMotorVar, ____RotateMotorVar_return
26	347	749		release __rotateMutex2
26	347	750		release __rotateMutex1
26	347	751		release __rotateMutex0
26	8193	752	#line 8193 "C:\Users\Kawtar\Documents\GitHub\OS_Project\Attacking\Main_left.nxc"
26	346	752	#line 346 "C:\Users\Kawtar\Documents\GitHub\OS_Project\Attacking\Main_left.nxc"
26	347	752	#line 347 "C:\Users\Kawtar\Documents\GitHub\OS_Project\Attacking\Main_left.nxc"
26	348	752	#pragma macro 7
26	348	752		setout motors, 2, __constVal0, 1, __constVal3, 8, __constVal0, 6, __constVal32, 7, __constVal0, 5, __constVal0, 10, __constVal96, 11, __constVal32, 12, __constVal32, 0, __constVal63
26	8196	775	#line 8196 "C:\Users\Kawtar\Documents\GitHub\OS_Project\Attacking\Main_left.nxc"
26	347	775	#line 347 "C:\Users\Kawtar\Documents\GitHub\OS_Project\Attacking\Main_left.nxc"
26	347	775	#line 347 "C:\Users\Kawtar\Documents\GitHub\OS_Project\Attacking\Main_left.nxc"
26	348	775		set __signed_stack_001goToPredefined, 40
26	347	778	#line 347 "C:\Users\Kawtar\Documents\GitHub\OS_Project\Attacking\Main_left.nxc"
26	347	778	#line 347 "C:\Users\Kawtar\Documents\GitHub\OS_Project\Attacking\Main_left.nxc"
26	348	778		set __D0goToPredefined, 2
26	348	781	#line 348 "C:\Users\Kawtar\Documents\GitHub\OS_Project\Attacking\Main_left.nxc"
26	349	781	#pragma macro 7
26	349	781		setout __OUT_AC, 2, __signed_stack_001goToPredefined, 1, __constVal7, 8, __constVal2, 7, __D0goToPredefined, 6, __constVal32, 5, __constVal0, 10, __constVal96, 11, __constVal32, 12, __constVal32, 0, __constVal63
26	8209	804	#line 8209 "C:\Users\Kawtar\Documents\GitHub\OS_Project\Attacking\Main_left.nxc"
26	348	804	#line 348 "C:\Users\Kawtar\Documents\GitHub\OS_Project\Attacking\Main_left.nxc"
26	348	804	#line 348 "C:\Users\Kawtar\Documents\GitHub\OS_Project\Attacking\Main_left.nxc"
26	349	804	#pragma macro 26
26	349	804		acquire __RLSBmutex0
26	349	805		mov __RLSReadBuf0, __RLSBbufLSWrite1
26	349	807		set __RLSBytesCount0, 1
26	349	810		wait2 NA, __constVal15
26	349	813		subcall __ReadLSBytes0, ____ReadLSBytes0_return
26	349	816		index __D0goToPredefined, __RLSReadBuf0, 65535
26	349	820		release __RLSBmutex0
26	8213	821	#line 8213 "C:\Users\Kawtar\Documents\GitHub\OS_Project\Attacking\Main_left.nxc"
26	348	821	#line 348 "C:\Users\Kawtar\Documents\GitHub\OS_Project\Attacking\Main_left.nxc"
26	349	821		mov __signed_stack_001goToPredefined, __D0goToPredefined
26	348	823	#line 348 "C:\Users\Kawtar\Documents\GitHub\OS_Project\Attacking\Main_left.nxc"
26	349	823		set __D0goToPredefined, 7
26	348	826	#line 348 "C:\Users\Kawtar\Documents\GitHub\OS_Project\Attacking\Main_left.nxc"
26	349	826		cmp 2, __zfgoToPredefined, __signed_stack_001goToPredefined, __D0goToPredefined
26	348	830	#line 348 "C:\Users\Kawtar\Documents\GitHub\OS_Project\Attacking\Main_left.nxc"
26	348	830	#line 348 "C:\Users\Kawtar\Documents\GitHub\OS_Project\Attacking\Main_left.nxc"
26	349	830		not __D0goToPredefined, __zfgoToPredefined
26	349	833	#line 349 "C:\Users\Kawtar\Documents\GitHub\OS_Project\Attacking\Main_left.nxc"
26	350	833		tst 5, __zfgoToPredefined, __D0goToPredefined
26	349	836	#line 349 "C:\Users\Kawtar\Documents\GitHub\OS_Project\Attacking\Main_left.nxc"
26	350	836		brtst 4, __NXC_Label_876, __zfgoToPredefined
26	349	839	#line 349 "C:\Users\Kawtar\Documents\GitHub\OS_Project\Attacking\Main_left.nxc"
26	349	839	#line 349 "C:\Users\Kawtar\Documents\GitHub\OS_Project\Attacking\Main_left.nxc"
26	350	839		jmp __NXC_Label_875
26	349	841	#line 349 "C:\Users\Kawtar\Documents\GitHub\OS_Project\Attacking\Main_left.nxc"
26	350	841	#line 350 "C:\Users\Kawtar\Documents\GitHub\OS_Project\Attacking\Main_left.nxc"
26	351	841	#pragma macro 7
26	351	841		setout motors, 2, __constVal0, 1, __constVal3, 8, __constVal0, 6, __constVal32, 7, __constVal0, 5, __constVal0, 10, __constVal96, 11, __constVal32, 12, __constVal32, 0, __constVal63
26	8238	864	#line 8238 "C:\Users\Kawtar\Documents\GitHub\OS_Project\Attacking\Main_left.nxc"
26	350	864	#line 350 "C:\Users\Kawtar\Documents\GitHub\OS_Project\Attacking\Main_left.nxc"
26	351	864	#line 351 "C:\Users\Kawtar\Documents\GitHub\OS_Project\Attacking\Main_left.nxc"
26	352	864		subcall close, __close_return
26	351	866	#line 351 "C:\Users\Kawtar\Documents\GitHub\OS_Project\Attacking\Main_left.nxc"
26	352	866	#line 352 "C:\Users\Kawtar\Documents\GitHub\OS_Project\Attacking\Main_left.nxc"
26	353	866		subcall stopRotor, __stopRotor_return
26	352	868	#line 352 "C:\Users\Kawtar\Documents\GitHub\OS_Project\Attacking\Main_left.nxc"
26	352	868	#line 352 "C:\Users\Kawtar\Documents\GitHub\OS_Project\Attacking\Main_left.nxc"
26	353	868		set __open_7qG2_angle_7qG2_000, 15
26	352	871	#line 352 "C:\Users\Kawtar\Documents\GitHub\OS_Project\Attacking\Main_left.nxc"
26	353	871	#line 353 "C:\Users\Kawtar\Documents\GitHub\OS_Project\Attacking\Main_left.nxc"
26	354	871		subcall open, __open_return
26	353	873	#line 353 "C:\Users\Kawtar\Documents\GitHub\OS_Project\Attacking\Main_left.nxc"
26	354	873	#line 354 "C:\Users\Kawtar\Documents\GitHub\OS_Project\Attacking\Main_left.nxc"
26	355	873		subcall stopRotor, __stopRotor_return
26	354	875	#line 354 "C:\Users\Kawtar\Documents\GitHub\OS_Project\Attacking\Main_left.nxc"
26	354	875	#line 354 "C:\Users\Kawtar\Documents\GitHub\OS_Project\Attacking\Main_left.nxc"
26	355	875		set __open_7qG2_angle_7qG2_000, 165
26	354	878	#line 354 "C:\Users\Kawtar\Documents\GitHub\OS_Project\Attacking\Main_left.nxc"
26	355	878	#line 355 "C:\Users\Kawtar\Documents\GitHub\OS_Project\Attacking\Main_left.nxc"
26	356	878		subcall open, __open_return
26	355	880	#line 355 "C:\Users\Kawtar\Documents\GitHub\OS_Project\Attacking\Main_left.nxc"
26	356	880	#line 356 "C:\Users\Kawtar\Documents\GitHub\OS_Project\Attacking\Main_left.nxc"
26	357	880		subcall stopRotor, __stopRotor_return
26	356	882	#line 356 "C:\Users\Kawtar\Documents\GitHub\OS_Project\Attacking\Main_left.nxc"
26	357	882	#line 357 "C:\Users\Kawtar\Documents\GitHub\OS_Project\Attacking\Main_left.nxc"
26	358	882		subcall throwBall, __throwBall_return
26	357	885	#line 357 "C:\Users\Kawtar\Documents\GitHub\OS_Project\Attacking\Main_left.nxc"
26	359	885	#line 359 "C:\Users\Kawtar\Documents\GitHub\OS_Project\Attacking\Main_left.nxc"
26	360	885	#pragma macro 7
26	360	885		setout motors, 2, __constVal0, 1, __constVal3, 8, __constVal0, 6, __constVal32, 7, __constVal0, 5, __constVal0, 10, __constVal96, 11, __constVal32, 12, __constVal32, 0, __constVal63
26	8274	908	#line 8274 "C:\Users\Kawtar\Documents\GitHub\OS_Project\Attacking\Main_left.nxc"
26	359	908	#line 359 "C:\Users\Kawtar\Documents\GitHub\OS_Project\Attacking\Main_left.nxc"
26	360	908	#line 360 "C:\Users\Kawtar\Documents\GitHub\OS_Project\Attacking\Main_left.nxc"
26	361	908		subret __goToPredefined_return
27	363	0	#line 363 "C:\Users\Kawtar\Documents\GitHub\OS_Project\Attacking\Main_left.nxc"
27	364	0		set __D0scanningArenaLeft, 1
27	364	3	#line 364 "C:\Users\Kawtar\Documents\GitHub\OS_Project\Attacking\Main_left.nxc"
27	365	3		tst 5, __zfscanningArenaLeft, __D0scanningArenaLeft
27	364	6	#line 364 "C:\Users\Kawtar\Documents\GitHub\OS_Project\Attacking\Main_left.nxc"
27	365	6		brtst 4, __NXC_Label_886, __zfscanningArenaLeft
27	364	9	#line 364 "C:\Users\Kawtar\Documents\GitHub\OS_Project\Attacking\Main_left.nxc"
27	364	9	#line 364 "C:\Users\Kawtar\Documents\GitHub\OS_Project\Attacking\Main_left.nxc"
27	365	9		not __DU0scanningArenaLeft, scanningLeft
27	365	12	#line 365 "C:\Users\Kawtar\Documents\GitHub\OS_Project\Attacking\Main_left.nxc"
27	366	12		tst 5, __zfscanningArenaLeft, __DU0scanningArenaLeft
27	365	15	#line 365 "C:\Users\Kawtar\Documents\GitHub\OS_Project\Attacking\Main_left.nxc"
27	366	15		brtst 4, __NXC_Label_890, __zfscanningArenaLeft
27	365	18	#line 365 "C:\Users\Kawtar\Documents\GitHub\OS_Project\Attacking\Main_left.nxc"
27	365	18	#line 365 "C:\Users\Kawtar\Documents\GitHub\OS_Project\Attacking\Main_left.nxc"
27	366	18		jmp __NXC_Label_889
27	365	20	#line 365 "C:\Users\Kawtar\Documents\GitHub\OS_Project\Attacking\Main_left.nxc"
27	367	20	#line 367 "C:\Users\Kawtar\Documents\GitHub\OS_Project\Attacking\Main_left.nxc"
27	368	20		acquire moveMutex
27	367	21	#line 367 "C:\Users\Kawtar\Documents\GitHub\OS_Project\Attacking\Main_left.nxc"
27	367	21	#line 367 "C:\Users\Kawtar\Documents\GitHub\OS_Project\Attacking\Main_left.nxc"
27	368	21		set __D0scanningArenaLeft, 25
27	368	24	#line 368 "C:\Users\Kawtar\Documents\GitHub\OS_Project\Attacking\Main_left.nxc"
27	369	24	#pragma macro 10
27	369	24		acquire __OnRevMutex
27	369	25		neg __OnRev_Tmp, __D0scanningArenaLeft
27	369	28		setout LMotor, 2, __OnRev_Tmp, 1, __constVal3, 8, __constVal0, 6, __constVal32, 7, __constVal0, 5, __constVal0, 10, __constVal96, 11, __constVal32, 12, __constVal32, 0, __constVal63
27	369	51		release __OnRevMutex
27	8316	52	#line 8316 "C:\Users\Kawtar\Documents\GitHub\OS_Project\Attacking\Main_left.nxc"
27	368	52	#line 368 "C:\Users\Kawtar\Documents\GitHub\OS_Project\Attacking\Main_left.nxc"
27	368	52	#line 368 "C:\Users\Kawtar\Documents\GitHub\OS_Project\Attacking\Main_left.nxc"
27	369	52		set __D0scanningArenaLeft, 25
27	369	55	#line 369 "C:\Users\Kawtar\Documents\GitHub\OS_Project\Attacking\Main_left.nxc"
27	370	55	#pragma macro 7
27	370	55		setout RMotor, 2, __D0scanningArenaLeft, 1, __constVal3, 8, __constVal0, 6, __constVal32, 7, __constVal0, 5, __constVal0, 10, __constVal96, 11, __constVal32, 12, __constVal32, 0, __constVal63
27	8323	78	#line 8323 "C:\Users\Kawtar\Documents\GitHub\OS_Project\Attacking\Main_left.nxc"
27	369	78	#line 369 "C:\Users\Kawtar\Documents\GitHub\OS_Project\Attacking\Main_left.nxc"
27	369	78	#line 369 "C:\Users\Kawtar\Documents\GitHub\OS_Project\Attacking\Main_left.nxc"
27	370	78		set __Wait_7qG2_ms_7qG2_000_inline_scanningArenaLeft, 100
27	369	81	#line 369 "C:\Users\Kawtar\Documents\GitHub\OS_Project\Attacking\Main_left.nxc"
27	7921	81	#line 7921 "NXCDefs.h"
27	7922	81		wait2 NA, __Wait_7qG2_ms_7qG2_000_inline_scanningArenaLeft
27	7921	84	#line 7921 "NXCDefs.h"
27	371	84	#line 371 "C:\Users\Kawtar\Documents\GitHub\OS_Project\Attacking\Main_left.nxc"
27	372	84	#line 372 "C:\Users\Kawtar\Documents\GitHub\OS_Project\Attacking\Main_left.nxc"
27	373	84		release moveMutex
27	372	85	#line 372 "C:\Users\Kawtar\Documents\GitHub\OS_Project\Attacking\Main_left.nxc"
27	375	85	#line 375 "C:\Users\Kawtar\Documents\GitHub\OS_Project\Attacking\Main_left.nxc"
27	376	85		jmp __NXC_Label_885
27	375	87	#line 375 "C:\Users\Kawtar\Documents\GitHub\OS_Project\Attacking\Main_left.nxc"
27	376	87		exit -1, -1
28	378	0	#line 378 "C:\Users\Kawtar\Documents\GitHub\OS_Project\Attacking\Main_left.nxc"
28	379	0		set __D0scanningArenaRight, 1
28	379	3	#line 379 "C:\Users\Kawtar\Documents\GitHub\OS_Project\Attacking\Main_left.nxc"
28	380	3		tst 5, __zfscanningArenaRight, __D0scanningArenaRight
28	379	6	#line 379 "C:\Users\Kawtar\Documents\GitHub\OS_Project\Attacking\Main_left.nxc"
28	380	6		brtst 4, __NXC_Label_902, __zfscanningArenaRight
28	379	9	#line 379 "C:\Users\Kawtar\Documents\GitHub\OS_Project\Attacking\Main_left.nxc"
28	379	9	#line 379 "C:\Users\Kawtar\Documents\GitHub\OS_Project\Attacking\Main_left.nxc"
28	380	9		not __DU0scanningArenaRight, scanningRight
28	380	12	#line 380 "C:\Users\Kawtar\Documents\GitHub\OS_Project\Attacking\Main_left.nxc"
28	381	12		tst 5, __zfscanningArenaRight, __DU0scanningArenaRight
28	380	15	#line 380 "C:\Users\Kawtar\Documents\GitHub\OS_Project\Attacking\Main_left.nxc"
28	381	15		brtst 4, __NXC_Label_906, __zfscanningArenaRight
28	380	18	#line 380 "C:\Users\Kawtar\Documents\GitHub\OS_Project\Attacking\Main_left.nxc"
28	380	18	#line 380 "C:\Users\Kawtar\Documents\GitHub\OS_Project\Attacking\Main_left.nxc"
28	381	18		jmp __NXC_Label_905
28	380	20	#line 380 "C:\Users\Kawtar\Documents\GitHub\OS_Project\Attacking\Main_left.nxc"
28	382	20	#line 382 "C:\Users\Kawtar\Documents\GitHub\OS_Project\Attacking\Main_left.nxc"
28	383	20		acquire moveMutex
28	382	21	#line 382 "C:\Users\Kawtar\Documents\GitHub\OS_Project\Attacking\Main_left.nxc"
28	382	21	#line 382 "C:\Users\Kawtar\Documents\GitHub\OS_Project\Attacking\Main_left.nxc"
28	383	21		set __D0scanningArenaRight, 25
28	383	24	#line 383 "C:\Users\Kawtar\Documents\GitHub\OS_Project\Attacking\Main_left.nxc"
28	384	24	#pragma macro 10
28	384	24		acquire __OnRevMutex
28	384	25		neg __OnRev_Tmp, __D0scanningArenaRight
28	384	28		setout RMotor, 2, __OnRev_Tmp, 1, __constVal3, 8, __constVal0, 6, __constVal32, 7, __constVal0, 5, __constVal0, 10, __constVal96, 11, __constVal32, 12, __constVal32, 0, __constVal63
28	384	51		release __OnRevMutex
28	8384	52	#line 8384 "C:\Users\Kawtar\Documents\GitHub\OS_Project\Attacking\Main_left.nxc"
28	383	52	#line 383 "C:\Users\Kawtar\Documents\GitHub\OS_Project\Attacking\Main_left.nxc"
28	383	52	#line 383 "C:\Users\Kawtar\Documents\GitHub\OS_Project\Attacking\Main_left.nxc"
28	384	52		set __D0scanningArenaRight, 25
28	384	55	#line 384 "C:\Users\Kawtar\Documents\GitHub\OS_Project\Attacking\Main_left.nxc"
28	385	55	#pragma macro 7
28	385	55		setout LMotor, 2, __D0scanningArenaRight, 1, __constVal3, 8, __constVal0, 6, __constVal32, 7, __constVal0, 5, __constVal0, 10, __constVal96, 11, __constVal32, 12, __constVal32, 0, __constVal63
28	8391	78	#line 8391 "C:\Users\Kawtar\Documents\GitHub\OS_Project\Attacking\Main_left.nxc"
28	384	78	#line 384 "C:\Users\Kawtar\Documents\GitHub\OS_Project\Attacking\Main_left.nxc"
28	384	78	#line 384 "C:\Users\Kawtar\Documents\GitHub\OS_Project\Attacking\Main_left.nxc"
28	385	78		set __Wait_7qG2_ms_7qG2_000_inline_scanningArenaRight, 100
28	384	81	#line 384 "C:\Users\Kawtar\Documents\GitHub\OS_Project\Attacking\Main_left.nxc"
28	7921	81	#line 7921 "NXCDefs.h"
28	7922	81		wait2 NA, __Wait_7qG2_ms_7qG2_000_inline_scanningArenaRight
28	7921	84	#line 7921 "NXCDefs.h"
28	386	84	#line 386 "C:\Users\Kawtar\Documents\GitHub\OS_Project\Attacking\Main_left.nxc"
28	387	84	#line 387 "C:\Users\Kawtar\Documents\GitHub\OS_Project\Attacking\Main_left.nxc"
28	388	84		release moveMutex
28	387	85	#line 387 "C:\Users\Kawtar\Documents\GitHub\OS_Project\Attacking\Main_left.nxc"
28	390	85	#line 390 "C:\Users\Kawtar\Documents\GitHub\OS_Project\Attacking\Main_left.nxc"
28	391	85		jmp __NXC_Label_901
28	390	87	#line 390 "C:\Users\Kawtar\Documents\GitHub\OS_Project\Attacking\Main_left.nxc"
28	391	87		exit -1, -1
29	391	0	#line 391 "C:\Users\Kawtar\Documents\GitHub\OS_Project\Attacking\Main_left.nxc"
29	392	0		subret ____initialize_global_data_return
#CLUMPS
Clump	Name	Offset	File
0	main	0	C:\Users\Kawtar\Documents\GitHub\OS_Project\Attacking\Main_left.nxc
1	__RotateMotor6	7	NXTDefs.h
2	__RotateMotorVar	176	NXTDefs.h
3	__ResetSensorSubroutine	220	NXTDefs.h
4	__ReadLSBytes0	233	NXTDefs.h
5	__ReadLSBytes1	318	NXTDefs.h
6	__ReadLSBytes2	403	NXTDefs.h
7	PlaySound	488	NXCDefs.h
8	stopRotor	931	C:\Users\Kawtar\Documents\GitHub\OS_Project\Attacking\.\Header.nxc
9	close	962	C:\Users\Kawtar\Documents\GitHub\OS_Project\Attacking\.\Header.nxc
10	open	1011	C:\Users\Kawtar\Documents\GitHub\OS_Project\Attacking\.\Header.nxc
11	init	1051	C:\Users\Kawtar\Documents\GitHub\OS_Project\Attacking\Main_left.nxc
12	getDegreeDiff	1232	C:\Users\Kawtar\Documents\GitHub\OS_Project\Attacking\Main_left.nxc
13	backtoOrigin	1264	C:\Users\Kawtar\Documents\GitHub\OS_Project\Attacking\Main_left.nxc
14	throwBall	1347	C:\Users\Kawtar\Documents\GitHub\OS_Project\Attacking\Main_left.nxc
15	getObjColor	1479	C:\Users\Kawtar\Documents\GitHub\OS_Project\Attacking\Main_left.nxc
16	isNotField	1506	C:\Users\Kawtar\Documents\GitHub\OS_Project\Attacking\Main_left.nxc
17	checkandthrow	1595	C:\Users\Kawtar\Documents\GitHub\OS_Project\Attacking\Main_left.nxc
18	moveTowardObj	1672	C:\Users\Kawtar\Documents\GitHub\OS_Project\Attacking\Main_left.nxc
19	changeDirection	1825	C:\Users\Kawtar\Documents\GitHub\OS_Project\Attacking\Main_left.nxc
20	moveFwd	1832	C:\Users\Kawtar\Documents\GitHub\OS_Project\Attacking\Main_left.nxc
21	moveBwd	1891	C:\Users\Kawtar\Documents\GitHub\OS_Project\Attacking\Main_left.nxc
22	reverseDirection	1955	C:\Users\Kawtar\Documents\GitHub\OS_Project\Attacking\Main_left.nxc
23	checkWallBack	2086	C:\Users\Kawtar\Documents\GitHub\OS_Project\Attacking\Main_left.nxc
24	reading	2115	C:\Users\Kawtar\Documents\GitHub\OS_Project\Attacking\Main_left.nxc
25	containBalls	2761	C:\Users\Kawtar\Documents\GitHub\OS_Project\Attacking\Main_left.nxc
26	goToPredefined	2961	C:\Users\Kawtar\Documents\GitHub\OS_Project\Attacking\Main_left.nxc
27	scanningArenaLeft	3871	C:\Users\Kawtar\Documents\GitHub\OS_Project\Attacking\Main_left.nxc
28	scanningArenaRight	3961	C:\Users\Kawtar\Documents\GitHub\OS_Project\Attacking\Main_left.nxc
29	__initialize_global_data	4051	C:\Users\Kawtar\Documents\GitHub\OS_Project\Attacking\Main_left.nxc
