#SYMBOLS
Index	Identifier	Type	Flag	Data	Size	RefCount
0	__D0reverseDirection	6	1	0	4	8
1	__DU0reading	5	1	4	4	8
2	__D0scanningArenaLeft	6	1	8	4	6
3	__DU0reverseDirection	5	1	12	4	2
4	__D0reading	6	1	16	4	45
5	__DU0moveTowardObj	5	1	20	4	8
6	__D0moveTowardObj	6	1	24	4	12
7	__D0PlaySound	6	1	28	4	48
8	__D0open	6	1	32	4	2
9	__D0SetSensorLowspeed_inline_init	6	1	36	4	6
10	__DU0SetSensorLowspeed_inline_goToPredefined	5	1	40	4	2
11	__signed_stack_001backtoOrigin	6	1	44	4	2
12	__DU0SetSensorLowspeed_inline_init	5	1	48	4	4
13	__D0SetSensorLowspeed_inline_goToPredefined	6	1	52	4	3
14	__D0scanningArenaRight	6	1	56	4	6
15	__DU0scanningArenaLeft	5	1	60	4	2
16	__D0throwBall	6	1	64	4	4
17	__DU0scanningArenaRight	5	1	68	4	2
18	__D0moveFwd	6	1	72	4	2
19	__D0checkWallBack	6	1	76	4	3
20	__DU0checkandthrow	5	1	80	4	3
21	__D0close	6	1	84	4	2
22	__DU0checkWallBack	5	1	88	4	3
23	__D0checkandthrow	6	1	92	4	8
24	__RLSBmutex2	9	0	96	4	2
25	__RLSBmutex1	9	0	100	4	6
26	__D0backtoOrigin	6	1	104	4	13
27	__SPTArgsMutex	9	0	108	4	14
28	__D0isNotField	6	1	112	4	26
29	__D0init	6	1	116	4	7
30	__D0moveBwd	6	1	120	4	2
31	__DU0isNotField	5	1	124	4	2
32	__D0goToPredefined	6	1	128	4	48
33	__D0getDegreeDiff	6	1	132	4	7
34	__D0containBalls	6	1	136	4	4
35	__DU0getObjColor	5	1	140	4	5
36	__D0getObjColor	6	1	144	4	1
37	__unsigned_stack_001reading	5	1	148	4	2
38	__signed_stack_002reading	6	1	152	4	12
39	__Wait_7qG2_ms_7qG2_000_inline_stopRotor	5	1	156	4	2
40	__signed_stack_001throwBall	6	1	160	4	4
41	__signed_stack_001reading	6	1	164	4	22
42	__signed_stack_001PlaySound	6	1	168	4	38
43	__signed_stack_001open	6	1	172	4	2
44	__signed_stack_003PlaySound	6	1	176	4	14
45	__signed_stack_002PlaySound	6	1	180	4	14
46	__Wait_7qG2_ms_7qG2_000_inline_reverseDirection	5	1	184	4	2
47	__Wait_7qG2_ms_7qG2_000_inline_moveBwd	5	1	188	4	2
48	__Wait_7qG2_ms_7qG2_000_inline_reading	5	1	192	4	4
49	__Wait_7qG2_ms_7qG2_000_inline_containBalls	5	1	196	4	2
50	__Wait_7qG2_ms_7qG2_000_inline_moveFwd	5	1	200	4	2
51	__Wait_7qG2_ms_7qG2_000_inline_init	5	1	204	4	2
52	moveMutex	9	0	208	4	8
53	__Wait_7qG2_ms_7qG2_000_inline_checkandthrow	5	1	212	4	2
54	__Wait_7qG2_ms_7qG2_000_inline_throwBall	5	1	216	4	4
55	__signed_stack_001moveTowardObj	6	1	220	4	6
56	__signed_stack_003close	6	1	224	4	2
57	__signed_stack_002close	6	1	228	4	2
58	__signed_stack_001containBalls	6	1	232	4	4
59	__signed_stack_004close	6	1	236	4	2
60	__signed_stack_001close	6	1	240	4	2
61	__unsigned_stack_001checkandthrow	5	1	244	4	2
62	__signed_stack_001checkandthrow	6	1	248	4	2
63	__signed_stack_001checkWallBack	6	1	252	4	2
64	__unsigned_stack_002checkandthrow	5	1	256	4	2
65	__unsigned_stack_003isNotField	5	1	260	4	6
66	__unsigned_stack_002isNotField	5	1	264	4	2
67	__signed_stack_001moveFwd	6	1	268	4	2
68	__signed_stack_001moveBwd	6	1	272	4	2
69	__unsigned_stack_001isNotField	5	1	276	4	2
70	__signed_stack_001goToPredefined	6	1	280	4	30
71	__signed_stack_001getDegreeDiff	6	1	284	4	2
72	__signed_stack_002isNotField	6	1	288	4	6
73	__signed_stack_001isNotField	6	1	292	4	2
74	__rotate_theAngle6	5	1	296	4	2
75	__rotateMutex1	9	0	300	4	22
76	__CLSRMutex0	9	0	304	4	2
77	__TextOutMutex	9	0	308	4	12
78	__CLSRMutex1	9	0	312	4	2
79	__OnRevMutex	9	0	316	4	16
80	__rotateMutex0	9	0	320	4	22
81	__CLSCSMutex1	9	0	324	4	2
82	__RLSBmutex0	9	0	328	4	12
83	__PointOutMutex	9	0	332	4	2
84	__CLSWMutex1	9	0	336	4	2
85	__rotateMutex2	9	0	340	4	22
86	__Wait_7qG2_ms_7qG2_000_inline_scanningArenaRight	5	1	344	4	2
87	__ResetSensorMutex	9	0	348	4	8
88	__Wait_7qG2_ms_7qG2_000_inline_scanningArenaLeft	5	1	352	4	2
89	__CLSCSMutex0	9	0	356	4	2
90	__CLSWMutex0	9	0	360	4	2
91	__CLSCSMutex2	9	0	364	4	2
92	__rotate_angle6	6	1	368	4	15
93	__Wait_7qG2_ms_7qG2_000_inline_goToPredefined	5	1	372	4	6
94	__CLSRMutex2	9	0	376	4	2
95	__CLSWMutex2	9	0	380	4	2
96	__moveFwd_7qG2_moveTime_7qG2_000	4	1	384	2	3
97	__open_7qG2_angle_7qG2_000	4	1	386	2	9
98	__getDegreeDiff_7qG2_old_7qG2_000	4	1	388	2	2
99	__getDegreeDiff_7qG2_current_7qG2_000	4	1	390	2	2
100	__getDegreeDiff_7qG2_diff_7qG2_000	4	1	392	2	5
101	__moveBwd_7qG2_moveTime_7qG2_000	4	1	394	2	2
102	currentCompass	4	1	396	2	4
103	__rotate_OldRotCount6	4	1	398	2	2
104	__rotate_RotCount6	4	1	400	2	4
105	ownGoal	4	1	402	2	4
106	__constVal523	4	0	404	2	3
107	relBearing	4	1	406	2	6
108	__goToPredefined_7qG2_distance_7qG2_000	4	1	408	2	3
109	__constVal200	4	0	410	2	3
110	__constVal500	4	0	412	2	1
111	__reverseDirection_7qG2_moveTime_7qG2_000	4	1	414	2	2
112	__PlaySound_7qG2_i_7qG2_001	4	1	416	2	15
113	__PlaySound_7qG2_aCode_7qG2_000	4	1	418	2	7
114	__constVal360	4	0	420	2	1
115	__constVal150	4	0	422	2	1
116	__open_return	1	1	424	1	10
117	__rotate_firstPort6	1	1	425	1	5
118	__PlaySound_return	1	1	426	1	3
119	__goToPredefined_return	1	1	427	1	3
120	__rotate_sync6	1	1	428	1	12
121	__rotate_theUF6	1	1	429	1	6
122	__rotate_turnpct6	2	1	430	1	13
123	__rotate_stop6	1	1	431	1	12
124	RMotor	1	1	432	1	9
125	__constVal96	2	0	433	1	56
126	__constVal63	2	0	434	1	45
127	__close_return	1	1	435	1	7
128	__rotate_power6	1	1	436	1	14
129	LMotor	1	0	437	1	10
130	GMotor	1	0	438	1	3
131	__stopRotor_return	1	1	439	1	13
132	scanningLeft	1	0	440	1	3
133	__checkandthrow_7qG2_output_7qG2_000	1	1	441	1	2
134	__checkandthrow_return	1	1	442	1	5
135	__moveTowardObj_7qG2_meetWall_7qG2_000	1	1	443	1	4
136	__moveTowardObj_return	1	1	444	1	5
137	__getObjColor_7qG2_output_7qG2_000	1	1	445	1	3
138	__getObjColor_return	1	1	446	1	5
139	__isNotField_7qG2_output_7qG2_000	1	1	447	1	5
140	__isNotField_return	1	1	448	1	4
141	__checkWallBack_return	1	1	449	1	5
142	__moveBwd_return	1	1	450	1	3
143	__ClearSensor_7qG2_port_7qG2_000_inline_reading	1	1	451	1	2
144	__reading_7qG2_grab_7qG2_004	1	1	452	1	4
145	__changeDirection_return	1	1	453	1	4
146	__ClearSensor_7qG2_port_7qG2_000_inline_moveTowardObj	1	1	454	1	2
147	__OnRev_Tmp	2	1	455	1	16
148	__moveFwd_return	1	1	456	1	4
149	__throwBall_return	1	1	457	1	5
150	__SetSensorType_7qG2_type_7qG2_000_inline_SetSensorLowspeed_inline_init	1	1	458	1	4
151	__SetSensorType_7qG2_port_7qG2_000_inline_SetSensorLowspeed_inline_init	1	1	459	1	4
152	__SetSensorMode_7qG2_mode_7qG2_000_inline_SetSensorLowspeed_inline_init	1	1	460	1	4
153	__SetSensorMode_7qG2_port_7qG2_000_inline_SetSensorLowspeed_inline_init	1	1	461	1	4
154	____initialize_global_data_return	1	1	462	1	3
155	scanningRight	1	1	463	1	9
156	__SetSensorLowspeed_7qG2_bIsPowered_7qG2_000_inline_init	1	1	464	1	4
157	__SetSensorLowspeed_7qG2_port_7qG2_000_inline_init	1	1	465	1	8
158	__backtoOrigin_return	1	1	466	1	4
159	__getDegreeDiff_return	1	1	467	1	4
160	__constValNeg40	2	0	468	1	1
161	__reverseDirection_return	1	1	469	1	3
162	__SetSensorTouch_7qG2_port_7qG2_000_inline_init	1	1	470	1	4
163	__ResetSensor_7qG2_port_7qG2_000_inline_SetSensorLowspeed_inline_init	1	1	471	1	4
164	__containBalls_return	1	1	472	1	3
165	__ClearSensor_7qG2_port_7qG2_000_inline_init	1	1	473	1	2
166	__zfbacktoOrigin	1	1	474	1	3
167	__RLSBResult0	2	1	475	1	7
168	__zfcheckandthrow	1	1	476	1	7
169	__ResetSensor_7qG2_port_7qG2_000_inline_SetSensorLowspeed_inline_goToPredefined	1	1	477	1	2
170	__PFTmp	1	1	478	1	1
171	__constVal100	2	0	479	1	2
172	__RLSBytesCount0	1	1	480	1	12
173	__constVal7	2	0	481	1	10
174	__zfisNotField	1	1	482	1	20
175	__zfgoToPredefined	1	1	483	1	23
176	__zfPlaySound	1	1	484	1	27
177	__zfmoveTowardObj	1	1	485	1	11
178	__ClearSensor_7qG2_port_7qG2_000_inline_goToPredefined	1	1	486	1	6
179	____ReadLSBytes0_return	1	1	487	1	8
180	__zfgetDegreeDiff	1	1	488	1	3
181	__zfcheckWallBack	1	1	489	1	3
182	__RLSBytesCount1	1	1	490	1	15
183	__RLSBResult1	2	1	491	1	7
184	__SetSensorType_7qG2_type_7qG2_000_inline_SetSensorLowspeed_inline_goToPredefined	1	1	492	1	2
185	__RLSBIterations1	1	1	493	1	4
186	____ReadLSBytes1_return	1	1	494	1	5
187	__constVal15	2	0	495	1	15
188	__SetSensorMode_7qG2_port_7qG2_000_inline_SetSensorLowspeed_inline_goToPredefined	1	1	496	1	2
189	__SetSensorMode_7qG2_mode_7qG2_000_inline_SetSensorLowspeed_inline_goToPredefined	1	1	497	1	2
190	__RLSBIterations2	1	1	498	1	4
191	__RLSBytesCount2	1	1	499	1	7
192	__constVal2	2	0	500	1	10
193	__SetSensorLowspeed_7qG2_bIsPowered_7qG2_000_inline_goToPredefined	1	1	501	1	2
194	__RLSBIterations0	1	1	502	1	4
195	____ReadLSBytes2_return	1	1	503	1	3
196	__RLSBResult2	2	1	504	1	8
197	__SetSensorType_7qG2_port_7qG2_000_inline_SetSensorLowspeed_inline_goToPredefined	1	1	505	1	2
198	__zfreading	1	1	506	1	24
199	____RotateMotor6_return	1	1	507	1	3
200	____RotateMotor6_sign_tmp	2	1	508	1	4
201	__constVal50	2	0	509	1	2
202	__constVal1	2	0	510	1	28
203	__constVal0	2	1	511	1	184
204	__zfSetSensorLowspeed_inline_init	1	1	512	1	4
205	__constVal4	2	0	513	1	4
206	__constVal6	2	0	514	1	1
207	____RotateMotorVar_return	1	1	515	1	13
208	__constVal3	2	0	516	1	39
209	__rotate_theRVP6	1	1	517	1	12
210	__rotate_theRVI6	1	1	518	1	12
211	__rotate_theRS6	1	1	519	1	3
212	__rotate_theOM6	1	1	520	1	7
213	__rotate_theRM6	1	1	521	1	4
214	__rotate_theTurnPct6	2	1	522	1	4
215	__constVal32	2	0	523	1	150
216	__rotate_thePower6	2	1	524	1	4
217	__rotate_theRVD6	1	1	525	1	12
218	__rotate_rs6	1	1	526	1	10
219	____ResetSensorSubroutine_return	1	1	527	1	6
220	__zfscanningArenaRight	1	1	528	1	4
221	__zfscanningArenaLeft	1	1	529	1	4
222	__SetSensorLowspeed_7qG2_port_7qG2_000_inline_goToPredefined	1	1	530	1	4
223	__zfreverseDirection	1	1	531	1	2
224	__zfSetSensorLowspeed_inline_goToPredefined	1	1	532	1	2
225	__constVal5	2	0	533	1	1
226	__ResetSensorTmp	1	1	534	1	2
227	__ResetSensorPort	1	1	535	1	6
228	__CLSRArgs1	8	0	4	12	5
229	__CLSRArgs1.Result	2	1	536	1	5
230	__CLSRArgs1.Port	1	1	537	1	5
231	__CLSRArgs1.Buffer	7	0	538	4	5
232	__CLSRArgs1.Buffer.Buffer_type	1	0	0	1	0
233	__CLSRArgs1.BufferLen	1	1	540	1	5
234	__CLSCSArgs2	8	0	3	4	4
235	__CLSCSArgs2.Result	2	1	544	1	4
236	__CLSCSArgs2.Port	1	1	545	1	4
237	__CLSCSArgs2.BytesReady	1	1	546	1	4
238	__CLSRArgs0	8	0	4	12	5
239	__CLSRArgs0.Result	2	1	548	1	5
240	__CLSRArgs0.Port	1	1	549	1	5
241	__CLSRArgs0.Buffer	7	0	550	4	5
242	__CLSRArgs0.Buffer.Buffer_type	1	0	0	1	0
243	__CLSRArgs0.BufferLen	1	1	552	1	5
244	__CLSCSArgs1	8	0	3	4	4
245	__CLSCSArgs1.Result	2	1	556	1	4
246	__CLSCSArgs1.Port	1	1	557	1	4
247	__CLSCSArgs1.BytesReady	1	1	558	1	4
248	__CLSWArgs1	8	0	4	12	5
249	__CLSWArgs1.Result	2	1	560	1	5
250	__CLSWArgs1.Port	1	1	561	1	5
251	__CLSWArgs1.Buffer	7	0	562	4	5
252	__CLSWArgs1.Buffer.Buffer_type	1	0	0	1	0
253	__CLSWArgs1.ReturnLen	1	1	564	1	5
254	__SPTArgs	8	0	5	8	42
255	__SPTArgs.Result	2	1	568	1	42
256	__SPTArgs.Frequency	3	1	570	2	42
257	__SPTArgs.Duration	3	1	572	2	42
258	__SPTArgs.Loop	1	1	574	1	42
259	__SPTArgs.Volume	1	1	575	1	42
260	__TextOutArgs	8	0	4	16	36
261	__TextOutArgs.Result	2	1	576	1	36
262	__TextOutArgs.Location	8	0	2	4	36
263	__TextOutArgs.Location.X	4	1	580	2	36
264	__TextOutArgs.Location.Y	4	1	582	2	36
265	__TextOutArgs.Text	7	0	584	4	36
266	__TextOutArgs.Text.Text_type	1	0	0	1	0
267	__TextOutArgs.Options	5	1	588	4	36
268	__PointOutArgs	8	0	3	12	4
269	__PointOutArgs.Result	2	1	592	1	4
270	__PointOutArgs.Location	8	0	2	4	4
271	__PointOutArgs.Location.X	4	1	596	2	4
272	__PointOutArgs.Location.Y	4	1	598	2	4
273	__PointOutArgs.Options	5	1	600	4	4
274	__CLSCSArgs0	8	0	3	4	4
275	__CLSCSArgs0.Result	2	1	604	1	4
276	__CLSCSArgs0.Port	1	1	605	1	4
277	__CLSCSArgs0.BytesReady	1	1	606	1	4
278	__CLSWArgs2	8	0	4	12	5
279	__CLSWArgs2.Result	2	1	608	1	5
280	__CLSWArgs2.Port	1	1	609	1	5
281	__CLSWArgs2.Buffer	7	0	610	4	5
282	__CLSWArgs2.Buffer.Buffer_type	1	0	0	1	0
283	__CLSWArgs2.ReturnLen	1	1	612	1	5
284	__CLSWArgs0	8	0	4	12	5
285	__CLSWArgs0.Result	2	1	616	1	5
286	__CLSWArgs0.Port	1	1	617	1	5
287	__CLSWArgs0.Buffer	7	0	618	4	5
288	__CLSWArgs0.Buffer.Buffer_type	1	0	0	1	0
289	__CLSWArgs0.ReturnLen	1	1	620	1	5
290	__CLSRArgs2	8	0	4	12	5
291	__CLSRArgs2.Result	2	1	624	1	5
292	__CLSRArgs2.Port	1	1	625	1	5
293	__CLSRArgs2.Buffer	7	0	626	4	5
294	__CLSRArgs2.Buffer.Buffer_type	1	0	0	1	0
295	__CLSRArgs2.BufferLen	1	1	628	1	5
296	__RLSBbufLSWrite1	7	0	630	4	10
297	__RLSBbufLSWrite1.__RLSBbufLSWrite1_type	1	0	0	1	0
298	__rotate_ports6	7	0	632	4	22
299	__rotate_ports6.__rotate_ports6_type	1	0	0	1	0
300	__RLSReadBuf0	7	0	634	4	18
301	__RLSReadBuf0.__RLSReadBuf0_type	1	0	0	1	0
302	__RLSLastGoodRead0	7	0	636	4	2
303	__RLSLastGoodRead0.__RLSLastGoodRead0_type	1	0	0	1	0
304	__OUT_AC	7	0	638	4	9
305	__OUT_AC.__OUT_AC_type	1	0	0	1	0
306	__OUT_AB	7	0	640	4	1
307	__OUT_AB.__OUT_AB_type	1	0	0	1	0
308	__OUT_ABC	7	0	642	4	1
309	__OUT_ABC.__OUT_ABC_type	1	0	0	1	0
310	__OUT_BC	7	0	644	4	1
311	__OUT_BC.__OUT_BC_type	1	0	0	1	0
312	__RLSLastGoodRead1	7	0	646	4	2
313	__RLSLastGoodRead1.__RLSLastGoodRead1_type	1	0	0	1	0
314	__constStr0009	7	0	648	4	1
315	__constStr0009.__constStr0009_type	1	1	0	1	0
316	motors	7	0	650	4	26
317	motors.motors_type	1	0	0	1	0
318	__constStr0011	7	0	652	4	1
319	__constStr0011.__constStr0011_type	1	1	0	1	0
320	__constStr0010	7	0	654	4	1
321	__constStr0010.__constStr0010_type	1	1	0	1	0
322	__RLSLastGoodRead2	7	0	656	4	2
323	__RLSLastGoodRead2.__RLSLastGoodRead2_type	1	0	0	1	0
324	__RLSReadBuf1	7	0	658	4	15
325	__RLSReadBuf1.__RLSReadBuf1_type	1	0	0	1	0
326	__strbufreading	7	0	660	4	6
327	__strbufreading.__strbufreading_type	1	0	0	1	0
328	__RLSReadBuf2	7	0	662	4	8
329	__RLSReadBuf2.__RLSReadBuf2_type	1	0	0	1	0
#SOURCES
Clump	Line	PC	Source
0	10	0	#line 10 "C:\Users\ptan\Dropbox\robots\Final_Project_OS\Project\Main2.nxc"
0	11	0		subcall __initialize_global_data, ____initialize_global_data_return
0	10	2	#line 10 "C:\Users\ptan\Dropbox\robots\Final_Project_OS\Project\Main2.nxc"
0	11	2	#line 11 "C:\Users\ptan\Dropbox\robots\Final_Project_OS\Project\Main2.nxc"
0	12	2		exitto init
0	11	4	#line 11 "C:\Users\ptan\Dropbox\robots\Final_Project_OS\Project\Main2.nxc"
0	12	4		exit -1, -1
1	4794	0		brtst 4, __rotate_Done6, __rotate_angle6
1	4795	3		set ____RotateMotor6_sign_tmp, 0
1	4795	6		brtst EQ, __sign_6, __rotate_angle6
1	4795	9		set ____RotateMotor6_sign_tmp, -1
1	4795	12		brtst LT, __sign_6, __rotate_angle6
1	4795	15		set ____RotateMotor6_sign_tmp, 1
1	4795	18	__sign_6:	mov __rotate_thePower6, ____RotateMotor6_sign_tmp
1	4796	20		abs __rotate_theAngle6, __rotate_angle6
1	4797	23		mul __rotate_thePower6, __rotate_thePower6, __rotate_power6
1	4799	27		set __rotate_theUF6, 23
1	4800	30		brtst 4, __rotate_NoSync6, __rotate_sync6
1	4801	33		set __rotate_theOM6, 7
1	4802	36		set __rotate_theRM6, 2
1	4803	39		mov __rotate_theTurnPct6, __rotate_turnpct6
1	4804	41		brtst 4, __rotate_Start6, __rotate_theTurnPct6
1	4805	44		add __rotate_theUF6, __rotate_theUF6, __constVal32
1	4806	48		jmp __rotate_Start6
1	4808	50		set __rotate_theOM6, 3
1	4809	53		set __rotate_theRM6, 0
1	4810	56		set __rotate_theTurnPct6, 0
1	4812	59		set __rotate_theRS6, 32
1	4813	62		setout __rotate_ports6, 1, __rotate_theOM6, 8, __rotate_theRM6, 5, __rotate_theAngle6, 6, __rotate_theRS6, 10, __rotate_theRVP6, 11, __rotate_theRVI6, 12, __rotate_theRVD6, 2, __rotate_thePower6, 7, __rotate_turnpct6, 0, __rotate_theUF6
1	4816	85		index __rotate_firstPort6, __rotate_ports6, 65535
1	4818	89		getout __rotate_power6, __rotate_firstPort6, 2
1	4819	93		brtst 4, __rotate_doneRunning6, __rotate_power6
1	4820	96		getout __rotate_rs6, __rotate_firstPort6, 6
1	4821	100		brcmp 4, __rotate_Running6, __rotate_rs6, __constVal32
1	4823	104		brtst 4, __rotate_Reset6, __rotate_stop6
1	4825	107		set __rotate_theOM6, 7
1	4826	110		set __rotate_theUF6, 7
1	4827	113		setout __rotate_ports6, 1, __rotate_theOM6, 8, __constVal1, 6, __rotate_theRS6, 2, __constVal0, 5, __constVal0, 0, __rotate_theUF6
1	4829	128		getout __rotate_RotCount6, __rotate_firstPort6, 14
1	4831	132		mov __rotate_OldRotCount6, __rotate_RotCount6
1	4832	134		wait2 NA, __constVal50
1	4834	137		getout __rotate_RotCount6, __rotate_firstPort6, 14
1	4835	141		brcmp 5, __rotate_Stabilize6, __rotate_OldRotCount6, __rotate_RotCount6
1	4836	145		set __rotate_theOM6, 4
1	4837	148		setout __rotate_ports6, 8, __rotate_theRM6, 6, __constVal0, 1, __rotate_theOM6, 0, __constVal1
1	4840	159		brtst 4, __rotate_Done6, __rotate_theTurnPct6
1	4841	162		setout __rotate_ports6, 0, __constVal32
1	4843	167		subret ____RotateMotor6_return
2	4854	0		arrsize __rotate_rs6, __rotate_ports6
2	4855	3		brcmp 1, __rmvCallSub, __rotate_rs6, __constVal1
2	4857	7		index __rotate_rs6, __rotate_ports6, 65535
2	4858	11		brcmp 0, __rmvCallSub, __rotate_rs6, __constVal3
2	4859	15		brcmp 1, __rmvExit, __rotate_rs6, __constVal6
2	4861	19		mov __rotate_ports6, __OUT_AB
2	4862	21		brcmp 4, __rmvCallSub, __rotate_rs6, __constVal3
2	4863	25		mov __rotate_ports6, __OUT_AC
2	4864	27		brcmp 4, __rmvCallSub, __rotate_rs6, __constVal4
2	4865	31		mov __rotate_ports6, __OUT_BC
2	4866	33		brcmp 4, __rmvCallSub, __rotate_rs6, __constVal5
2	4867	37		mov __rotate_ports6, __OUT_ABC
2	4869	39		subcall __RotateMotor6, ____RotateMotor6_return
2	4871	42		subret ____RotateMotorVar_return
3	4885	0		setin __constVal1, __ResetSensorPort, 5
3	4887	4		getin __ResetSensorTmp, __ResetSensorPort, 5
3	4888	8		brtst 5, __SensorStillInvalid, __ResetSensorTmp
3	4889	11		subret ____ResetSensorSubroutine_return
4	5672	0	#pragma macro 25
4	5672	0		acquire __CLSWMutex0
4	5672	1		set __CLSWArgs0.Port, 0
4	5672	4		mov __CLSWArgs0.ReturnLen, __RLSBytesCount0
4	5672	6		mov __CLSWArgs0.Buffer, __RLSReadBuf0
4	5672	8		syscall 21, __CLSWArgs0
4	5672	11		mov __RLSBResult0, __CLSWArgs0.Result
4	5672	13		release __CLSWMutex0
4	5673	14	#line 5673 "NXTDefs.h"
4	5674	14		brtst 4, __RLSBReturn0, __RLSBytesCount0
4	5675	17		arrinit __RLSReadBuf0, __constVal0, __RLSBytesCount0
4	5676	21		brtst 5, __RLSBError0, __RLSBResult0
4	5677	24		set __RLSBIterations0, 4
4	5679	27	#pragma macro 23
4	5679	27		acquire __CLSCSMutex0
4	5679	28		set __CLSCSArgs0.Port, 0
4	5679	31		syscall 23, __CLSCSArgs0
4	5679	34		mov __RLSBytesCount0, __CLSCSArgs0.BytesReady
4	5679	36		mov __RLSBResult0, __CLSCSArgs0.Result
4	5679	38		release __CLSCSMutex0
4	5679	39	#line 5679 "NXTDefs.h"
4	5680	39		sub __RLSBIterations0, __RLSBIterations0, __constVal1
4	5681	43		brtst 2, __RLSBError0, __RLSBIterations0
4	5682	46		brtst 0, __RLSBError0, __RLSBResult0
4	5683	49		brtst 4, __RLSBReadyToRead0, __RLSBResult0
4	5685	52		wait2 NA, __constVal15
4	5686	55		jmp __RLSBDoCheckStatus0
4	5689	57	#pragma macro 25
4	5689	57		acquire __CLSRMutex0
4	5689	58		set __CLSRArgs0.Port, 0
4	5689	61		mov __CLSRArgs0.BufferLen, __RLSBytesCount0
4	5689	63		syscall 22, __CLSRArgs0
4	5689	66		mov __RLSReadBuf0, __CLSRArgs0.Buffer
4	5689	68		mov __RLSBResult0, __CLSRArgs0.Result
4	5689	70		release __CLSRMutex0
4	5689	71	#line 5689 "NXTDefs.h"
4	5690	71		brtst 5, __RLSBError0, __RLSBResult0
4	5691	74		mov __RLSLastGoodRead0, __RLSReadBuf0
4	5692	76		jmp __RLSBDone0
4	5694	78		mov __RLSReadBuf0, __RLSLastGoodRead0
4	5696	80		arrsize __RLSBytesCount0, __RLSReadBuf0
4	5698	83		subret ____ReadLSBytes0_return
5	5710	0	#pragma macro 25
5	5710	0		acquire __CLSWMutex1
5	5710	1		set __CLSWArgs1.Port, 1
5	5710	4		mov __CLSWArgs1.ReturnLen, __RLSBytesCount1
5	5710	6		mov __CLSWArgs1.Buffer, __RLSReadBuf1
5	5710	8		syscall 21, __CLSWArgs1
5	5710	11		mov __RLSBResult1, __CLSWArgs1.Result
5	5710	13		release __CLSWMutex1
5	5710	14	#line 5710 "NXTDefs.h"
5	5711	14		brtst 4, __RLSBReturn1, __RLSBytesCount1
5	5712	17		arrinit __RLSReadBuf1, __constVal0, __RLSBytesCount1
5	5713	21		brtst 5, __RLSBError1, __RLSBResult1
5	5714	24		set __RLSBIterations1, 4
5	5716	27	#pragma macro 23
5	5716	27		acquire __CLSCSMutex1
5	5716	28		set __CLSCSArgs1.Port, 1
5	5716	31		syscall 23, __CLSCSArgs1
5	5716	34		mov __RLSBytesCount1, __CLSCSArgs1.BytesReady
5	5716	36		mov __RLSBResult1, __CLSCSArgs1.Result
5	5716	38		release __CLSCSMutex1
5	5716	39	#line 5716 "NXTDefs.h"
5	5717	39		sub __RLSBIterations1, __RLSBIterations1, __constVal1
5	5718	43		brtst 2, __RLSBError1, __RLSBIterations1
5	5719	46		brtst 0, __RLSBError1, __RLSBResult1
5	5720	49		brtst 4, __RLSBReadyToRead1, __RLSBResult1
5	5722	52		wait2 NA, __constVal15
5	5723	55		jmp __RLSBDoCheckStatus1
5	5726	57	#pragma macro 25
5	5726	57		acquire __CLSRMutex1
5	5726	58		set __CLSRArgs1.Port, 1
5	5726	61		mov __CLSRArgs1.BufferLen, __RLSBytesCount1
5	5726	63		syscall 22, __CLSRArgs1
5	5726	66		mov __RLSReadBuf1, __CLSRArgs1.Buffer
5	5726	68		mov __RLSBResult1, __CLSRArgs1.Result
5	5726	70		release __CLSRMutex1
5	5726	71	#line 5726 "NXTDefs.h"
5	5727	71		brtst 5, __RLSBError1, __RLSBResult1
5	5728	74		mov __RLSLastGoodRead1, __RLSReadBuf1
5	5729	76		jmp __RLSBDone1
5	5731	78		mov __RLSReadBuf1, __RLSLastGoodRead1
5	5733	80		arrsize __RLSBytesCount1, __RLSReadBuf1
5	5735	83		subret ____ReadLSBytes1_return
6	5747	0	#pragma macro 25
6	5747	0		acquire __CLSWMutex2
6	5747	1		set __CLSWArgs2.Port, 2
6	5747	4		mov __CLSWArgs2.ReturnLen, __RLSBytesCount2
6	5747	6		mov __CLSWArgs2.Buffer, __RLSReadBuf2
6	5747	8		syscall 21, __CLSWArgs2
6	5747	11		mov __RLSBResult2, __CLSWArgs2.Result
6	5747	13		release __CLSWMutex2
6	5747	14	#line 5747 "NXTDefs.h"
6	5748	14		brtst 4, __RLSBReturn2, __RLSBytesCount2
6	5749	17		arrinit __RLSReadBuf2, __constVal0, __RLSBytesCount2
6	5750	21		brtst 5, __RLSBError2, __RLSBResult2
6	5751	24		set __RLSBIterations2, 4
6	5753	27	#pragma macro 23
6	5753	27		acquire __CLSCSMutex2
6	5753	28		set __CLSCSArgs2.Port, 2
6	5753	31		syscall 23, __CLSCSArgs2
6	5753	34		mov __RLSBytesCount2, __CLSCSArgs2.BytesReady
6	5753	36		mov __RLSBResult2, __CLSCSArgs2.Result
6	5753	38		release __CLSCSMutex2
6	5753	39	#line 5753 "NXTDefs.h"
6	5754	39		sub __RLSBIterations2, __RLSBIterations2, __constVal1
6	5755	43		brtst 2, __RLSBError2, __RLSBIterations2
6	5756	46		brtst 0, __RLSBError2, __RLSBResult2
6	5757	49		brtst 4, __RLSBReadyToRead2, __RLSBResult2
6	5759	52		wait2 NA, __constVal15
6	5760	55		jmp __RLSBDoCheckStatus2
6	5763	57	#pragma macro 25
6	5763	57		acquire __CLSRMutex2
6	5763	58		set __CLSRArgs2.Port, 2
6	5763	61		mov __CLSRArgs2.BufferLen, __RLSBytesCount2
6	5763	63		syscall 22, __CLSRArgs2
6	5763	66		mov __RLSReadBuf2, __CLSRArgs2.Buffer
6	5763	68		mov __RLSBResult2, __CLSRArgs2.Result
6	5763	70		release __CLSRMutex2
6	5763	71	#line 5763 "NXTDefs.h"
6	5764	71		brtst 5, __RLSBError2, __RLSBResult2
6	5765	74		mov __RLSLastGoodRead2, __RLSReadBuf2
6	5766	76		jmp __RLSBDone2
6	5768	78		mov __RLSReadBuf2, __RLSLastGoodRead2
6	5770	80		arrsize __RLSBytesCount2, __RLSReadBuf2
6	5772	83		subret ____ReadLSBytes2_return
7	6518	0	#line 6518 "NXCDefs.h"
7	6519	0		mov __signed_stack_001PlaySound, __PlaySound_7qG2_aCode_7qG2_000
7	6518	2	#line 6518 "NXCDefs.h"
7	6519	2	#line 6519 "NXCDefs.h"
7	6520	2		set __D0PlaySound, 0
7	6519	5	#line 6519 "NXCDefs.h"
7	6520	5		cmp 4, __zfPlaySound, __signed_stack_001PlaySound, __D0PlaySound
7	6519	9	#line 6519 "NXCDefs.h"
7	6520	9		mov __D0PlaySound, __zfPlaySound
7	6519	12	#line 6519 "NXCDefs.h"
7	6520	12		brtst 4, __NXC_Label_56, __zfPlaySound
7	6519	15	#line 6519 "NXCDefs.h"
7	6520	15		set __signed_stack_001PlaySound, 600
7	6519	18	#line 6519 "NXCDefs.h"
7	6519	18	#line 6519 "NXCDefs.h"
7	6520	18		set __signed_stack_002PlaySound, 200
7	6519	21	#line 6519 "NXCDefs.h"
7	6519	21	#line 6519 "NXCDefs.h"
7	6520	21		set __signed_stack_003PlaySound, 4
7	6519	24	#line 6519 "NXCDefs.h"
7	6519	24	#line 6519 "NXCDefs.h"
7	6520	24		set __D0PlaySound, 0
7	6520	27	#line 6520 "NXCDefs.h"
7	6521	27		acquire __SPTArgsMutex
7	6520	28	#line 6520 "NXCDefs.h"
7	6521	28		mov __SPTArgs.Frequency, __signed_stack_001PlaySound
7	6520	31	#line 6520 "NXCDefs.h"
7	6521	31		mov __SPTArgs.Duration, __signed_stack_002PlaySound
7	6520	34	#line 6520 "NXCDefs.h"
7	6521	34		mov __SPTArgs.Volume, __signed_stack_003PlaySound
7	6520	37	#line 6520 "NXCDefs.h"
7	6521	37		mov __SPTArgs.Loop, __D0PlaySound
7	6520	40	#line 6520 "NXCDefs.h"
7	6521	40		syscall 10, __SPTArgs
7	6520	43	#line 6520 "NXCDefs.h"
7	6521	43		mov __D0PlaySound, __SPTArgs.Result
7	6520	46	#line 6520 "NXCDefs.h"
7	6521	46		release __SPTArgsMutex
7	6520	47	#line 6520 "NXCDefs.h"
7	6520	47	#line 6520 "NXCDefs.h"
7	6521	47		jmp __NXC_Label_65
7	6520	49	#line 6520 "NXCDefs.h"
7	6521	49		mov __signed_stack_001PlaySound, __PlaySound_7qG2_aCode_7qG2_000
7	6520	51	#line 6520 "NXCDefs.h"
7	6521	51	#line 6521 "NXCDefs.h"
7	6522	51		set __D0PlaySound, 1
7	6521	54	#line 6521 "NXCDefs.h"
7	6522	54		cmp 4, __zfPlaySound, __signed_stack_001PlaySound, __D0PlaySound
7	6521	58	#line 6521 "NXCDefs.h"
7	6522	58		mov __D0PlaySound, __zfPlaySound
7	6522	61	#line 6522 "NXCDefs.h"
7	6523	61		brtst 4, __NXC_Label_68, __zfPlaySound
7	6522	64	#line 6522 "NXCDefs.h"
7	6523	64		set __signed_stack_001PlaySound, 600
7	6522	67	#line 6522 "NXCDefs.h"
7	6522	67	#line 6522 "NXCDefs.h"
7	6523	67		set __signed_stack_002PlaySound, 150
7	6522	70	#line 6522 "NXCDefs.h"
7	6522	70	#line 6522 "NXCDefs.h"
7	6523	70		set __signed_stack_003PlaySound, 4
7	6522	73	#line 6522 "NXCDefs.h"
7	6522	73	#line 6522 "NXCDefs.h"
7	6523	73		set __D0PlaySound, 0
7	6523	76	#line 6523 "NXCDefs.h"
7	6524	76		acquire __SPTArgsMutex
7	6523	77	#line 6523 "NXCDefs.h"
7	6524	77		mov __SPTArgs.Frequency, __signed_stack_001PlaySound
7	6523	80	#line 6523 "NXCDefs.h"
7	6524	80		mov __SPTArgs.Duration, __signed_stack_002PlaySound
7	6523	83	#line 6523 "NXCDefs.h"
7	6524	83		mov __SPTArgs.Volume, __signed_stack_003PlaySound
7	6523	86	#line 6523 "NXCDefs.h"
7	6524	86		mov __SPTArgs.Loop, __D0PlaySound
7	6523	89	#line 6523 "NXCDefs.h"
7	6524	89		syscall 10, __SPTArgs
7	6523	92	#line 6523 "NXCDefs.h"
7	6524	92		mov __D0PlaySound, __SPTArgs.Result
7	6523	95	#line 6523 "NXCDefs.h"
7	6524	95		release __SPTArgsMutex
7	6523	96	#line 6523 "NXCDefs.h"
7	6523	96	#line 6523 "NXCDefs.h"
7	6524	96		wait2 NA, __constVal200
7	6523	99	#line 6523 "NXCDefs.h"
7	6523	99	#line 6523 "NXCDefs.h"
7	6524	99	#line 6524 "NXCDefs.h"
7	6525	99		set __signed_stack_001PlaySound, 600
7	6524	102	#line 6524 "NXCDefs.h"
7	6524	102	#line 6524 "NXCDefs.h"
7	6525	102		set __signed_stack_002PlaySound, 150
7	6524	105	#line 6524 "NXCDefs.h"
7	6524	105	#line 6524 "NXCDefs.h"
7	6525	105		set __signed_stack_003PlaySound, 4
7	6524	108	#line 6524 "NXCDefs.h"
7	6524	108	#line 6524 "NXCDefs.h"
7	6525	108		set __D0PlaySound, 0
7	6525	111	#line 6525 "NXCDefs.h"
7	6526	111		acquire __SPTArgsMutex
7	6525	112	#line 6525 "NXCDefs.h"
7	6526	112		mov __SPTArgs.Frequency, __signed_stack_001PlaySound
7	6525	115	#line 6525 "NXCDefs.h"
7	6526	115		mov __SPTArgs.Duration, __signed_stack_002PlaySound
7	6525	118	#line 6525 "NXCDefs.h"
7	6526	118		mov __SPTArgs.Volume, __signed_stack_003PlaySound
7	6525	121	#line 6525 "NXCDefs.h"
7	6526	121		mov __SPTArgs.Loop, __D0PlaySound
7	6525	124	#line 6525 "NXCDefs.h"
7	6526	124		syscall 10, __SPTArgs
7	6525	127	#line 6525 "NXCDefs.h"
7	6526	127		mov __D0PlaySound, __SPTArgs.Result
7	6525	130	#line 6525 "NXCDefs.h"
7	6526	130		release __SPTArgsMutex
7	6525	131	#line 6525 "NXCDefs.h"
7	6525	131	#line 6525 "NXCDefs.h"
7	6526	131		wait2 NA, __constVal150
7	6525	134	#line 6525 "NXCDefs.h"
7	6525	134	#line 6525 "NXCDefs.h"
7	6527	134	#line 6527 "NXCDefs.h"
7	6528	134		jmp __NXC_Label_85
7	6527	136	#line 6527 "NXCDefs.h"
7	6528	136		mov __signed_stack_001PlaySound, __PlaySound_7qG2_aCode_7qG2_000
7	6527	138	#line 6527 "NXCDefs.h"
7	6528	138	#line 6528 "NXCDefs.h"
7	6529	138		set __D0PlaySound, 3
7	6528	141	#line 6528 "NXCDefs.h"
7	6529	141		cmp 4, __zfPlaySound, __signed_stack_001PlaySound, __D0PlaySound
7	6528	145	#line 6528 "NXCDefs.h"
7	6529	145		mov __D0PlaySound, __zfPlaySound
7	6528	148	#line 6528 "NXCDefs.h"
7	6529	148		brtst 4, __NXC_Label_88, __zfPlaySound
7	6528	151	#line 6528 "NXCDefs.h"
7	6529	151		set __PlaySound_7qG2_i_7qG2_001, 4
7	6528	154	#line 6528 "NXCDefs.h"
7	6528	154	#line 6528 "NXCDefs.h"
7	6529	154		mov __signed_stack_001PlaySound, __PlaySound_7qG2_i_7qG2_001
7	6528	156	#line 6528 "NXCDefs.h"
7	6528	156	#line 6528 "NXCDefs.h"
7	6529	156		set __D0PlaySound, 8
7	6528	159	#line 6528 "NXCDefs.h"
7	6529	159		cmp 0, __zfPlaySound, __signed_stack_001PlaySound, __D0PlaySound
7	6528	163	#line 6528 "NXCDefs.h"
7	6529	163		mov __D0PlaySound, __zfPlaySound
7	6528	166	#line 6528 "NXCDefs.h"
7	6529	166		brtst 4, __NXC_Label_90, __zfPlaySound
7	6528	169	#line 6528 "NXCDefs.h"
7	6529	169		jmp __NXC_Label_91
7	6529	171	#line 6529 "NXCDefs.h"
7	6530	171		add __PlaySound_7qG2_i_7qG2_001, __PlaySound_7qG2_i_7qG2_001, __constVal1
7	6530	175	#line 6530 "NXCDefs.h"
7	6531	175		jmp __NXC_Label_89
7	6530	177	#line 6530 "NXCDefs.h"
7	6530	177	#line 6530 "NXCDefs.h"
7	6530	177	#line 6530 "NXCDefs.h"
7	6530	177	#line 6530 "NXCDefs.h"
7	6531	177		mul __signed_stack_001PlaySound, __constVal523, __PlaySound_7qG2_i_7qG2_001
7	6530	181	#line 6530 "NXCDefs.h"
7	6530	181	#line 6530 "NXCDefs.h"
7	6530	181	#line 6530 "NXCDefs.h"
7	6531	181		div __signed_stack_001PlaySound, __signed_stack_001PlaySound, __constVal4
7	6530	185	#line 6530 "NXCDefs.h"
7	6530	185	#line 6530 "NXCDefs.h"
7	6531	185		set __signed_stack_002PlaySound, 100
7	6530	188	#line 6530 "NXCDefs.h"
7	6530	188	#line 6530 "NXCDefs.h"
7	6531	188		set __signed_stack_003PlaySound, 4
7	6530	191	#line 6530 "NXCDefs.h"
7	6530	191	#line 6530 "NXCDefs.h"
7	6531	191		set __D0PlaySound, 0
7	6531	194	#line 6531 "NXCDefs.h"
7	6532	194		acquire __SPTArgsMutex
7	6531	195	#line 6531 "NXCDefs.h"
7	6532	195		mov __SPTArgs.Frequency, __signed_stack_001PlaySound
7	6531	198	#line 6531 "NXCDefs.h"
7	6532	198		mov __SPTArgs.Duration, __signed_stack_002PlaySound
7	6531	201	#line 6531 "NXCDefs.h"
7	6532	201		mov __SPTArgs.Volume, __signed_stack_003PlaySound
7	6531	204	#line 6531 "NXCDefs.h"
7	6532	204		mov __SPTArgs.Loop, __D0PlaySound
7	6531	207	#line 6531 "NXCDefs.h"
7	6532	207		syscall 10, __SPTArgs
7	6531	210	#line 6531 "NXCDefs.h"
7	6532	210		mov __D0PlaySound, __SPTArgs.Result
7	6531	213	#line 6531 "NXCDefs.h"
7	6532	213		release __SPTArgsMutex
7	6531	214	#line 6531 "NXCDefs.h"
7	6531	214	#line 6531 "NXCDefs.h"
7	6532	214		wait2 NA, __constVal100
7	6531	217	#line 6531 "NXCDefs.h"
7	6531	217	#line 6531 "NXCDefs.h"
7	6533	217	#line 6533 "NXCDefs.h"
7	6534	217		jmp __NXC_Label_92
7	6533	219	#line 6533 "NXCDefs.h"
7	6533	219	#line 6533 "NXCDefs.h"
7	6534	219		jmp __NXC_Label_105
7	6533	221	#line 6533 "NXCDefs.h"
7	6534	221		mov __signed_stack_001PlaySound, __PlaySound_7qG2_aCode_7qG2_000
7	6533	223	#line 6533 "NXCDefs.h"
7	6534	223	#line 6534 "NXCDefs.h"
7	6535	223		set __D0PlaySound, 2
7	6534	226	#line 6534 "NXCDefs.h"
7	6535	226		cmp 4, __zfPlaySound, __signed_stack_001PlaySound, __D0PlaySound
7	6534	230	#line 6534 "NXCDefs.h"
7	6535	230		mov __D0PlaySound, __zfPlaySound
7	6534	233	#line 6534 "NXCDefs.h"
7	6535	233		brtst 4, __NXC_Label_108, __zfPlaySound
7	6534	236	#line 6534 "NXCDefs.h"
7	6535	236		set __PlaySound_7qG2_i_7qG2_001, 7
7	6534	239	#line 6534 "NXCDefs.h"
7	6534	239	#line 6534 "NXCDefs.h"
7	6535	239		mov __signed_stack_001PlaySound, __PlaySound_7qG2_i_7qG2_001
7	6534	241	#line 6534 "NXCDefs.h"
7	6534	241	#line 6534 "NXCDefs.h"
7	6535	241		set __D0PlaySound, 3
7	6534	244	#line 6534 "NXCDefs.h"
7	6535	244		cmp 1, __zfPlaySound, __signed_stack_001PlaySound, __D0PlaySound
7	6534	248	#line 6534 "NXCDefs.h"
7	6535	248		mov __D0PlaySound, __zfPlaySound
7	6534	251	#line 6534 "NXCDefs.h"
7	6535	251		brtst 4, __NXC_Label_110, __zfPlaySound
7	6534	254	#line 6534 "NXCDefs.h"
7	6535	254		jmp __NXC_Label_111
7	6535	256	#line 6535 "NXCDefs.h"
7	6536	256		sub __PlaySound_7qG2_i_7qG2_001, __PlaySound_7qG2_i_7qG2_001, __constVal1
7	6536	260	#line 6536 "NXCDefs.h"
7	6537	260		jmp __NXC_Label_109
7	6536	262	#line 6536 "NXCDefs.h"
7	6536	262	#line 6536 "NXCDefs.h"
7	6536	262	#line 6536 "NXCDefs.h"
7	6536	262	#line 6536 "NXCDefs.h"
7	6537	262		mul __signed_stack_001PlaySound, __constVal523, __PlaySound_7qG2_i_7qG2_001
7	6536	266	#line 6536 "NXCDefs.h"
7	6536	266	#line 6536 "NXCDefs.h"
7	6536	266	#line 6536 "NXCDefs.h"
7	6537	266		div __signed_stack_001PlaySound, __signed_stack_001PlaySound, __constVal4
7	6536	270	#line 6536 "NXCDefs.h"
7	6536	270	#line 6536 "NXCDefs.h"
7	6537	270		set __signed_stack_002PlaySound, 100
7	6536	273	#line 6536 "NXCDefs.h"
7	6536	273	#line 6536 "NXCDefs.h"
7	6537	273		set __signed_stack_003PlaySound, 4
7	6536	276	#line 6536 "NXCDefs.h"
7	6536	276	#line 6536 "NXCDefs.h"
7	6537	276		set __D0PlaySound, 0
7	6537	279	#line 6537 "NXCDefs.h"
7	6538	279		acquire __SPTArgsMutex
7	6537	280	#line 6537 "NXCDefs.h"
7	6538	280		mov __SPTArgs.Frequency, __signed_stack_001PlaySound
7	6537	283	#line 6537 "NXCDefs.h"
7	6538	283		mov __SPTArgs.Duration, __signed_stack_002PlaySound
7	6537	286	#line 6537 "NXCDefs.h"
7	6538	286		mov __SPTArgs.Volume, __signed_stack_003PlaySound
7	6537	289	#line 6537 "NXCDefs.h"
7	6538	289		mov __SPTArgs.Loop, __D0PlaySound
7	6537	292	#line 6537 "NXCDefs.h"
7	6538	292		syscall 10, __SPTArgs
7	6537	295	#line 6537 "NXCDefs.h"
7	6538	295		mov __D0PlaySound, __SPTArgs.Result
7	6537	298	#line 6537 "NXCDefs.h"
7	6538	298		release __SPTArgsMutex
7	6537	299	#line 6537 "NXCDefs.h"
7	6537	299	#line 6537 "NXCDefs.h"
7	6538	299		wait2 NA, __constVal100
7	6537	302	#line 6537 "NXCDefs.h"
7	6537	302	#line 6537 "NXCDefs.h"
7	6539	302	#line 6539 "NXCDefs.h"
7	6540	302		jmp __NXC_Label_112
7	6539	304	#line 6539 "NXCDefs.h"
7	6539	304	#line 6539 "NXCDefs.h"
7	6540	304		jmp __NXC_Label_125
7	6539	306	#line 6539 "NXCDefs.h"
7	6540	306		mov __signed_stack_001PlaySound, __PlaySound_7qG2_aCode_7qG2_000
7	6539	308	#line 6539 "NXCDefs.h"
7	6540	308	#line 6540 "NXCDefs.h"
7	6541	308		set __D0PlaySound, 4
7	6540	311	#line 6540 "NXCDefs.h"
7	6541	311		cmp 4, __zfPlaySound, __signed_stack_001PlaySound, __D0PlaySound
7	6540	315	#line 6540 "NXCDefs.h"
7	6541	315		mov __D0PlaySound, __zfPlaySound
7	6541	318	#line 6541 "NXCDefs.h"
7	6542	318		brtst 4, __NXC_Label_128, __zfPlaySound
7	6541	321	#line 6541 "NXCDefs.h"
7	6542	321		set __signed_stack_001PlaySound, 100
7	6541	324	#line 6541 "NXCDefs.h"
7	6541	324	#line 6541 "NXCDefs.h"
7	6542	324		set __signed_stack_002PlaySound, 500
7	6541	327	#line 6541 "NXCDefs.h"
7	6541	327	#line 6541 "NXCDefs.h"
7	6542	327		set __signed_stack_003PlaySound, 4
7	6541	330	#line 6541 "NXCDefs.h"
7	6541	330	#line 6541 "NXCDefs.h"
7	6542	330		set __D0PlaySound, 0
7	6542	333	#line 6542 "NXCDefs.h"
7	6543	333		acquire __SPTArgsMutex
7	6542	334	#line 6542 "NXCDefs.h"
7	6543	334		mov __SPTArgs.Frequency, __signed_stack_001PlaySound
7	6542	337	#line 6542 "NXCDefs.h"
7	6543	337		mov __SPTArgs.Duration, __signed_stack_002PlaySound
7	6542	340	#line 6542 "NXCDefs.h"
7	6543	340		mov __SPTArgs.Volume, __signed_stack_003PlaySound
7	6542	343	#line 6542 "NXCDefs.h"
7	6543	343		mov __SPTArgs.Loop, __D0PlaySound
7	6542	346	#line 6542 "NXCDefs.h"
7	6543	346		syscall 10, __SPTArgs
7	6542	349	#line 6542 "NXCDefs.h"
7	6543	349		mov __D0PlaySound, __SPTArgs.Result
7	6542	352	#line 6542 "NXCDefs.h"
7	6543	352		release __SPTArgsMutex
7	6542	353	#line 6542 "NXCDefs.h"
7	6542	353	#line 6542 "NXCDefs.h"
7	6543	353		wait2 NA, __constVal500
7	6542	356	#line 6542 "NXCDefs.h"
7	6542	356	#line 6542 "NXCDefs.h"
7	6544	356	#line 6544 "NXCDefs.h"
7	6545	356		jmp __NXC_Label_137
7	6544	358	#line 6544 "NXCDefs.h"
7	6545	358		mov __signed_stack_001PlaySound, __PlaySound_7qG2_aCode_7qG2_000
7	6544	360	#line 6544 "NXCDefs.h"
7	6545	360	#line 6545 "NXCDefs.h"
7	6546	360		set __D0PlaySound, 5
7	6545	363	#line 6545 "NXCDefs.h"
7	6546	363		cmp 4, __zfPlaySound, __signed_stack_001PlaySound, __D0PlaySound
7	6545	367	#line 6545 "NXCDefs.h"
7	6546	367		mov __D0PlaySound, __zfPlaySound
7	6545	370	#line 6545 "NXCDefs.h"
7	6546	370		brtst 4, __NXC_Label_140, __zfPlaySound
7	6545	373	#line 6545 "NXCDefs.h"
7	6546	373		set __PlaySound_7qG2_i_7qG2_001, 4
7	6545	376	#line 6545 "NXCDefs.h"
7	6545	376	#line 6545 "NXCDefs.h"
7	6546	376		mov __signed_stack_001PlaySound, __PlaySound_7qG2_i_7qG2_001
7	6545	378	#line 6545 "NXCDefs.h"
7	6545	378	#line 6545 "NXCDefs.h"
7	6546	378		set __D0PlaySound, 8
7	6545	381	#line 6545 "NXCDefs.h"
7	6546	381		cmp 0, __zfPlaySound, __signed_stack_001PlaySound, __D0PlaySound
7	6545	385	#line 6545 "NXCDefs.h"
7	6546	385		mov __D0PlaySound, __zfPlaySound
7	6545	388	#line 6545 "NXCDefs.h"
7	6546	388		brtst 4, __NXC_Label_142, __zfPlaySound
7	6545	391	#line 6545 "NXCDefs.h"
7	6546	391		jmp __NXC_Label_143
7	6546	393	#line 6546 "NXCDefs.h"
7	6547	393		add __PlaySound_7qG2_i_7qG2_001, __PlaySound_7qG2_i_7qG2_001, __constVal1
7	6547	397	#line 6547 "NXCDefs.h"
7	6548	397		jmp __NXC_Label_141
7	6547	399	#line 6547 "NXCDefs.h"
7	6547	399	#line 6547 "NXCDefs.h"
7	6547	399	#line 6547 "NXCDefs.h"
7	6547	399	#line 6547 "NXCDefs.h"
7	6548	399		mul __signed_stack_001PlaySound, __constVal523, __PlaySound_7qG2_i_7qG2_001
7	6547	403	#line 6547 "NXCDefs.h"
7	6547	403	#line 6547 "NXCDefs.h"
7	6547	403	#line 6547 "NXCDefs.h"
7	6548	403		div __signed_stack_001PlaySound, __signed_stack_001PlaySound, __constVal4
7	6547	407	#line 6547 "NXCDefs.h"
7	6547	407	#line 6547 "NXCDefs.h"
7	6548	407		set __signed_stack_002PlaySound, 50
7	6547	410	#line 6547 "NXCDefs.h"
7	6547	410	#line 6547 "NXCDefs.h"
7	6548	410		set __signed_stack_003PlaySound, 4
7	6547	413	#line 6547 "NXCDefs.h"
7	6547	413	#line 6547 "NXCDefs.h"
7	6548	413		set __D0PlaySound, 0
7	6548	416	#line 6548 "NXCDefs.h"
7	6549	416		acquire __SPTArgsMutex
7	6548	417	#line 6548 "NXCDefs.h"
7	6549	417		mov __SPTArgs.Frequency, __signed_stack_001PlaySound
7	6548	420	#line 6548 "NXCDefs.h"
7	6549	420		mov __SPTArgs.Duration, __signed_stack_002PlaySound
7	6548	423	#line 6548 "NXCDefs.h"
7	6549	423		mov __SPTArgs.Volume, __signed_stack_003PlaySound
7	6548	426	#line 6548 "NXCDefs.h"
7	6549	426		mov __SPTArgs.Loop, __D0PlaySound
7	6548	429	#line 6548 "NXCDefs.h"
7	6549	429		syscall 10, __SPTArgs
7	6548	432	#line 6548 "NXCDefs.h"
7	6549	432		mov __D0PlaySound, __SPTArgs.Result
7	6548	435	#line 6548 "NXCDefs.h"
7	6549	435		release __SPTArgsMutex
7	6548	436	#line 6548 "NXCDefs.h"
7	6548	436	#line 6548 "NXCDefs.h"
7	6549	436		wait2 NA, __constVal50
7	6548	439	#line 6548 "NXCDefs.h"
7	6548	439	#line 6548 "NXCDefs.h"
7	6560	439	#line 6560 "NXCDefs.h"
7	6561	439		jmp __NXC_Label_144
7	6560	441	#line 6560 "NXCDefs.h"
7	6560	441	#line 6560 "NXCDefs.h"
7	6560	441	#line 6560 "NXCDefs.h"
7	6560	441	#line 6560 "NXCDefs.h"
7	6560	441	#line 6560 "NXCDefs.h"
7	6560	441	#line 6560 "NXCDefs.h"
7	6560	441	#line 6560 "NXCDefs.h"
7	6560	441	#line 6560 "NXCDefs.h"
7	6561	441		subret __PlaySound_return
8	28	0	#line 28 "C:\Users\ptan\Dropbox\robots\Final_Project_OS\Project\.\Header.nxc"
8	29	0		set __Wait_7qG2_ms_7qG2_000_inline_stopRotor, 400
8	28	3	#line 28 "C:\Users\ptan\Dropbox\robots\Final_Project_OS\Project\.\Header.nxc"
8	7921	3	#line 7921 "NXCDefs.h"
8	7922	3		wait2 NA, __Wait_7qG2_ms_7qG2_000_inline_stopRotor
8	7921	6	#line 7921 "NXCDefs.h"
8	29	6	#line 29 "C:\Users\ptan\Dropbox\robots\Final_Project_OS\Project\.\Header.nxc"
8	30	6	#line 30 "C:\Users\ptan\Dropbox\robots\Final_Project_OS\Project\.\Header.nxc"
8	31	6	#pragma macro 7
8	31	6		setout GMotor, 2, __constVal0, 1, __constVal3, 8, __constVal0, 6, __constVal32, 7, __constVal0, 5, __constVal0, 10, __constVal96, 11, __constVal32, 12, __constVal32, 0, __constVal63
8	5903	29	#line 5903 "C:\Users\ptan\Dropbox\robots\Final_Project_OS\Project\.\Header.nxc"
8	30	29	#line 30 "C:\Users\ptan\Dropbox\robots\Final_Project_OS\Project\.\Header.nxc"
8	31	29	#line 31 "C:\Users\ptan\Dropbox\robots\Final_Project_OS\Project\.\Header.nxc"
8	32	29		subret __stopRotor_return
9	33	0	#line 33 "C:\Users\ptan\Dropbox\robots\Final_Project_OS\Project\.\Header.nxc"
9	34	0		set __signed_stack_001close, 70
9	33	3	#line 33 "C:\Users\ptan\Dropbox\robots\Final_Project_OS\Project\.\Header.nxc"
9	33	3	#line 33 "C:\Users\ptan\Dropbox\robots\Final_Project_OS\Project\.\Header.nxc"
9	34	3		set __signed_stack_002close, 180
9	33	6	#line 33 "C:\Users\ptan\Dropbox\robots\Final_Project_OS\Project\.\Header.nxc"
9	33	6	#line 33 "C:\Users\ptan\Dropbox\robots\Final_Project_OS\Project\.\Header.nxc"
9	34	6		set __signed_stack_003close, 0
9	33	9	#line 33 "C:\Users\ptan\Dropbox\robots\Final_Project_OS\Project\.\Header.nxc"
9	33	9	#line 33 "C:\Users\ptan\Dropbox\robots\Final_Project_OS\Project\.\Header.nxc"
9	34	9		set __signed_stack_004close, 0
9	33	12	#line 33 "C:\Users\ptan\Dropbox\robots\Final_Project_OS\Project\.\Header.nxc"
9	33	12	#line 33 "C:\Users\ptan\Dropbox\robots\Final_Project_OS\Project\.\Header.nxc"
9	34	12		set __D0close, 1
9	34	15	#line 34 "C:\Users\ptan\Dropbox\robots\Final_Project_OS\Project\.\Header.nxc"
9	35	15	#pragma macro 22
9	35	15		acquire __rotateMutex0
9	35	16		acquire __rotateMutex1
9	35	17		acquire __rotateMutex2
9	35	18		arrbuild __rotate_ports6, GMotor
9	35	22		mov __rotate_power6, __signed_stack_001close
9	35	24		mov __rotate_angle6, __signed_stack_002close
9	35	26		mov __rotate_turnpct6, __signed_stack_003close
9	35	28		mov __rotate_sync6, __signed_stack_004close
9	35	30		mov __rotate_stop6, __D0close
9	35	32		mov __rotate_theRVP6, __constVal32
9	35	34		mov __rotate_theRVI6, __constVal0
9	35	36		mov __rotate_theRVD6, __constVal96
9	35	38		subcall __RotateMotorVar, ____RotateMotorVar_return
9	35	41		release __rotateMutex2
9	35	42		release __rotateMutex1
9	35	43		release __rotateMutex0
9	5939	44	#line 5939 "C:\Users\ptan\Dropbox\robots\Final_Project_OS\Project\.\Header.nxc"
9	34	44	#line 34 "C:\Users\ptan\Dropbox\robots\Final_Project_OS\Project\.\Header.nxc"
9	36	44	#line 36 "C:\Users\ptan\Dropbox\robots\Final_Project_OS\Project\.\Header.nxc"
9	37	44		subcall stopRotor, __stopRotor_return
9	36	46	#line 36 "C:\Users\ptan\Dropbox\robots\Final_Project_OS\Project\.\Header.nxc"
9	38	46	#line 38 "C:\Users\ptan\Dropbox\robots\Final_Project_OS\Project\.\Header.nxc"
9	39	46		subret __close_return
10	40	0	#line 40 "C:\Users\ptan\Dropbox\robots\Final_Project_OS\Project\.\Header.nxc"
10	41	0		set __signed_stack_001open, 100
10	40	3	#line 40 "C:\Users\ptan\Dropbox\robots\Final_Project_OS\Project\.\Header.nxc"
10	40	3	#line 40 "C:\Users\ptan\Dropbox\robots\Final_Project_OS\Project\.\Header.nxc"
10	40	3	#line 40 "C:\Users\ptan\Dropbox\robots\Final_Project_OS\Project\.\Header.nxc"
10	40	3	#line 40 "C:\Users\ptan\Dropbox\robots\Final_Project_OS\Project\.\Header.nxc"
10	40	3	#line 40 "C:\Users\ptan\Dropbox\robots\Final_Project_OS\Project\.\Header.nxc"
10	41	3		sub __D0open, __constVal0, __open_7qG2_angle_7qG2_000
10	41	7	#line 41 "C:\Users\ptan\Dropbox\robots\Final_Project_OS\Project\.\Header.nxc"
10	42	7	#pragma macro 22
10	42	7		acquire __rotateMutex0
10	42	8		acquire __rotateMutex1
10	42	9		acquire __rotateMutex2
10	42	10		arrbuild __rotate_ports6, GMotor
10	42	14		mov __rotate_power6, __signed_stack_001open
10	42	16		mov __rotate_angle6, __D0open
10	42	18		mov __rotate_turnpct6, __constVal0
10	42	20		mov __rotate_sync6, __constVal0
10	42	22		mov __rotate_stop6, __constVal1
10	42	24		mov __rotate_theRVP6, __constVal32
10	42	26		mov __rotate_theRVI6, __constVal0
10	42	28		mov __rotate_theRVD6, __constVal96
10	42	30		subcall __RotateMotorVar, ____RotateMotorVar_return
10	42	33		release __rotateMutex2
10	42	34		release __rotateMutex1
10	42	35		release __rotateMutex0
10	5970	36	#line 5970 "C:\Users\ptan\Dropbox\robots\Final_Project_OS\Project\.\Header.nxc"
10	41	36	#line 41 "C:\Users\ptan\Dropbox\robots\Final_Project_OS\Project\.\Header.nxc"
10	43	36	#line 43 "C:\Users\ptan\Dropbox\robots\Final_Project_OS\Project\.\Header.nxc"
10	44	36		subcall stopRotor, __stopRotor_return
10	43	38	#line 43 "C:\Users\ptan\Dropbox\robots\Final_Project_OS\Project\.\Header.nxc"
10	46	38	#line 46 "C:\Users\ptan\Dropbox\robots\Final_Project_OS\Project\.\Header.nxc"
10	47	38		subret __open_return
11	16	0	#line 16 "C:\Users\ptan\Dropbox\robots\Final_Project_OS\Project\Main2.nxc"
11	17	0		set __SetSensorLowspeed_7qG2_port_7qG2_000_inline_init, 2
11	16	3	#line 16 "C:\Users\ptan\Dropbox\robots\Final_Project_OS\Project\Main2.nxc"
11	17	3	#line 17 "C:\Users\ptan\Dropbox\robots\Final_Project_OS\Project\Main2.nxc"
11	18	3		mov __SetSensorLowspeed_7qG2_bIsPowered_7qG2_000_inline_init, __constVal1
11	3758	5	#line 3758 "NXCDefs.h"
11	3759	5		mov __SetSensorType_7qG2_port_7qG2_000_inline_SetSensorLowspeed_inline_init, __SetSensorLowspeed_7qG2_port_7qG2_000_inline_init
11	3758	7	#line 3758 "NXCDefs.h"
11	3758	7	#line 3758 "NXCDefs.h"
11	3759	7		mov __DU0SetSensorLowspeed_inline_init, __SetSensorLowspeed_7qG2_bIsPowered_7qG2_000_inline_init
11	3758	10	#line 3758 "NXCDefs.h"
11	3759	10		tst 5, __zfSetSensorLowspeed_inline_init, __DU0SetSensorLowspeed_inline_init
11	3758	13	#line 3758 "NXCDefs.h"
11	3759	13		brtst 4, __004__NXC_Label_36, __zfSetSensorLowspeed_inline_init
11	3758	16	#line 3758 "NXCDefs.h"
11	3759	16		set __D0SetSensorLowspeed_inline_init, 11
11	3758	19	#line 3758 "NXCDefs.h"
11	3759	19		jmp __004__NXC_Label_37
11	3758	21	#line 3758 "NXCDefs.h"
11	3759	21		set __D0SetSensorLowspeed_inline_init, 10
11	3758	24	#line 3758 "NXCDefs.h"
11	3759	24		mov __SetSensorType_7qG2_type_7qG2_000_inline_SetSensorLowspeed_inline_init, __D0SetSensorLowspeed_inline_init
11	3663	27	#line 3663 "NXCDefs.h"
11	3664	27		setin __SetSensorType_7qG2_type_7qG2_000_inline_SetSensorLowspeed_inline_init, __SetSensorType_7qG2_port_7qG2_000_inline_SetSensorLowspeed_inline_init, 0
11	3663	31	#line 3663 "NXCDefs.h"
11	3759	31	#line 3759 "NXCDefs.h"
11	3759	31	#line 3759 "NXCDefs.h"
11	3760	31		mov __SetSensorMode_7qG2_port_7qG2_000_inline_SetSensorLowspeed_inline_init, __SetSensorLowspeed_7qG2_port_7qG2_000_inline_init
11	3759	33	#line 3759 "NXCDefs.h"
11	3759	33	#line 3759 "NXCDefs.h"
11	3760	33		set __SetSensorMode_7qG2_mode_7qG2_000_inline_SetSensorLowspeed_inline_init, 0
11	3759	36	#line 3759 "NXCDefs.h"
11	3676	36	#line 3676 "NXCDefs.h"
11	3677	36		setin __SetSensorMode_7qG2_mode_7qG2_000_inline_SetSensorLowspeed_inline_init, __SetSensorMode_7qG2_port_7qG2_000_inline_SetSensorLowspeed_inline_init, 1
11	3676	40	#line 3676 "NXCDefs.h"
11	3760	40	#line 3760 "NXCDefs.h"
11	3760	40	#line 3760 "NXCDefs.h"
11	3761	40		mov __ResetSensor_7qG2_port_7qG2_000_inline_SetSensorLowspeed_inline_init, __SetSensorLowspeed_7qG2_port_7qG2_000_inline_init
11	3760	42	#line 3760 "NXCDefs.h"
11	3694	42	#line 3694 "NXCDefs.h"
11	3695	42	#pragma macro 4
11	3695	42		acquire __ResetSensorMutex
11	3695	43		mov __ResetSensorPort, __ResetSensor_7qG2_port_7qG2_000_inline_SetSensorLowspeed_inline_init
11	3695	45		subcall __ResetSensorSubroutine, ____ResetSensorSubroutine_return
11	3695	48		release __ResetSensorMutex
11	6131	49	#line 6131 "NXCDefs.h"
11	3694	49	#line 3694 "NXCDefs.h"
11	3761	49	#line 3761 "NXCDefs.h"
11	17	49	#line 17 "C:\Users\ptan\Dropbox\robots\Final_Project_OS\Project\Main2.nxc"
11	17	49	#line 17 "C:\Users\ptan\Dropbox\robots\Final_Project_OS\Project\Main2.nxc"
11	18	49		set __SetSensorLowspeed_7qG2_port_7qG2_000_inline_init, 1
11	17	52	#line 17 "C:\Users\ptan\Dropbox\robots\Final_Project_OS\Project\Main2.nxc"
11	19	52	#line 19 "C:\Users\ptan\Dropbox\robots\Final_Project_OS\Project\Main2.nxc"
11	20	52		mov __SetSensorLowspeed_7qG2_bIsPowered_7qG2_000_inline_init, __constVal1
11	3758	54	#line 3758 "NXCDefs.h"
11	3759	54		mov __SetSensorType_7qG2_port_7qG2_000_inline_SetSensorLowspeed_inline_init, __SetSensorLowspeed_7qG2_port_7qG2_000_inline_init
11	3758	56	#line 3758 "NXCDefs.h"
11	3758	56	#line 3758 "NXCDefs.h"
11	3759	56		mov __DU0SetSensorLowspeed_inline_init, __SetSensorLowspeed_7qG2_bIsPowered_7qG2_000_inline_init
11	3758	59	#line 3758 "NXCDefs.h"
11	3759	59		tst 5, __zfSetSensorLowspeed_inline_init, __DU0SetSensorLowspeed_inline_init
11	3758	62	#line 3758 "NXCDefs.h"
11	3759	62		brtst 4, __005__NXC_Label_36, __zfSetSensorLowspeed_inline_init
11	3758	65	#line 3758 "NXCDefs.h"
11	3759	65		set __D0SetSensorLowspeed_inline_init, 11
11	3758	68	#line 3758 "NXCDefs.h"
11	3759	68		jmp __005__NXC_Label_37
11	3758	70	#line 3758 "NXCDefs.h"
11	3759	70		set __D0SetSensorLowspeed_inline_init, 10
11	3758	73	#line 3758 "NXCDefs.h"
11	3759	73		mov __SetSensorType_7qG2_type_7qG2_000_inline_SetSensorLowspeed_inline_init, __D0SetSensorLowspeed_inline_init
11	3663	76	#line 3663 "NXCDefs.h"
11	3664	76		setin __SetSensorType_7qG2_type_7qG2_000_inline_SetSensorLowspeed_inline_init, __SetSensorType_7qG2_port_7qG2_000_inline_SetSensorLowspeed_inline_init, 0
11	3663	80	#line 3663 "NXCDefs.h"
11	3759	80	#line 3759 "NXCDefs.h"
11	3759	80	#line 3759 "NXCDefs.h"
11	3760	80		mov __SetSensorMode_7qG2_port_7qG2_000_inline_SetSensorLowspeed_inline_init, __SetSensorLowspeed_7qG2_port_7qG2_000_inline_init
11	3759	82	#line 3759 "NXCDefs.h"
11	3759	82	#line 3759 "NXCDefs.h"
11	3760	82		set __SetSensorMode_7qG2_mode_7qG2_000_inline_SetSensorLowspeed_inline_init, 0
11	3759	85	#line 3759 "NXCDefs.h"
11	3676	85	#line 3676 "NXCDefs.h"
11	3677	85		setin __SetSensorMode_7qG2_mode_7qG2_000_inline_SetSensorLowspeed_inline_init, __SetSensorMode_7qG2_port_7qG2_000_inline_SetSensorLowspeed_inline_init, 1
11	3676	89	#line 3676 "NXCDefs.h"
11	3760	89	#line 3760 "NXCDefs.h"
11	3760	89	#line 3760 "NXCDefs.h"
11	3761	89		mov __ResetSensor_7qG2_port_7qG2_000_inline_SetSensorLowspeed_inline_init, __SetSensorLowspeed_7qG2_port_7qG2_000_inline_init
11	3760	91	#line 3760 "NXCDefs.h"
11	3694	91	#line 3694 "NXCDefs.h"
11	3695	91	#pragma macro 4
11	3695	91		acquire __ResetSensorMutex
11	3695	92		mov __ResetSensorPort, __ResetSensor_7qG2_port_7qG2_000_inline_SetSensorLowspeed_inline_init
11	3695	94		subcall __ResetSensorSubroutine, ____ResetSensorSubroutine_return
11	3695	97		release __ResetSensorMutex
11	6198	98	#line 6198 "NXCDefs.h"
11	3694	98	#line 3694 "NXCDefs.h"
11	3761	98	#line 3761 "NXCDefs.h"
11	19	98	#line 19 "C:\Users\ptan\Dropbox\robots\Final_Project_OS\Project\Main2.nxc"
11	19	98	#line 19 "C:\Users\ptan\Dropbox\robots\Final_Project_OS\Project\Main2.nxc"
11	20	98		set __SetSensorTouch_7qG2_port_7qG2_000_inline_init, 3
11	19	101	#line 19 "C:\Users\ptan\Dropbox\robots\Final_Project_OS\Project\Main2.nxc"
11	3718	101	#line 3718 "NXCDefs.h"
11	3719	101	#pragma macro 6
11	3719	101		setin __constVal1, __SetSensorTouch_7qG2_port_7qG2_000_inline_init, 0
11	3719	105		setin __constVal32, __SetSensorTouch_7qG2_port_7qG2_000_inline_init, 1
11	3719	109		acquire __ResetSensorMutex
11	3719	110		mov __ResetSensorPort, __SetSensorTouch_7qG2_port_7qG2_000_inline_init
11	3719	112		subcall __ResetSensorSubroutine, ____ResetSensorSubroutine_return
11	3719	115		release __ResetSensorMutex
11	6213	116	#line 6213 "NXCDefs.h"
11	3718	116	#line 3718 "NXCDefs.h"
11	20	116	#line 20 "C:\Users\ptan\Dropbox\robots\Final_Project_OS\Project\Main2.nxc"
11	20	116	#line 20 "C:\Users\ptan\Dropbox\robots\Final_Project_OS\Project\Main2.nxc"
11	21	116		set __ClearSensor_7qG2_port_7qG2_000_inline_init, 0
11	20	119	#line 20 "C:\Users\ptan\Dropbox\robots\Final_Project_OS\Project\Main2.nxc"
11	3684	119	#line 3684 "NXCDefs.h"
11	3685	119		setin __constVal0, __ClearSensor_7qG2_port_7qG2_000_inline_init, 4
11	3684	123	#line 3684 "NXCDefs.h"
11	21	123	#line 21 "C:\Users\ptan\Dropbox\robots\Final_Project_OS\Project\Main2.nxc"
11	21	123	#line 21 "C:\Users\ptan\Dropbox\robots\Final_Project_OS\Project\Main2.nxc"
11	22	123	#pragma macro 30
11	22	123		acquire __RLSBmutex1
11	22	124		mov __RLSReadBuf1, __RLSBbufLSWrite1
11	22	126		set __RLSBytesCount1, 2
11	22	129		subcall __ReadLSBytes1, ____ReadLSBytes1_return
11	22	132		index __D0init, __RLSReadBuf1, 65535
11	22	136		index __RLSBytesCount1, __RLSReadBuf1, __constVal1
11	22	140		add __D0init, __D0init, __D0init
11	22	144		add __D0init, __D0init, __RLSBytesCount1
11	22	148		release __RLSBmutex1
11	6231	149	#line 6231 "C:\Users\ptan\Dropbox\robots\Final_Project_OS\Project\Main2.nxc"
11	21	149	#line 21 "C:\Users\ptan\Dropbox\robots\Final_Project_OS\Project\Main2.nxc"
11	22	149		mov ownGoal, __D0init
11	21	151	#line 21 "C:\Users\ptan\Dropbox\robots\Final_Project_OS\Project\Main2.nxc"
11	21	151	#line 21 "C:\Users\ptan\Dropbox\robots\Final_Project_OS\Project\Main2.nxc"
11	22	151	#line 22 "C:\Users\ptan\Dropbox\robots\Final_Project_OS\Project\Main2.nxc"
11	23	151		set __Wait_7qG2_ms_7qG2_000_inline_init, 100
11	22	154	#line 22 "C:\Users\ptan\Dropbox\robots\Final_Project_OS\Project\Main2.nxc"
11	7921	154	#line 7921 "NXCDefs.h"
11	7922	154		wait2 NA, __Wait_7qG2_ms_7qG2_000_inline_init
11	7921	157	#line 7921 "NXCDefs.h"
11	24	157	#line 24 "C:\Users\ptan\Dropbox\robots\Final_Project_OS\Project\Main2.nxc"
11	25	157	#line 25 "C:\Users\ptan\Dropbox\robots\Final_Project_OS\Project\Main2.nxc"
11	26	157		subcall containBalls, __containBalls_return
11	25	160	#line 25 "C:\Users\ptan\Dropbox\robots\Final_Project_OS\Project\Main2.nxc"
11	26	160	#line 26 "C:\Users\ptan\Dropbox\robots\Final_Project_OS\Project\Main2.nxc"
11	27	160	#pragma macro 7
11	27	160		setout motors, 2, __constVal0, 1, __constVal3, 8, __constVal0, 6, __constVal32, 7, __constVal0, 5, __constVal0, 10, __constVal96, 11, __constVal32, 12, __constVal32, 0, __constVal63
11	6256	183	#line 6256 "C:\Users\ptan\Dropbox\robots\Final_Project_OS\Project\Main2.nxc"
11	26	183	#line 26 "C:\Users\ptan\Dropbox\robots\Final_Project_OS\Project\Main2.nxc"
11	27	183	#line 27 "C:\Users\ptan\Dropbox\robots\Final_Project_OS\Project\Main2.nxc"
11	27	183	#line 27 "C:\Users\ptan\Dropbox\robots\Final_Project_OS\Project\Main2.nxc"
11	28	183		exit 0, 2
12	30	0	#line 30 "C:\Users\ptan\Dropbox\robots\Final_Project_OS\Project\Main2.nxc"
12	30	0	#line 30 "C:\Users\ptan\Dropbox\robots\Final_Project_OS\Project\Main2.nxc"
12	30	0	#line 30 "C:\Users\ptan\Dropbox\robots\Final_Project_OS\Project\Main2.nxc"
12	30	0	#line 30 "C:\Users\ptan\Dropbox\robots\Final_Project_OS\Project\Main2.nxc"
12	31	0		sub __D0getDegreeDiff, __getDegreeDiff_7qG2_current_7qG2_000, __getDegreeDiff_7qG2_old_7qG2_000
12	31	4	#line 31 "C:\Users\ptan\Dropbox\robots\Final_Project_OS\Project\Main2.nxc"
12	32	4		abs __getDegreeDiff_7qG2_diff_7qG2_000, __D0getDegreeDiff
12	31	7	#line 31 "C:\Users\ptan\Dropbox\robots\Final_Project_OS\Project\Main2.nxc"
12	31	7	#line 31 "C:\Users\ptan\Dropbox\robots\Final_Project_OS\Project\Main2.nxc"
12	32	7		mov __signed_stack_001getDegreeDiff, __getDegreeDiff_7qG2_diff_7qG2_000
12	31	9	#line 31 "C:\Users\ptan\Dropbox\robots\Final_Project_OS\Project\Main2.nxc"
12	32	9	#line 32 "C:\Users\ptan\Dropbox\robots\Final_Project_OS\Project\Main2.nxc"
12	33	9		set __D0getDegreeDiff, 180
12	32	12	#line 32 "C:\Users\ptan\Dropbox\robots\Final_Project_OS\Project\Main2.nxc"
12	33	12		cmp 1, __zfgetDegreeDiff, __signed_stack_001getDegreeDiff, __D0getDegreeDiff
12	32	16	#line 32 "C:\Users\ptan\Dropbox\robots\Final_Project_OS\Project\Main2.nxc"
12	33	16		mov __D0getDegreeDiff, __zfgetDegreeDiff
12	32	19	#line 32 "C:\Users\ptan\Dropbox\robots\Final_Project_OS\Project\Main2.nxc"
12	33	19		brtst 4, __NXC_Label_523, __zfgetDegreeDiff
12	32	22	#line 32 "C:\Users\ptan\Dropbox\robots\Final_Project_OS\Project\Main2.nxc"
12	32	22	#line 32 "C:\Users\ptan\Dropbox\robots\Final_Project_OS\Project\Main2.nxc"
12	33	22	#line 33 "C:\Users\ptan\Dropbox\robots\Final_Project_OS\Project\Main2.nxc"
12	33	22	#line 33 "C:\Users\ptan\Dropbox\robots\Final_Project_OS\Project\Main2.nxc"
12	34	22		sub __getDegreeDiff_7qG2_diff_7qG2_000, __constVal360, __getDegreeDiff_7qG2_diff_7qG2_000
12	33	26	#line 33 "C:\Users\ptan\Dropbox\robots\Final_Project_OS\Project\Main2.nxc"
12	33	26	#line 33 "C:\Users\ptan\Dropbox\robots\Final_Project_OS\Project\Main2.nxc"
12	33	26	#line 33 "C:\Users\ptan\Dropbox\robots\Final_Project_OS\Project\Main2.nxc"
12	34	26	#line 34 "C:\Users\ptan\Dropbox\robots\Final_Project_OS\Project\Main2.nxc"
12	35	26		mov __D0getDegreeDiff, __getDegreeDiff_7qG2_diff_7qG2_000
12	34	28	#line 34 "C:\Users\ptan\Dropbox\robots\Final_Project_OS\Project\Main2.nxc"
12	35	28		subret __getDegreeDiff_return
12	34	30	#line 34 "C:\Users\ptan\Dropbox\robots\Final_Project_OS\Project\Main2.nxc"
12	36	30	#line 36 "C:\Users\ptan\Dropbox\robots\Final_Project_OS\Project\Main2.nxc"
12	37	30		subret __getDegreeDiff_return
13	38	0	#line 38 "C:\Users\ptan\Dropbox\robots\Final_Project_OS\Project\Main2.nxc"
13	39	0		mov __signed_stack_001backtoOrigin, relBearing
13	38	2	#line 38 "C:\Users\ptan\Dropbox\robots\Final_Project_OS\Project\Main2.nxc"
13	39	2	#line 39 "C:\Users\ptan\Dropbox\robots\Final_Project_OS\Project\Main2.nxc"
13	40	2		set __D0backtoOrigin, 5
13	39	5	#line 39 "C:\Users\ptan\Dropbox\robots\Final_Project_OS\Project\Main2.nxc"
13	40	5		cmp 1, __zfbacktoOrigin, __signed_stack_001backtoOrigin, __D0backtoOrigin
13	39	9	#line 39 "C:\Users\ptan\Dropbox\robots\Final_Project_OS\Project\Main2.nxc"
13	40	9		mov __D0backtoOrigin, __zfbacktoOrigin
13	40	12	#line 40 "C:\Users\ptan\Dropbox\robots\Final_Project_OS\Project\Main2.nxc"
13	41	12		brtst 4, __NXC_Label_529, __zfbacktoOrigin
13	40	15	#line 40 "C:\Users\ptan\Dropbox\robots\Final_Project_OS\Project\Main2.nxc"
13	41	15		set __reverseDirection_7qG2_moveTime_7qG2_000, 100
13	40	18	#line 40 "C:\Users\ptan\Dropbox\robots\Final_Project_OS\Project\Main2.nxc"
13	41	18	#line 41 "C:\Users\ptan\Dropbox\robots\Final_Project_OS\Project\Main2.nxc"
13	42	18		subcall reverseDirection, __reverseDirection_return
13	41	21	#line 41 "C:\Users\ptan\Dropbox\robots\Final_Project_OS\Project\Main2.nxc"
13	41	21	#line 41 "C:\Users\ptan\Dropbox\robots\Final_Project_OS\Project\Main2.nxc"
13	42	21	#pragma macro 30
13	42	21		acquire __RLSBmutex1
13	42	22		mov __RLSReadBuf1, __RLSBbufLSWrite1
13	42	24		set __RLSBytesCount1, 2
13	42	27		subcall __ReadLSBytes1, ____ReadLSBytes1_return
13	42	30		index __D0backtoOrigin, __RLSReadBuf1, 65535
13	42	34		index __RLSBytesCount1, __RLSReadBuf1, __constVal1
13	42	38		add __D0backtoOrigin, __D0backtoOrigin, __D0backtoOrigin
13	42	42		add __D0backtoOrigin, __D0backtoOrigin, __RLSBytesCount1
13	42	46		release __RLSBmutex1
13	6350	47	#line 6350 "C:\Users\ptan\Dropbox\robots\Final_Project_OS\Project\Main2.nxc"
13	41	47	#line 41 "C:\Users\ptan\Dropbox\robots\Final_Project_OS\Project\Main2.nxc"
13	42	47		mov currentCompass, __D0backtoOrigin
13	41	49	#line 41 "C:\Users\ptan\Dropbox\robots\Final_Project_OS\Project\Main2.nxc"
13	41	49	#line 41 "C:\Users\ptan\Dropbox\robots\Final_Project_OS\Project\Main2.nxc"
13	43	49	#line 43 "C:\Users\ptan\Dropbox\robots\Final_Project_OS\Project\Main2.nxc"
13	43	49	#line 43 "C:\Users\ptan\Dropbox\robots\Final_Project_OS\Project\Main2.nxc"
13	43	49	#line 43 "C:\Users\ptan\Dropbox\robots\Final_Project_OS\Project\Main2.nxc"
13	43	49	#line 43 "C:\Users\ptan\Dropbox\robots\Final_Project_OS\Project\Main2.nxc"
13	44	49		sub __D0backtoOrigin, __D0backtoOrigin, ownGoal
13	44	53	#line 44 "C:\Users\ptan\Dropbox\robots\Final_Project_OS\Project\Main2.nxc"
13	45	53		abs relBearing, __D0backtoOrigin
13	44	56	#line 44 "C:\Users\ptan\Dropbox\robots\Final_Project_OS\Project\Main2.nxc"
13	44	56	#line 44 "C:\Users\ptan\Dropbox\robots\Final_Project_OS\Project\Main2.nxc"
13	45	56	#line 45 "C:\Users\ptan\Dropbox\robots\Final_Project_OS\Project\Main2.nxc"
13	46	56		jmp __NXC_Label_528
13	45	58	#line 45 "C:\Users\ptan\Dropbox\robots\Final_Project_OS\Project\Main2.nxc"
13	46	58	#line 46 "C:\Users\ptan\Dropbox\robots\Final_Project_OS\Project\Main2.nxc"
13	47	58	#pragma macro 7
13	47	58		setout motors, 2, __constVal0, 1, __constVal3, 8, __constVal0, 6, __constVal32, 7, __constVal0, 5, __constVal0, 10, __constVal96, 11, __constVal32, 12, __constVal32, 0, __constVal63
13	6379	81	#line 6379 "C:\Users\ptan\Dropbox\robots\Final_Project_OS\Project\Main2.nxc"
13	46	81	#line 46 "C:\Users\ptan\Dropbox\robots\Final_Project_OS\Project\Main2.nxc"
13	47	81	#line 47 "C:\Users\ptan\Dropbox\robots\Final_Project_OS\Project\Main2.nxc"
13	48	81		subret __backtoOrigin_return
14	63	0	#line 63 "C:\Users\ptan\Dropbox\robots\Final_Project_OS\Project\Main2.nxc"
14	64	0		set __signed_stack_001throwBall, 60
14	63	3	#line 63 "C:\Users\ptan\Dropbox\robots\Final_Project_OS\Project\Main2.nxc"
14	63	3	#line 63 "C:\Users\ptan\Dropbox\robots\Final_Project_OS\Project\Main2.nxc"
14	64	3		set __D0throwBall, 1
14	64	6	#line 64 "C:\Users\ptan\Dropbox\robots\Final_Project_OS\Project\Main2.nxc"
14	65	6	#pragma macro 10
14	65	6		acquire __OnRevMutex
14	65	7		neg __OnRev_Tmp, __signed_stack_001throwBall
14	65	10		setout motors, 2, __OnRev_Tmp, 1, __constVal7, 8, __constVal2, 7, __D0throwBall, 6, __constVal32, 5, __constVal0, 10, __constVal96, 11, __constVal32, 12, __constVal32, 0, __constVal63
14	65	33		release __OnRevMutex
14	6465	34	#line 6465 "C:\Users\ptan\Dropbox\robots\Final_Project_OS\Project\Main2.nxc"
14	64	34	#line 64 "C:\Users\ptan\Dropbox\robots\Final_Project_OS\Project\Main2.nxc"
14	64	34	#line 64 "C:\Users\ptan\Dropbox\robots\Final_Project_OS\Project\Main2.nxc"
14	65	34		set __Wait_7qG2_ms_7qG2_000_inline_throwBall, 1200
14	64	37	#line 64 "C:\Users\ptan\Dropbox\robots\Final_Project_OS\Project\Main2.nxc"
14	7921	37	#line 7921 "NXCDefs.h"
14	7922	37		wait2 NA, __Wait_7qG2_ms_7qG2_000_inline_throwBall
14	7921	40	#line 7921 "NXCDefs.h"
14	65	40	#line 65 "C:\Users\ptan\Dropbox\robots\Final_Project_OS\Project\Main2.nxc"
14	66	40	#line 66 "C:\Users\ptan\Dropbox\robots\Final_Project_OS\Project\Main2.nxc"
14	67	40	#pragma macro 7
14	67	40		setout motors, 2, __constVal0, 1, __constVal3, 8, __constVal0, 6, __constVal32, 7, __constVal0, 5, __constVal0, 10, __constVal96, 11, __constVal32, 12, __constVal32, 0, __constVal63
14	6482	63	#line 6482 "C:\Users\ptan\Dropbox\robots\Final_Project_OS\Project\Main2.nxc"
14	66	63	#line 66 "C:\Users\ptan\Dropbox\robots\Final_Project_OS\Project\Main2.nxc"
14	67	63	#line 67 "C:\Users\ptan\Dropbox\robots\Final_Project_OS\Project\Main2.nxc"
14	68	63		subcall close, __close_return
14	67	65	#line 67 "C:\Users\ptan\Dropbox\robots\Final_Project_OS\Project\Main2.nxc"
14	67	65	#line 67 "C:\Users\ptan\Dropbox\robots\Final_Project_OS\Project\Main2.nxc"
14	68	65		set __signed_stack_001throwBall, 100
14	67	68	#line 67 "C:\Users\ptan\Dropbox\robots\Final_Project_OS\Project\Main2.nxc"
14	67	68	#line 67 "C:\Users\ptan\Dropbox\robots\Final_Project_OS\Project\Main2.nxc"
14	68	68		set __D0throwBall, 1
14	68	71	#line 68 "C:\Users\ptan\Dropbox\robots\Final_Project_OS\Project\Main2.nxc"
14	69	71	#pragma macro 7
14	69	71		setout motors, 2, __signed_stack_001throwBall, 1, __constVal7, 8, __constVal2, 7, __D0throwBall, 6, __constVal32, 5, __constVal0, 10, __constVal96, 11, __constVal32, 12, __constVal32, 0, __constVal63
14	6498	94	#line 6498 "C:\Users\ptan\Dropbox\robots\Final_Project_OS\Project\Main2.nxc"
14	68	94	#line 68 "C:\Users\ptan\Dropbox\robots\Final_Project_OS\Project\Main2.nxc"
14	68	94	#line 68 "C:\Users\ptan\Dropbox\robots\Final_Project_OS\Project\Main2.nxc"
14	69	94		set __Wait_7qG2_ms_7qG2_000_inline_throwBall, 900
14	68	97	#line 68 "C:\Users\ptan\Dropbox\robots\Final_Project_OS\Project\Main2.nxc"
14	7921	97	#line 7921 "NXCDefs.h"
14	7922	97		wait2 NA, __Wait_7qG2_ms_7qG2_000_inline_throwBall
14	7921	100	#line 7921 "NXCDefs.h"
14	69	100	#line 69 "C:\Users\ptan\Dropbox\robots\Final_Project_OS\Project\Main2.nxc"
14	69	100	#line 69 "C:\Users\ptan\Dropbox\robots\Final_Project_OS\Project\Main2.nxc"
14	70	100		set __open_7qG2_angle_7qG2_000, 180
14	69	103	#line 69 "C:\Users\ptan\Dropbox\robots\Final_Project_OS\Project\Main2.nxc"
14	70	103	#line 70 "C:\Users\ptan\Dropbox\robots\Final_Project_OS\Project\Main2.nxc"
14	71	103		subcall open, __open_return
14	70	105	#line 70 "C:\Users\ptan\Dropbox\robots\Final_Project_OS\Project\Main2.nxc"
14	71	105	#line 71 "C:\Users\ptan\Dropbox\robots\Final_Project_OS\Project\Main2.nxc"
14	72	105	#pragma macro 7
14	72	105		setout motors, 2, __constVal0, 1, __constVal3, 8, __constVal0, 6, __constVal32, 7, __constVal0, 5, __constVal0, 10, __constVal96, 11, __constVal32, 12, __constVal32, 0, __constVal63
14	6520	128	#line 6520 "C:\Users\ptan\Dropbox\robots\Final_Project_OS\Project\Main2.nxc"
14	71	128	#line 71 "C:\Users\ptan\Dropbox\robots\Final_Project_OS\Project\Main2.nxc"
14	72	128	#line 72 "C:\Users\ptan\Dropbox\robots\Final_Project_OS\Project\Main2.nxc"
14	73	128		subcall stopRotor, __stopRotor_return
14	72	130	#line 72 "C:\Users\ptan\Dropbox\robots\Final_Project_OS\Project\Main2.nxc"
14	74	130	#line 74 "C:\Users\ptan\Dropbox\robots\Final_Project_OS\Project\Main2.nxc"
14	75	130		subret __throwBall_return
15	79	0	#line 79 "C:\Users\ptan\Dropbox\robots\Final_Project_OS\Project\Main2.nxc"
15	80	0		set __getObjColor_7qG2_output_7qG2_000, 0
15	79	3	#line 79 "C:\Users\ptan\Dropbox\robots\Final_Project_OS\Project\Main2.nxc"
15	79	3	#line 79 "C:\Users\ptan\Dropbox\robots\Final_Project_OS\Project\Main2.nxc"
15	80	3	#pragma macro 32
15	80	3		acquire __RLSBmutex2
15	80	4		mov __RLSReadBuf2, __RLSBbufLSWrite1
15	80	6		set __RLSBytesCount2, 4
15	80	9		subcall __ReadLSBytes2, ____ReadLSBytes2_return
15	80	12		tst 4, __D0getObjColor, __RLSBResult2
15	80	15		index __getObjColor_7qG2_output_7qG2_000, __RLSReadBuf2, 65535
15	80	19		release __RLSBmutex2
15	6553	20	#line 6553 "C:\Users\ptan\Dropbox\robots\Final_Project_OS\Project\Main2.nxc"
15	79	20	#line 79 "C:\Users\ptan\Dropbox\robots\Final_Project_OS\Project\Main2.nxc"
15	79	20	#line 79 "C:\Users\ptan\Dropbox\robots\Final_Project_OS\Project\Main2.nxc"
15	81	20	#line 81 "C:\Users\ptan\Dropbox\robots\Final_Project_OS\Project\Main2.nxc"
15	82	20		mov __DU0getObjColor, __getObjColor_7qG2_output_7qG2_000
15	81	22	#line 81 "C:\Users\ptan\Dropbox\robots\Final_Project_OS\Project\Main2.nxc"
15	82	22		subret __getObjColor_return
15	81	24	#line 81 "C:\Users\ptan\Dropbox\robots\Final_Project_OS\Project\Main2.nxc"
15	83	24	#line 83 "C:\Users\ptan\Dropbox\robots\Final_Project_OS\Project\Main2.nxc"
15	84	24		subret __getObjColor_return
16	86	0	#line 86 "C:\Users\ptan\Dropbox\robots\Final_Project_OS\Project\Main2.nxc"
16	87	0		subcall getObjColor, __getObjColor_return
16	86	2	#line 86 "C:\Users\ptan\Dropbox\robots\Final_Project_OS\Project\Main2.nxc"
16	87	2		mov __isNotField_7qG2_output_7qG2_000, __DU0getObjColor
16	86	4	#line 86 "C:\Users\ptan\Dropbox\robots\Final_Project_OS\Project\Main2.nxc"
16	86	4	#line 86 "C:\Users\ptan\Dropbox\robots\Final_Project_OS\Project\Main2.nxc"
16	87	4		mov __unsigned_stack_001isNotField, __DU0getObjColor
16	86	6	#line 86 "C:\Users\ptan\Dropbox\robots\Final_Project_OS\Project\Main2.nxc"
16	86	6	#line 86 "C:\Users\ptan\Dropbox\robots\Final_Project_OS\Project\Main2.nxc"
16	87	6		set __D0isNotField, 14
16	86	9	#line 86 "C:\Users\ptan\Dropbox\robots\Final_Project_OS\Project\Main2.nxc"
16	87	9		cmp 4, __zfisNotField, __unsigned_stack_001isNotField, __D0isNotField
16	86	13	#line 86 "C:\Users\ptan\Dropbox\robots\Final_Project_OS\Project\Main2.nxc"
16	87	13		mov __D0isNotField, __zfisNotField
16	86	16	#line 86 "C:\Users\ptan\Dropbox\robots\Final_Project_OS\Project\Main2.nxc"
16	87	16		brtst 5, __NXC_Label_578, __zfisNotField
16	86	19	#line 86 "C:\Users\ptan\Dropbox\robots\Final_Project_OS\Project\Main2.nxc"
16	87	19		mov __signed_stack_001isNotField, __D0isNotField
16	86	21	#line 86 "C:\Users\ptan\Dropbox\robots\Final_Project_OS\Project\Main2.nxc"
16	87	21		mov __unsigned_stack_002isNotField, __isNotField_7qG2_output_7qG2_000
16	86	23	#line 86 "C:\Users\ptan\Dropbox\robots\Final_Project_OS\Project\Main2.nxc"
16	86	23	#line 86 "C:\Users\ptan\Dropbox\robots\Final_Project_OS\Project\Main2.nxc"
16	87	23		set __D0isNotField, 2
16	86	26	#line 86 "C:\Users\ptan\Dropbox\robots\Final_Project_OS\Project\Main2.nxc"
16	87	26		cmp 5, __zfisNotField, __unsigned_stack_002isNotField, __D0isNotField
16	86	30	#line 86 "C:\Users\ptan\Dropbox\robots\Final_Project_OS\Project\Main2.nxc"
16	87	30		mov __D0isNotField, __zfisNotField
16	86	33	#line 86 "C:\Users\ptan\Dropbox\robots\Final_Project_OS\Project\Main2.nxc"
16	87	33		brtst 4, __NXC_Label_584, __zfisNotField
16	86	36	#line 86 "C:\Users\ptan\Dropbox\robots\Final_Project_OS\Project\Main2.nxc"
16	87	36		mov __signed_stack_002isNotField, __D0isNotField
16	86	38	#line 86 "C:\Users\ptan\Dropbox\robots\Final_Project_OS\Project\Main2.nxc"
16	87	38		mov __unsigned_stack_003isNotField, __isNotField_7qG2_output_7qG2_000
16	86	40	#line 86 "C:\Users\ptan\Dropbox\robots\Final_Project_OS\Project\Main2.nxc"
16	86	40	#line 86 "C:\Users\ptan\Dropbox\robots\Final_Project_OS\Project\Main2.nxc"
16	87	40		set __D0isNotField, 9
16	86	43	#line 86 "C:\Users\ptan\Dropbox\robots\Final_Project_OS\Project\Main2.nxc"
16	87	43		cmp 5, __zfisNotField, __unsigned_stack_003isNotField, __D0isNotField
16	86	47	#line 86 "C:\Users\ptan\Dropbox\robots\Final_Project_OS\Project\Main2.nxc"
16	86	47	#line 86 "C:\Users\ptan\Dropbox\robots\Final_Project_OS\Project\Main2.nxc"
16	87	47		and __D0isNotField, __signed_stack_002isNotField, __zfisNotField
16	86	51	#line 86 "C:\Users\ptan\Dropbox\robots\Final_Project_OS\Project\Main2.nxc"
16	87	51		tst 5, __zfisNotField, __D0isNotField
16	86	54	#line 86 "C:\Users\ptan\Dropbox\robots\Final_Project_OS\Project\Main2.nxc"
16	87	54		mov __D0isNotField, __zfisNotField
16	86	57	#line 86 "C:\Users\ptan\Dropbox\robots\Final_Project_OS\Project\Main2.nxc"
16	87	57		brtst 4, __NXC_Label_584, __zfisNotField
16	86	60	#line 86 "C:\Users\ptan\Dropbox\robots\Final_Project_OS\Project\Main2.nxc"
16	87	60		mov __signed_stack_002isNotField, __D0isNotField
16	86	62	#line 86 "C:\Users\ptan\Dropbox\robots\Final_Project_OS\Project\Main2.nxc"
16	87	62		mov __unsigned_stack_003isNotField, __isNotField_7qG2_output_7qG2_000
16	86	64	#line 86 "C:\Users\ptan\Dropbox\robots\Final_Project_OS\Project\Main2.nxc"
16	86	64	#line 86 "C:\Users\ptan\Dropbox\robots\Final_Project_OS\Project\Main2.nxc"
16	87	64		set __D0isNotField, 17
16	86	67	#line 86 "C:\Users\ptan\Dropbox\robots\Final_Project_OS\Project\Main2.nxc"
16	87	67		cmp 5, __zfisNotField, __unsigned_stack_003isNotField, __D0isNotField
16	86	71	#line 86 "C:\Users\ptan\Dropbox\robots\Final_Project_OS\Project\Main2.nxc"
16	86	71	#line 86 "C:\Users\ptan\Dropbox\robots\Final_Project_OS\Project\Main2.nxc"
16	87	71		and __D0isNotField, __signed_stack_002isNotField, __zfisNotField
16	86	75	#line 86 "C:\Users\ptan\Dropbox\robots\Final_Project_OS\Project\Main2.nxc"
16	87	75		tst 5, __zfisNotField, __D0isNotField
16	86	78	#line 86 "C:\Users\ptan\Dropbox\robots\Final_Project_OS\Project\Main2.nxc"
16	87	78		mov __D0isNotField, __zfisNotField
16	86	81	#line 86 "C:\Users\ptan\Dropbox\robots\Final_Project_OS\Project\Main2.nxc"
16	87	81		brtst 4, __NXC_Label_584, __zfisNotField
16	86	84	#line 86 "C:\Users\ptan\Dropbox\robots\Final_Project_OS\Project\Main2.nxc"
16	87	84		mov __signed_stack_002isNotField, __D0isNotField
16	86	86	#line 86 "C:\Users\ptan\Dropbox\robots\Final_Project_OS\Project\Main2.nxc"
16	87	86		mov __unsigned_stack_003isNotField, __isNotField_7qG2_output_7qG2_000
16	86	88	#line 86 "C:\Users\ptan\Dropbox\robots\Final_Project_OS\Project\Main2.nxc"
16	86	88	#line 86 "C:\Users\ptan\Dropbox\robots\Final_Project_OS\Project\Main2.nxc"
16	87	88		set __D0isNotField, 0
16	86	91	#line 86 "C:\Users\ptan\Dropbox\robots\Final_Project_OS\Project\Main2.nxc"
16	87	91		cmp 5, __zfisNotField, __unsigned_stack_003isNotField, __D0isNotField
16	86	95	#line 86 "C:\Users\ptan\Dropbox\robots\Final_Project_OS\Project\Main2.nxc"
16	86	95	#line 86 "C:\Users\ptan\Dropbox\robots\Final_Project_OS\Project\Main2.nxc"
16	87	95		and __D0isNotField, __signed_stack_002isNotField, __zfisNotField
16	86	99	#line 86 "C:\Users\ptan\Dropbox\robots\Final_Project_OS\Project\Main2.nxc"
16	87	99		tst 5, __zfisNotField, __D0isNotField
16	86	102	#line 86 "C:\Users\ptan\Dropbox\robots\Final_Project_OS\Project\Main2.nxc"
16	86	102	#line 86 "C:\Users\ptan\Dropbox\robots\Final_Project_OS\Project\Main2.nxc"
16	87	102		or __D0isNotField, __signed_stack_001isNotField, __zfisNotField
16	87	106	#line 87 "C:\Users\ptan\Dropbox\robots\Final_Project_OS\Project\Main2.nxc"
16	88	106		mov __DU0isNotField, __D0isNotField
16	87	108	#line 87 "C:\Users\ptan\Dropbox\robots\Final_Project_OS\Project\Main2.nxc"
16	88	108		subret __isNotField_return
16	87	110	#line 87 "C:\Users\ptan\Dropbox\robots\Final_Project_OS\Project\Main2.nxc"
16	89	110	#line 89 "C:\Users\ptan\Dropbox\robots\Final_Project_OS\Project\Main2.nxc"
16	90	110		subret __isNotField_return
17	92	0	#line 92 "C:\Users\ptan\Dropbox\robots\Final_Project_OS\Project\Main2.nxc"
17	93	0		subcall getObjColor, __getObjColor_return
17	92	2	#line 92 "C:\Users\ptan\Dropbox\robots\Final_Project_OS\Project\Main2.nxc"
17	93	2		mov __checkandthrow_7qG2_output_7qG2_000, __DU0getObjColor
17	92	4	#line 92 "C:\Users\ptan\Dropbox\robots\Final_Project_OS\Project\Main2.nxc"
17	92	4	#line 92 "C:\Users\ptan\Dropbox\robots\Final_Project_OS\Project\Main2.nxc"
17	93	4		mov __unsigned_stack_001checkandthrow, __DU0getObjColor
17	92	6	#line 92 "C:\Users\ptan\Dropbox\robots\Final_Project_OS\Project\Main2.nxc"
17	92	6	#line 92 "C:\Users\ptan\Dropbox\robots\Final_Project_OS\Project\Main2.nxc"
17	93	6		set __D0checkandthrow, 9
17	92	9	#line 92 "C:\Users\ptan\Dropbox\robots\Final_Project_OS\Project\Main2.nxc"
17	93	9		cmp 4, __zfcheckandthrow, __unsigned_stack_001checkandthrow, __D0checkandthrow
17	92	13	#line 92 "C:\Users\ptan\Dropbox\robots\Final_Project_OS\Project\Main2.nxc"
17	93	13		mov __D0checkandthrow, __zfcheckandthrow
17	92	16	#line 92 "C:\Users\ptan\Dropbox\robots\Final_Project_OS\Project\Main2.nxc"
17	93	16		brtst 5, __NXC_Label_595, __zfcheckandthrow
17	92	19	#line 92 "C:\Users\ptan\Dropbox\robots\Final_Project_OS\Project\Main2.nxc"
17	93	19		mov __signed_stack_001checkandthrow, __D0checkandthrow
17	92	21	#line 92 "C:\Users\ptan\Dropbox\robots\Final_Project_OS\Project\Main2.nxc"
17	93	21		mov __unsigned_stack_002checkandthrow, __checkandthrow_7qG2_output_7qG2_000
17	92	23	#line 92 "C:\Users\ptan\Dropbox\robots\Final_Project_OS\Project\Main2.nxc"
17	93	23	#line 93 "C:\Users\ptan\Dropbox\robots\Final_Project_OS\Project\Main2.nxc"
17	94	23		set __D0checkandthrow, 2
17	93	26	#line 93 "C:\Users\ptan\Dropbox\robots\Final_Project_OS\Project\Main2.nxc"
17	94	26		cmp 4, __zfcheckandthrow, __unsigned_stack_002checkandthrow, __D0checkandthrow
17	93	30	#line 93 "C:\Users\ptan\Dropbox\robots\Final_Project_OS\Project\Main2.nxc"
17	93	30	#line 93 "C:\Users\ptan\Dropbox\robots\Final_Project_OS\Project\Main2.nxc"
17	94	30		or __D0checkandthrow, __signed_stack_001checkandthrow, __zfcheckandthrow
17	94	34	#line 94 "C:\Users\ptan\Dropbox\robots\Final_Project_OS\Project\Main2.nxc"
17	95	34		tst 5, __zfcheckandthrow, __D0checkandthrow
17	94	37	#line 94 "C:\Users\ptan\Dropbox\robots\Final_Project_OS\Project\Main2.nxc"
17	95	37		brtst 4, __NXC_Label_598, __zfcheckandthrow
17	95	40	#line 95 "C:\Users\ptan\Dropbox\robots\Final_Project_OS\Project\Main2.nxc"
17	96	40		subcall close, __close_return
17	95	42	#line 95 "C:\Users\ptan\Dropbox\robots\Final_Project_OS\Project\Main2.nxc"
17	96	42	#line 96 "C:\Users\ptan\Dropbox\robots\Final_Project_OS\Project\Main2.nxc"
17	97	42		subcall backtoOrigin, __backtoOrigin_return
17	96	45	#line 96 "C:\Users\ptan\Dropbox\robots\Final_Project_OS\Project\Main2.nxc"
17	96	45	#line 96 "C:\Users\ptan\Dropbox\robots\Final_Project_OS\Project\Main2.nxc"
17	97	45		set __open_7qG2_angle_7qG2_000, 15
17	96	48	#line 96 "C:\Users\ptan\Dropbox\robots\Final_Project_OS\Project\Main2.nxc"
17	97	48	#line 97 "C:\Users\ptan\Dropbox\robots\Final_Project_OS\Project\Main2.nxc"
17	98	48		subcall open, __open_return
17	97	50	#line 97 "C:\Users\ptan\Dropbox\robots\Final_Project_OS\Project\Main2.nxc"
17	97	50	#line 97 "C:\Users\ptan\Dropbox\robots\Final_Project_OS\Project\Main2.nxc"
17	98	50		set __Wait_7qG2_ms_7qG2_000_inline_checkandthrow, 800
17	97	53	#line 97 "C:\Users\ptan\Dropbox\robots\Final_Project_OS\Project\Main2.nxc"
17	7921	53	#line 7921 "NXCDefs.h"
17	7922	53		wait2 NA, __Wait_7qG2_ms_7qG2_000_inline_checkandthrow
17	7921	56	#line 7921 "NXCDefs.h"
17	98	56	#line 98 "C:\Users\ptan\Dropbox\robots\Final_Project_OS\Project\Main2.nxc"
17	98	56	#line 98 "C:\Users\ptan\Dropbox\robots\Final_Project_OS\Project\Main2.nxc"
17	99	56		set __open_7qG2_angle_7qG2_000, 165
17	98	59	#line 98 "C:\Users\ptan\Dropbox\robots\Final_Project_OS\Project\Main2.nxc"
17	99	59	#line 99 "C:\Users\ptan\Dropbox\robots\Final_Project_OS\Project\Main2.nxc"
17	100	59		subcall open, __open_return
17	99	61	#line 99 "C:\Users\ptan\Dropbox\robots\Final_Project_OS\Project\Main2.nxc"
17	100	61	#line 100 "C:\Users\ptan\Dropbox\robots\Final_Project_OS\Project\Main2.nxc"
17	101	61		subcall throwBall, __throwBall_return
17	100	64	#line 100 "C:\Users\ptan\Dropbox\robots\Final_Project_OS\Project\Main2.nxc"
17	101	64	#line 101 "C:\Users\ptan\Dropbox\robots\Final_Project_OS\Project\Main2.nxc"
17	102	64		set __DU0checkandthrow, 1
17	101	67	#line 101 "C:\Users\ptan\Dropbox\robots\Final_Project_OS\Project\Main2.nxc"
17	101	67	#line 101 "C:\Users\ptan\Dropbox\robots\Final_Project_OS\Project\Main2.nxc"
17	102	67		subret __checkandthrow_return
17	101	69	#line 101 "C:\Users\ptan\Dropbox\robots\Final_Project_OS\Project\Main2.nxc"
17	102	69	#line 102 "C:\Users\ptan\Dropbox\robots\Final_Project_OS\Project\Main2.nxc"
17	103	69	#line 103 "C:\Users\ptan\Dropbox\robots\Final_Project_OS\Project\Main2.nxc"
17	104	69		set __DU0checkandthrow, 0
17	103	72	#line 103 "C:\Users\ptan\Dropbox\robots\Final_Project_OS\Project\Main2.nxc"
17	103	72	#line 103 "C:\Users\ptan\Dropbox\robots\Final_Project_OS\Project\Main2.nxc"
17	104	72		subret __checkandthrow_return
17	103	74	#line 103 "C:\Users\ptan\Dropbox\robots\Final_Project_OS\Project\Main2.nxc"
17	106	74	#line 106 "C:\Users\ptan\Dropbox\robots\Final_Project_OS\Project\Main2.nxc"
17	107	74		subret __checkandthrow_return
18	108	0	#line 108 "C:\Users\ptan\Dropbox\robots\Final_Project_OS\Project\Main2.nxc"
18	109	0		set __signed_stack_001moveTowardObj, 40
18	108	3	#line 108 "C:\Users\ptan\Dropbox\robots\Final_Project_OS\Project\Main2.nxc"
18	108	3	#line 108 "C:\Users\ptan\Dropbox\robots\Final_Project_OS\Project\Main2.nxc"
18	109	3		set __D0moveTowardObj, 1
18	109	6	#line 109 "C:\Users\ptan\Dropbox\robots\Final_Project_OS\Project\Main2.nxc"
18	110	6	#pragma macro 7
18	110	6		setout __OUT_AC, 2, __signed_stack_001moveTowardObj, 1, __constVal7, 8, __constVal2, 7, __D0moveTowardObj, 6, __constVal32, 5, __constVal0, 10, __constVal96, 11, __constVal32, 12, __constVal32, 0, __constVal63
18	6815	29	#line 6815 "C:\Users\ptan\Dropbox\robots\Final_Project_OS\Project\Main2.nxc"
18	109	29	#line 109 "C:\Users\ptan\Dropbox\robots\Final_Project_OS\Project\Main2.nxc"
18	110	29	#line 110 "C:\Users\ptan\Dropbox\robots\Final_Project_OS\Project\Main2.nxc"
18	111	29		set __moveTowardObj_7qG2_meetWall_7qG2_000, 0
18	110	32	#line 110 "C:\Users\ptan\Dropbox\robots\Final_Project_OS\Project\Main2.nxc"
18	111	32	#line 111 "C:\Users\ptan\Dropbox\robots\Final_Project_OS\Project\Main2.nxc"
18	112	32		set __D0moveTowardObj, 1
18	112	35	#line 112 "C:\Users\ptan\Dropbox\robots\Final_Project_OS\Project\Main2.nxc"
18	113	35		tst 5, __zfmoveTowardObj, __D0moveTowardObj
18	112	38	#line 112 "C:\Users\ptan\Dropbox\robots\Final_Project_OS\Project\Main2.nxc"
18	113	38		brtst 4, __NXC_Label_616, __zfmoveTowardObj
18	112	41	#line 112 "C:\Users\ptan\Dropbox\robots\Final_Project_OS\Project\Main2.nxc"
18	113	41		set __ClearSensor_7qG2_port_7qG2_000_inline_moveTowardObj, 0
18	112	44	#line 112 "C:\Users\ptan\Dropbox\robots\Final_Project_OS\Project\Main2.nxc"
18	3684	44	#line 3684 "NXCDefs.h"
18	3685	44		setin __constVal0, __ClearSensor_7qG2_port_7qG2_000_inline_moveTowardObj, 4
18	3684	48	#line 3684 "NXCDefs.h"
18	113	48	#line 113 "C:\Users\ptan\Dropbox\robots\Final_Project_OS\Project\Main2.nxc"
18	114	48	#line 114 "C:\Users\ptan\Dropbox\robots\Final_Project_OS\Project\Main2.nxc"
18	115	48		subcall isNotField, __isNotField_return
18	114	50	#line 114 "C:\Users\ptan\Dropbox\robots\Final_Project_OS\Project\Main2.nxc"
18	115	50		mov __moveTowardObj_7qG2_meetWall_7qG2_000, __DU0isNotField
18	114	52	#line 114 "C:\Users\ptan\Dropbox\robots\Final_Project_OS\Project\Main2.nxc"
18	114	52	#line 114 "C:\Users\ptan\Dropbox\robots\Final_Project_OS\Project\Main2.nxc"
18	114	52	#line 114 "C:\Users\ptan\Dropbox\robots\Final_Project_OS\Project\Main2.nxc"
18	115	52	#pragma macro 26
18	115	52		acquire __RLSBmutex0
18	115	53		mov __RLSReadBuf0, __RLSBbufLSWrite1
18	115	55		set __RLSBytesCount0, 1
18	115	58		wait2 NA, __constVal15
18	115	61		subcall __ReadLSBytes0, ____ReadLSBytes0_return
18	115	64		index __D0moveTowardObj, __RLSReadBuf0, 65535
18	115	68		release __RLSBmutex0
18	6860	69	#line 6860 "C:\Users\ptan\Dropbox\robots\Final_Project_OS\Project\Main2.nxc"
18	114	69	#line 114 "C:\Users\ptan\Dropbox\robots\Final_Project_OS\Project\Main2.nxc"
18	115	69		mov __signed_stack_001moveTowardObj, __D0moveTowardObj
18	114	71	#line 114 "C:\Users\ptan\Dropbox\robots\Final_Project_OS\Project\Main2.nxc"
18	115	71		set __D0moveTowardObj, 7
18	114	74	#line 114 "C:\Users\ptan\Dropbox\robots\Final_Project_OS\Project\Main2.nxc"
18	115	74		cmp 2, __zfmoveTowardObj, __signed_stack_001moveTowardObj, __D0moveTowardObj
18	114	78	#line 114 "C:\Users\ptan\Dropbox\robots\Final_Project_OS\Project\Main2.nxc"
18	115	78		mov __D0moveTowardObj, __zfmoveTowardObj
18	114	81	#line 114 "C:\Users\ptan\Dropbox\robots\Final_Project_OS\Project\Main2.nxc"
18	115	81		brtst 5, __NXC_Label_623, __zfmoveTowardObj
18	114	84	#line 114 "C:\Users\ptan\Dropbox\robots\Final_Project_OS\Project\Main2.nxc"
18	115	84		mov __signed_stack_001moveTowardObj, __D0moveTowardObj
18	114	86	#line 114 "C:\Users\ptan\Dropbox\robots\Final_Project_OS\Project\Main2.nxc"
18	115	86		mov __DU0moveTowardObj, __moveTowardObj_7qG2_meetWall_7qG2_000
18	115	89	#line 115 "C:\Users\ptan\Dropbox\robots\Final_Project_OS\Project\Main2.nxc"
18	116	89		tst 5, __zfmoveTowardObj, __DU0moveTowardObj
18	115	92	#line 115 "C:\Users\ptan\Dropbox\robots\Final_Project_OS\Project\Main2.nxc"
18	115	92	#line 115 "C:\Users\ptan\Dropbox\robots\Final_Project_OS\Project\Main2.nxc"
18	116	92		or __D0moveTowardObj, __signed_stack_001moveTowardObj, __zfmoveTowardObj
18	116	96	#line 116 "C:\Users\ptan\Dropbox\robots\Final_Project_OS\Project\Main2.nxc"
18	117	96		tst 5, __zfmoveTowardObj, __D0moveTowardObj
18	116	99	#line 116 "C:\Users\ptan\Dropbox\robots\Final_Project_OS\Project\Main2.nxc"
18	117	99		brtst 4, __NXC_Label_630, __zfmoveTowardObj
18	117	102	#line 117 "C:\Users\ptan\Dropbox\robots\Final_Project_OS\Project\Main2.nxc"
18	118	102	#pragma macro 7
18	118	102		setout motors, 2, __constVal0, 1, __constVal3, 8, __constVal0, 6, __constVal32, 7, __constVal0, 5, __constVal0, 10, __constVal96, 11, __constVal32, 12, __constVal32, 0, __constVal63
18	6893	125	#line 6893 "C:\Users\ptan\Dropbox\robots\Final_Project_OS\Project\Main2.nxc"
18	117	125	#line 117 "C:\Users\ptan\Dropbox\robots\Final_Project_OS\Project\Main2.nxc"
18	118	125	#line 118 "C:\Users\ptan\Dropbox\robots\Final_Project_OS\Project\Main2.nxc"
18	119	125		jmp __NXC_Label_616
18	118	127	#line 118 "C:\Users\ptan\Dropbox\robots\Final_Project_OS\Project\Main2.nxc"
18	121	127	#line 121 "C:\Users\ptan\Dropbox\robots\Final_Project_OS\Project\Main2.nxc"
18	121	127	#line 121 "C:\Users\ptan\Dropbox\robots\Final_Project_OS\Project\Main2.nxc"
18	122	127		jmp __NXC_Label_615
18	121	129	#line 121 "C:\Users\ptan\Dropbox\robots\Final_Project_OS\Project\Main2.nxc"
18	122	129	#line 122 "C:\Users\ptan\Dropbox\robots\Final_Project_OS\Project\Main2.nxc"
18	123	129		mov __DU0moveTowardObj, __moveTowardObj_7qG2_meetWall_7qG2_000
18	123	132	#line 123 "C:\Users\ptan\Dropbox\robots\Final_Project_OS\Project\Main2.nxc"
18	124	132		tst 5, __zfmoveTowardObj, __DU0moveTowardObj
18	123	135	#line 123 "C:\Users\ptan\Dropbox\robots\Final_Project_OS\Project\Main2.nxc"
18	124	135		brtst 4, __NXC_Label_633, __zfmoveTowardObj
18	124	138	#line 124 "C:\Users\ptan\Dropbox\robots\Final_Project_OS\Project\Main2.nxc"
18	125	138		set __DU0moveTowardObj, 0
18	124	141	#line 124 "C:\Users\ptan\Dropbox\robots\Final_Project_OS\Project\Main2.nxc"
18	124	141	#line 124 "C:\Users\ptan\Dropbox\robots\Final_Project_OS\Project\Main2.nxc"
18	125	141		subret __moveTowardObj_return
18	124	143	#line 124 "C:\Users\ptan\Dropbox\robots\Final_Project_OS\Project\Main2.nxc"
18	127	143	#line 127 "C:\Users\ptan\Dropbox\robots\Final_Project_OS\Project\Main2.nxc"
18	128	143		jmp __NXC_Label_636
18	128	145	#line 128 "C:\Users\ptan\Dropbox\robots\Final_Project_OS\Project\Main2.nxc"
18	129	145		set __DU0moveTowardObj, 1
18	128	148	#line 128 "C:\Users\ptan\Dropbox\robots\Final_Project_OS\Project\Main2.nxc"
18	128	148	#line 128 "C:\Users\ptan\Dropbox\robots\Final_Project_OS\Project\Main2.nxc"
18	129	148		subret __moveTowardObj_return
18	128	150	#line 128 "C:\Users\ptan\Dropbox\robots\Final_Project_OS\Project\Main2.nxc"
18	132	150	#line 132 "C:\Users\ptan\Dropbox\robots\Final_Project_OS\Project\Main2.nxc"
18	132	150	#line 132 "C:\Users\ptan\Dropbox\robots\Final_Project_OS\Project\Main2.nxc"
18	133	150		subret __moveTowardObj_return
19	135	0	#line 135 "C:\Users\ptan\Dropbox\robots\Final_Project_OS\Project\Main2.nxc"
19	136	0		mov scanningLeft, scanningRight
19	135	2	#line 135 "C:\Users\ptan\Dropbox\robots\Final_Project_OS\Project\Main2.nxc"
19	135	2	#line 135 "C:\Users\ptan\Dropbox\robots\Final_Project_OS\Project\Main2.nxc"
19	136	2	#line 136 "C:\Users\ptan\Dropbox\robots\Final_Project_OS\Project\Main2.nxc"
19	136	2	#line 136 "C:\Users\ptan\Dropbox\robots\Final_Project_OS\Project\Main2.nxc"
19	137	2		not scanningRight, scanningRight
19	136	5	#line 136 "C:\Users\ptan\Dropbox\robots\Final_Project_OS\Project\Main2.nxc"
19	136	5	#line 136 "C:\Users\ptan\Dropbox\robots\Final_Project_OS\Project\Main2.nxc"
19	138	5	#line 138 "C:\Users\ptan\Dropbox\robots\Final_Project_OS\Project\Main2.nxc"
19	139	5		subret __changeDirection_return
20	140	0	#line 140 "C:\Users\ptan\Dropbox\robots\Final_Project_OS\Project\Main2.nxc"
20	141	0		set __signed_stack_001moveFwd, 40
20	140	3	#line 140 "C:\Users\ptan\Dropbox\robots\Final_Project_OS\Project\Main2.nxc"
20	140	3	#line 140 "C:\Users\ptan\Dropbox\robots\Final_Project_OS\Project\Main2.nxc"
20	141	3		set __D0moveFwd, 2
20	141	6	#line 141 "C:\Users\ptan\Dropbox\robots\Final_Project_OS\Project\Main2.nxc"
20	142	6	#pragma macro 7
20	142	6		setout __OUT_AC, 2, __signed_stack_001moveFwd, 1, __constVal7, 8, __constVal2, 7, __D0moveFwd, 6, __constVal32, 5, __constVal0, 10, __constVal96, 11, __constVal32, 12, __constVal32, 0, __constVal63
20	6972	29	#line 6972 "C:\Users\ptan\Dropbox\robots\Final_Project_OS\Project\Main2.nxc"
20	141	29	#line 141 "C:\Users\ptan\Dropbox\robots\Final_Project_OS\Project\Main2.nxc"
20	141	29	#line 141 "C:\Users\ptan\Dropbox\robots\Final_Project_OS\Project\Main2.nxc"
20	142	29		mov __Wait_7qG2_ms_7qG2_000_inline_moveFwd, __moveFwd_7qG2_moveTime_7qG2_000
20	141	31	#line 141 "C:\Users\ptan\Dropbox\robots\Final_Project_OS\Project\Main2.nxc"
20	7921	31	#line 7921 "NXCDefs.h"
20	7922	31		wait2 NA, __Wait_7qG2_ms_7qG2_000_inline_moveFwd
20	7921	34	#line 7921 "NXCDefs.h"
20	142	34	#line 142 "C:\Users\ptan\Dropbox\robots\Final_Project_OS\Project\Main2.nxc"
20	143	34	#line 143 "C:\Users\ptan\Dropbox\robots\Final_Project_OS\Project\Main2.nxc"
20	144	34	#pragma macro 7
20	144	34		setout motors, 2, __constVal0, 1, __constVal3, 8, __constVal0, 6, __constVal32, 7, __constVal0, 5, __constVal0, 10, __constVal96, 11, __constVal32, 12, __constVal32, 0, __constVal63
20	6989	57	#line 6989 "C:\Users\ptan\Dropbox\robots\Final_Project_OS\Project\Main2.nxc"
20	143	57	#line 143 "C:\Users\ptan\Dropbox\robots\Final_Project_OS\Project\Main2.nxc"
20	144	57	#line 144 "C:\Users\ptan\Dropbox\robots\Final_Project_OS\Project\Main2.nxc"
20	145	57		subret __moveFwd_return
21	146	0	#line 146 "C:\Users\ptan\Dropbox\robots\Final_Project_OS\Project\Main2.nxc"
21	147	0		set __signed_stack_001moveBwd, 40
21	146	3	#line 146 "C:\Users\ptan\Dropbox\robots\Final_Project_OS\Project\Main2.nxc"
21	146	3	#line 146 "C:\Users\ptan\Dropbox\robots\Final_Project_OS\Project\Main2.nxc"
21	147	3		set __D0moveBwd, 2
21	147	6	#line 147 "C:\Users\ptan\Dropbox\robots\Final_Project_OS\Project\Main2.nxc"
21	148	6	#pragma macro 10
21	148	6		acquire __OnRevMutex
21	148	7		neg __OnRev_Tmp, __signed_stack_001moveBwd
21	148	10		setout __OUT_AC, 2, __OnRev_Tmp, 1, __constVal7, 8, __constVal2, 7, __D0moveBwd, 6, __constVal32, 5, __constVal0, 10, __constVal96, 11, __constVal32, 12, __constVal32, 0, __constVal63
21	148	33		release __OnRevMutex
21	7007	34	#line 7007 "C:\Users\ptan\Dropbox\robots\Final_Project_OS\Project\Main2.nxc"
21	147	34	#line 147 "C:\Users\ptan\Dropbox\robots\Final_Project_OS\Project\Main2.nxc"
21	147	34	#line 147 "C:\Users\ptan\Dropbox\robots\Final_Project_OS\Project\Main2.nxc"
21	148	34		mov __Wait_7qG2_ms_7qG2_000_inline_moveBwd, __moveBwd_7qG2_moveTime_7qG2_000
21	147	36	#line 147 "C:\Users\ptan\Dropbox\robots\Final_Project_OS\Project\Main2.nxc"
21	7921	36	#line 7921 "NXCDefs.h"
21	7922	36		wait2 NA, __Wait_7qG2_ms_7qG2_000_inline_moveBwd
21	7921	39	#line 7921 "NXCDefs.h"
21	148	39	#line 148 "C:\Users\ptan\Dropbox\robots\Final_Project_OS\Project\Main2.nxc"
21	149	39	#line 149 "C:\Users\ptan\Dropbox\robots\Final_Project_OS\Project\Main2.nxc"
21	150	39	#pragma macro 7
21	150	39		setout motors, 2, __constVal0, 1, __constVal3, 8, __constVal0, 6, __constVal32, 7, __constVal0, 5, __constVal0, 10, __constVal96, 11, __constVal32, 12, __constVal32, 0, __constVal63
21	7024	62	#line 7024 "C:\Users\ptan\Dropbox\robots\Final_Project_OS\Project\Main2.nxc"
21	149	62	#line 149 "C:\Users\ptan\Dropbox\robots\Final_Project_OS\Project\Main2.nxc"
21	150	62	#line 150 "C:\Users\ptan\Dropbox\robots\Final_Project_OS\Project\Main2.nxc"
21	151	62		subret __moveBwd_return
22	153	0	#line 153 "C:\Users\ptan\Dropbox\robots\Final_Project_OS\Project\Main2.nxc"
22	154	0		mov __DU0reverseDirection, scanningRight
22	154	3	#line 154 "C:\Users\ptan\Dropbox\robots\Final_Project_OS\Project\Main2.nxc"
22	155	3		tst 5, __zfreverseDirection, __DU0reverseDirection
22	154	6	#line 154 "C:\Users\ptan\Dropbox\robots\Final_Project_OS\Project\Main2.nxc"
22	155	6		brtst 4, __NXC_Label_657, __zfreverseDirection
22	154	9	#line 154 "C:\Users\ptan\Dropbox\robots\Final_Project_OS\Project\Main2.nxc"
22	155	9		set __D0reverseDirection, 25
22	155	12	#line 155 "C:\Users\ptan\Dropbox\robots\Final_Project_OS\Project\Main2.nxc"
22	156	12	#pragma macro 7
22	156	12		setout RMotor, 2, __D0reverseDirection, 1, __constVal3, 8, __constVal0, 6, __constVal32, 7, __constVal0, 5, __constVal0, 10, __constVal96, 11, __constVal32, 12, __constVal32, 0, __constVal63
22	7044	35	#line 7044 "C:\Users\ptan\Dropbox\robots\Final_Project_OS\Project\Main2.nxc"
22	155	35	#line 155 "C:\Users\ptan\Dropbox\robots\Final_Project_OS\Project\Main2.nxc"
22	155	35	#line 155 "C:\Users\ptan\Dropbox\robots\Final_Project_OS\Project\Main2.nxc"
22	156	35		set __D0reverseDirection, 25
22	156	38	#line 156 "C:\Users\ptan\Dropbox\robots\Final_Project_OS\Project\Main2.nxc"
22	157	38	#pragma macro 10
22	157	38		acquire __OnRevMutex
22	157	39		neg __OnRev_Tmp, __D0reverseDirection
22	157	42		setout LMotor, 2, __OnRev_Tmp, 1, __constVal3, 8, __constVal0, 6, __constVal32, 7, __constVal0, 5, __constVal0, 10, __constVal96, 11, __constVal32, 12, __constVal32, 0, __constVal63
22	157	65		release __OnRevMutex
22	7051	66	#line 7051 "C:\Users\ptan\Dropbox\robots\Final_Project_OS\Project\Main2.nxc"
22	156	66	#line 156 "C:\Users\ptan\Dropbox\robots\Final_Project_OS\Project\Main2.nxc"
22	159	66	#line 159 "C:\Users\ptan\Dropbox\robots\Final_Project_OS\Project\Main2.nxc"
22	160	66		jmp __NXC_Label_662
22	159	68	#line 159 "C:\Users\ptan\Dropbox\robots\Final_Project_OS\Project\Main2.nxc"
22	160	68		set __D0reverseDirection, 25
22	160	71	#line 160 "C:\Users\ptan\Dropbox\robots\Final_Project_OS\Project\Main2.nxc"
22	161	71	#pragma macro 7
22	161	71		setout LMotor, 2, __D0reverseDirection, 1, __constVal3, 8, __constVal0, 6, __constVal32, 7, __constVal0, 5, __constVal0, 10, __constVal96, 11, __constVal32, 12, __constVal32, 0, __constVal63
22	7061	94	#line 7061 "C:\Users\ptan\Dropbox\robots\Final_Project_OS\Project\Main2.nxc"
22	160	94	#line 160 "C:\Users\ptan\Dropbox\robots\Final_Project_OS\Project\Main2.nxc"
22	160	94	#line 160 "C:\Users\ptan\Dropbox\robots\Final_Project_OS\Project\Main2.nxc"
22	161	94		set __D0reverseDirection, 25
22	161	97	#line 161 "C:\Users\ptan\Dropbox\robots\Final_Project_OS\Project\Main2.nxc"
22	162	97	#pragma macro 10
22	162	97		acquire __OnRevMutex
22	162	98		neg __OnRev_Tmp, __D0reverseDirection
22	162	101		setout RMotor, 2, __OnRev_Tmp, 1, __constVal3, 8, __constVal0, 6, __constVal32, 7, __constVal0, 5, __constVal0, 10, __constVal96, 11, __constVal32, 12, __constVal32, 0, __constVal63
22	162	124		release __OnRevMutex
22	7068	125	#line 7068 "C:\Users\ptan\Dropbox\robots\Final_Project_OS\Project\Main2.nxc"
22	161	125	#line 161 "C:\Users\ptan\Dropbox\robots\Final_Project_OS\Project\Main2.nxc"
22	162	125	#line 162 "C:\Users\ptan\Dropbox\robots\Final_Project_OS\Project\Main2.nxc"
22	162	125	#line 162 "C:\Users\ptan\Dropbox\robots\Final_Project_OS\Project\Main2.nxc"
22	163	125		mov __Wait_7qG2_ms_7qG2_000_inline_reverseDirection, __reverseDirection_7qG2_moveTime_7qG2_000
22	162	127	#line 162 "C:\Users\ptan\Dropbox\robots\Final_Project_OS\Project\Main2.nxc"
22	7921	127	#line 7921 "NXCDefs.h"
22	7922	127		wait2 NA, __Wait_7qG2_ms_7qG2_000_inline_reverseDirection
22	7921	130	#line 7921 "NXCDefs.h"
22	163	130	#line 163 "C:\Users\ptan\Dropbox\robots\Final_Project_OS\Project\Main2.nxc"
22	166	130	#line 166 "C:\Users\ptan\Dropbox\robots\Final_Project_OS\Project\Main2.nxc"
22	167	130		subret __reverseDirection_return
23	168	0	#line 168 "C:\Users\ptan\Dropbox\robots\Final_Project_OS\Project\Main2.nxc"
23	169	0		getin __signed_stack_001checkWallBack, __constVal3, 4
23	168	4	#line 168 "C:\Users\ptan\Dropbox\robots\Final_Project_OS\Project\Main2.nxc"
23	169	4	#line 169 "C:\Users\ptan\Dropbox\robots\Final_Project_OS\Project\Main2.nxc"
23	170	4		set __D0checkWallBack, 1
23	169	7	#line 169 "C:\Users\ptan\Dropbox\robots\Final_Project_OS\Project\Main2.nxc"
23	170	7		cmp 4, __zfcheckWallBack, __signed_stack_001checkWallBack, __D0checkWallBack
23	169	11	#line 169 "C:\Users\ptan\Dropbox\robots\Final_Project_OS\Project\Main2.nxc"
23	170	11		mov __D0checkWallBack, __zfcheckWallBack
23	170	14	#line 170 "C:\Users\ptan\Dropbox\robots\Final_Project_OS\Project\Main2.nxc"
23	171	14		brtst 4, __NXC_Label_671, __zfcheckWallBack
23	171	17	#line 171 "C:\Users\ptan\Dropbox\robots\Final_Project_OS\Project\Main2.nxc"
23	172	17		set __DU0checkWallBack, 1
23	171	20	#line 171 "C:\Users\ptan\Dropbox\robots\Final_Project_OS\Project\Main2.nxc"
23	171	20	#line 171 "C:\Users\ptan\Dropbox\robots\Final_Project_OS\Project\Main2.nxc"
23	172	20		subret __checkWallBack_return
23	171	22	#line 171 "C:\Users\ptan\Dropbox\robots\Final_Project_OS\Project\Main2.nxc"
23	172	22	#line 172 "C:\Users\ptan\Dropbox\robots\Final_Project_OS\Project\Main2.nxc"
23	173	22	#line 173 "C:\Users\ptan\Dropbox\robots\Final_Project_OS\Project\Main2.nxc"
23	174	22		set __DU0checkWallBack, 0
23	173	25	#line 173 "C:\Users\ptan\Dropbox\robots\Final_Project_OS\Project\Main2.nxc"
23	173	25	#line 173 "C:\Users\ptan\Dropbox\robots\Final_Project_OS\Project\Main2.nxc"
23	174	25		subret __checkWallBack_return
23	173	27	#line 173 "C:\Users\ptan\Dropbox\robots\Final_Project_OS\Project\Main2.nxc"
23	174	27	#line 174 "C:\Users\ptan\Dropbox\robots\Final_Project_OS\Project\Main2.nxc"
23	175	27		subret __checkWallBack_return
24	175	0	#line 175 "C:\Users\ptan\Dropbox\robots\Final_Project_OS\Project\Main2.nxc"
24	176	0		set __D0reading, 1
24	177	3	#line 177 "C:\Users\ptan\Dropbox\robots\Final_Project_OS\Project\Main2.nxc"
24	178	3		tst 5, __zfreading, __D0reading
24	177	6	#line 177 "C:\Users\ptan\Dropbox\robots\Final_Project_OS\Project\Main2.nxc"
24	178	6		brtst 4, __NXC_Label_677, __zfreading
24	179	9	#line 179 "C:\Users\ptan\Dropbox\robots\Final_Project_OS\Project\Main2.nxc"
24	180	9		acquire moveMutex
24	179	10	#line 179 "C:\Users\ptan\Dropbox\robots\Final_Project_OS\Project\Main2.nxc"
24	179	10	#line 179 "C:\Users\ptan\Dropbox\robots\Final_Project_OS\Project\Main2.nxc"
24	180	10	#pragma macro 30
24	180	10		acquire __RLSBmutex1
24	180	11		mov __RLSReadBuf1, __RLSBbufLSWrite1
24	180	13		set __RLSBytesCount1, 2
24	180	16		subcall __ReadLSBytes1, ____ReadLSBytes1_return
24	180	19		index __D0reading, __RLSReadBuf1, 65535
24	180	23		index __RLSBytesCount1, __RLSReadBuf1, __constVal1
24	180	27		add __D0reading, __D0reading, __D0reading
24	180	31		add __D0reading, __D0reading, __RLSBytesCount1
24	180	35		release __RLSBmutex1
24	7143	36	#line 7143 "C:\Users\ptan\Dropbox\robots\Final_Project_OS\Project\Main2.nxc"
24	179	36	#line 179 "C:\Users\ptan\Dropbox\robots\Final_Project_OS\Project\Main2.nxc"
24	180	36		mov currentCompass, __D0reading
24	179	38	#line 179 "C:\Users\ptan\Dropbox\robots\Final_Project_OS\Project\Main2.nxc"
24	179	38	#line 179 "C:\Users\ptan\Dropbox\robots\Final_Project_OS\Project\Main2.nxc"
24	6069	38	#line 6069 "NXCDefs.h"
24	6070	38	#pragma macro 6
24	6070	38		acquire __PointOutMutex
24	6070	39		mov __PointOutArgs.Location.X, __constVal200
24	6070	42		mov __PointOutArgs.Location.Y, __constVal200
24	6070	45		mov __PointOutArgs.Options, __constVal1
24	6070	47		syscall 14, __PointOutArgs
24	6070	50		release __PointOutMutex
24	7151	51	#line 7151 "NXCDefs.h"
24	6069	51	#line 6069 "NXCDefs.h"
24	182	51	#line 182 "C:\Users\ptan\Dropbox\robots\Final_Project_OS\Project\Main2.nxc"
24	182	51	#line 182 "C:\Users\ptan\Dropbox\robots\Final_Project_OS\Project\Main2.nxc"
24	183	51		set __signed_stack_001reading, 10
24	182	54	#line 182 "C:\Users\ptan\Dropbox\robots\Final_Project_OS\Project\Main2.nxc"
24	182	54	#line 182 "C:\Users\ptan\Dropbox\robots\Final_Project_OS\Project\Main2.nxc"
24	183	54		set __signed_stack_002reading, 56
24	182	57	#line 182 "C:\Users\ptan\Dropbox\robots\Final_Project_OS\Project\Main2.nxc"
24	182	57	#line 182 "C:\Users\ptan\Dropbox\robots\Final_Project_OS\Project\Main2.nxc"
24	183	57		strcat __strbufreading, __constStr0009
24	183	61	#line 183 "C:\Users\ptan\Dropbox\robots\Final_Project_OS\Project\Main2.nxc"
24	184	61		acquire __TextOutMutex
24	183	62	#line 183 "C:\Users\ptan\Dropbox\robots\Final_Project_OS\Project\Main2.nxc"
24	184	62		mov __TextOutArgs.Location.X, __signed_stack_001reading
24	183	65	#line 183 "C:\Users\ptan\Dropbox\robots\Final_Project_OS\Project\Main2.nxc"
24	184	65		mov __TextOutArgs.Location.Y, __signed_stack_002reading
24	183	68	#line 183 "C:\Users\ptan\Dropbox\robots\Final_Project_OS\Project\Main2.nxc"
24	184	68		set __TextOutArgs.Options, 0
24	183	71	#line 183 "C:\Users\ptan\Dropbox\robots\Final_Project_OS\Project\Main2.nxc"
24	184	71		mov __TextOutArgs.Text, __strbufreading
24	183	73	#line 183 "C:\Users\ptan\Dropbox\robots\Final_Project_OS\Project\Main2.nxc"
24	184	73		syscall 13, __TextOutArgs
24	183	76	#line 183 "C:\Users\ptan\Dropbox\robots\Final_Project_OS\Project\Main2.nxc"
24	184	76		mov __D0reading, __TextOutArgs.Result
24	183	79	#line 183 "C:\Users\ptan\Dropbox\robots\Final_Project_OS\Project\Main2.nxc"
24	184	79		release __TextOutMutex
24	183	80	#line 183 "C:\Users\ptan\Dropbox\robots\Final_Project_OS\Project\Main2.nxc"
24	183	80	#line 183 "C:\Users\ptan\Dropbox\robots\Final_Project_OS\Project\Main2.nxc"
24	184	80		set __signed_stack_001reading, 10
24	183	83	#line 183 "C:\Users\ptan\Dropbox\robots\Final_Project_OS\Project\Main2.nxc"
24	183	83	#line 183 "C:\Users\ptan\Dropbox\robots\Final_Project_OS\Project\Main2.nxc"
24	184	83		set __signed_stack_002reading, 48
24	183	86	#line 183 "C:\Users\ptan\Dropbox\robots\Final_Project_OS\Project\Main2.nxc"
24	183	86	#line 183 "C:\Users\ptan\Dropbox\robots\Final_Project_OS\Project\Main2.nxc"
24	184	86		mov __D0reading, ownGoal
24	185	88	#line 185 "C:\Users\ptan\Dropbox\robots\Final_Project_OS\Project\Main2.nxc"
24	186	88		acquire __TextOutMutex
24	185	89	#line 185 "C:\Users\ptan\Dropbox\robots\Final_Project_OS\Project\Main2.nxc"
24	186	89		mov __TextOutArgs.Location.X, __signed_stack_001reading
24	185	92	#line 185 "C:\Users\ptan\Dropbox\robots\Final_Project_OS\Project\Main2.nxc"
24	186	92		mov __TextOutArgs.Location.Y, __signed_stack_002reading
24	185	95	#line 185 "C:\Users\ptan\Dropbox\robots\Final_Project_OS\Project\Main2.nxc"
24	186	95		set __TextOutArgs.Options, 0
24	185	98	#line 185 "C:\Users\ptan\Dropbox\robots\Final_Project_OS\Project\Main2.nxc"
24	186	98		numtostr __TextOutArgs.Text, __D0reading
24	185	101	#line 185 "C:\Users\ptan\Dropbox\robots\Final_Project_OS\Project\Main2.nxc"
24	186	101		syscall 13, __TextOutArgs
24	185	104	#line 185 "C:\Users\ptan\Dropbox\robots\Final_Project_OS\Project\Main2.nxc"
24	186	104		mov __D0reading, __TextOutArgs.Result
24	185	107	#line 185 "C:\Users\ptan\Dropbox\robots\Final_Project_OS\Project\Main2.nxc"
24	186	107		release __TextOutMutex
24	185	108	#line 185 "C:\Users\ptan\Dropbox\robots\Final_Project_OS\Project\Main2.nxc"
24	185	108	#line 185 "C:\Users\ptan\Dropbox\robots\Final_Project_OS\Project\Main2.nxc"
24	186	108		set __signed_stack_001reading, 10
24	185	111	#line 185 "C:\Users\ptan\Dropbox\robots\Final_Project_OS\Project\Main2.nxc"
24	185	111	#line 185 "C:\Users\ptan\Dropbox\robots\Final_Project_OS\Project\Main2.nxc"
24	186	111		set __signed_stack_002reading, 40
24	185	114	#line 185 "C:\Users\ptan\Dropbox\robots\Final_Project_OS\Project\Main2.nxc"
24	185	114	#line 185 "C:\Users\ptan\Dropbox\robots\Final_Project_OS\Project\Main2.nxc"
24	186	114		strcat __strbufreading, __constStr0010
24	186	118	#line 186 "C:\Users\ptan\Dropbox\robots\Final_Project_OS\Project\Main2.nxc"
24	187	118		acquire __TextOutMutex
24	186	119	#line 186 "C:\Users\ptan\Dropbox\robots\Final_Project_OS\Project\Main2.nxc"
24	187	119		mov __TextOutArgs.Location.X, __signed_stack_001reading
24	186	122	#line 186 "C:\Users\ptan\Dropbox\robots\Final_Project_OS\Project\Main2.nxc"
24	187	122		mov __TextOutArgs.Location.Y, __signed_stack_002reading
24	186	125	#line 186 "C:\Users\ptan\Dropbox\robots\Final_Project_OS\Project\Main2.nxc"
24	187	125		set __TextOutArgs.Options, 0
24	186	128	#line 186 "C:\Users\ptan\Dropbox\robots\Final_Project_OS\Project\Main2.nxc"
24	187	128		mov __TextOutArgs.Text, __strbufreading
24	186	130	#line 186 "C:\Users\ptan\Dropbox\robots\Final_Project_OS\Project\Main2.nxc"
24	187	130		syscall 13, __TextOutArgs
24	186	133	#line 186 "C:\Users\ptan\Dropbox\robots\Final_Project_OS\Project\Main2.nxc"
24	187	133		mov __D0reading, __TextOutArgs.Result
24	186	136	#line 186 "C:\Users\ptan\Dropbox\robots\Final_Project_OS\Project\Main2.nxc"
24	187	136		release __TextOutMutex
24	186	137	#line 186 "C:\Users\ptan\Dropbox\robots\Final_Project_OS\Project\Main2.nxc"
24	186	137	#line 186 "C:\Users\ptan\Dropbox\robots\Final_Project_OS\Project\Main2.nxc"
24	187	137		set __signed_stack_001reading, 10
24	186	140	#line 186 "C:\Users\ptan\Dropbox\robots\Final_Project_OS\Project\Main2.nxc"
24	186	140	#line 186 "C:\Users\ptan\Dropbox\robots\Final_Project_OS\Project\Main2.nxc"
24	187	140		set __signed_stack_002reading, 32
24	186	143	#line 186 "C:\Users\ptan\Dropbox\robots\Final_Project_OS\Project\Main2.nxc"
24	186	143	#line 186 "C:\Users\ptan\Dropbox\robots\Final_Project_OS\Project\Main2.nxc"
24	187	143		mov __D0reading, currentCompass
24	188	145	#line 188 "C:\Users\ptan\Dropbox\robots\Final_Project_OS\Project\Main2.nxc"
24	189	145		acquire __TextOutMutex
24	188	146	#line 188 "C:\Users\ptan\Dropbox\robots\Final_Project_OS\Project\Main2.nxc"
24	189	146		mov __TextOutArgs.Location.X, __signed_stack_001reading
24	188	149	#line 188 "C:\Users\ptan\Dropbox\robots\Final_Project_OS\Project\Main2.nxc"
24	189	149		mov __TextOutArgs.Location.Y, __signed_stack_002reading
24	188	152	#line 188 "C:\Users\ptan\Dropbox\robots\Final_Project_OS\Project\Main2.nxc"
24	189	152		set __TextOutArgs.Options, 0
24	188	155	#line 188 "C:\Users\ptan\Dropbox\robots\Final_Project_OS\Project\Main2.nxc"
24	189	155		numtostr __TextOutArgs.Text, __D0reading
24	188	158	#line 188 "C:\Users\ptan\Dropbox\robots\Final_Project_OS\Project\Main2.nxc"
24	189	158		syscall 13, __TextOutArgs
24	188	161	#line 188 "C:\Users\ptan\Dropbox\robots\Final_Project_OS\Project\Main2.nxc"
24	189	161		mov __D0reading, __TextOutArgs.Result
24	188	164	#line 188 "C:\Users\ptan\Dropbox\robots\Final_Project_OS\Project\Main2.nxc"
24	189	164		release __TextOutMutex
24	188	165	#line 188 "C:\Users\ptan\Dropbox\robots\Final_Project_OS\Project\Main2.nxc"
24	188	165	#line 188 "C:\Users\ptan\Dropbox\robots\Final_Project_OS\Project\Main2.nxc"
24	189	165		mov __getDegreeDiff_7qG2_current_7qG2_000, currentCompass
24	188	167	#line 188 "C:\Users\ptan\Dropbox\robots\Final_Project_OS\Project\Main2.nxc"
24	188	167	#line 188 "C:\Users\ptan\Dropbox\robots\Final_Project_OS\Project\Main2.nxc"
24	189	167		mov __getDegreeDiff_7qG2_old_7qG2_000, ownGoal
24	188	169	#line 188 "C:\Users\ptan\Dropbox\robots\Final_Project_OS\Project\Main2.nxc"
24	189	169	#line 189 "C:\Users\ptan\Dropbox\robots\Final_Project_OS\Project\Main2.nxc"
24	190	169		subcall getDegreeDiff, __getDegreeDiff_return
24	189	172	#line 189 "C:\Users\ptan\Dropbox\robots\Final_Project_OS\Project\Main2.nxc"
24	190	172		mov relBearing, __D0getDegreeDiff
24	189	174	#line 189 "C:\Users\ptan\Dropbox\robots\Final_Project_OS\Project\Main2.nxc"
24	189	174	#line 189 "C:\Users\ptan\Dropbox\robots\Final_Project_OS\Project\Main2.nxc"
24	189	174	#line 189 "C:\Users\ptan\Dropbox\robots\Final_Project_OS\Project\Main2.nxc"
24	190	174		set __signed_stack_001reading, 10
24	189	177	#line 189 "C:\Users\ptan\Dropbox\robots\Final_Project_OS\Project\Main2.nxc"
24	189	177	#line 189 "C:\Users\ptan\Dropbox\robots\Final_Project_OS\Project\Main2.nxc"
24	190	177		set __signed_stack_002reading, 24
24	189	180	#line 189 "C:\Users\ptan\Dropbox\robots\Final_Project_OS\Project\Main2.nxc"
24	189	180	#line 189 "C:\Users\ptan\Dropbox\robots\Final_Project_OS\Project\Main2.nxc"
24	190	180		strcat __strbufreading, __constStr0011
24	190	184	#line 190 "C:\Users\ptan\Dropbox\robots\Final_Project_OS\Project\Main2.nxc"
24	191	184		acquire __TextOutMutex
24	190	185	#line 190 "C:\Users\ptan\Dropbox\robots\Final_Project_OS\Project\Main2.nxc"
24	191	185		mov __TextOutArgs.Location.X, __signed_stack_001reading
24	190	188	#line 190 "C:\Users\ptan\Dropbox\robots\Final_Project_OS\Project\Main2.nxc"
24	191	188		mov __TextOutArgs.Location.Y, __signed_stack_002reading
24	190	191	#line 190 "C:\Users\ptan\Dropbox\robots\Final_Project_OS\Project\Main2.nxc"
24	191	191		set __TextOutArgs.Options, 0
24	190	194	#line 190 "C:\Users\ptan\Dropbox\robots\Final_Project_OS\Project\Main2.nxc"
24	191	194		mov __TextOutArgs.Text, __strbufreading
24	190	196	#line 190 "C:\Users\ptan\Dropbox\robots\Final_Project_OS\Project\Main2.nxc"
24	191	196		syscall 13, __TextOutArgs
24	190	199	#line 190 "C:\Users\ptan\Dropbox\robots\Final_Project_OS\Project\Main2.nxc"
24	191	199		mov __D0reading, __TextOutArgs.Result
24	190	202	#line 190 "C:\Users\ptan\Dropbox\robots\Final_Project_OS\Project\Main2.nxc"
24	191	202		release __TextOutMutex
24	190	203	#line 190 "C:\Users\ptan\Dropbox\robots\Final_Project_OS\Project\Main2.nxc"
24	190	203	#line 190 "C:\Users\ptan\Dropbox\robots\Final_Project_OS\Project\Main2.nxc"
24	191	203		set __signed_stack_001reading, 10
24	190	206	#line 190 "C:\Users\ptan\Dropbox\robots\Final_Project_OS\Project\Main2.nxc"
24	190	206	#line 190 "C:\Users\ptan\Dropbox\robots\Final_Project_OS\Project\Main2.nxc"
24	191	206		set __signed_stack_002reading, 16
24	190	209	#line 190 "C:\Users\ptan\Dropbox\robots\Final_Project_OS\Project\Main2.nxc"
24	190	209	#line 190 "C:\Users\ptan\Dropbox\robots\Final_Project_OS\Project\Main2.nxc"
24	191	209		mov __D0reading, relBearing
24	191	211	#line 191 "C:\Users\ptan\Dropbox\robots\Final_Project_OS\Project\Main2.nxc"
24	192	211		acquire __TextOutMutex
24	191	212	#line 191 "C:\Users\ptan\Dropbox\robots\Final_Project_OS\Project\Main2.nxc"
24	192	212		mov __TextOutArgs.Location.X, __signed_stack_001reading
24	191	215	#line 191 "C:\Users\ptan\Dropbox\robots\Final_Project_OS\Project\Main2.nxc"
24	192	215		mov __TextOutArgs.Location.Y, __signed_stack_002reading
24	191	218	#line 191 "C:\Users\ptan\Dropbox\robots\Final_Project_OS\Project\Main2.nxc"
24	192	218		set __TextOutArgs.Options, 0
24	191	221	#line 191 "C:\Users\ptan\Dropbox\robots\Final_Project_OS\Project\Main2.nxc"
24	192	221		numtostr __TextOutArgs.Text, __D0reading
24	191	224	#line 191 "C:\Users\ptan\Dropbox\robots\Final_Project_OS\Project\Main2.nxc"
24	192	224		syscall 13, __TextOutArgs
24	191	227	#line 191 "C:\Users\ptan\Dropbox\robots\Final_Project_OS\Project\Main2.nxc"
24	192	227		mov __D0reading, __TextOutArgs.Result
24	191	230	#line 191 "C:\Users\ptan\Dropbox\robots\Final_Project_OS\Project\Main2.nxc"
24	192	230		release __TextOutMutex
24	191	231	#line 191 "C:\Users\ptan\Dropbox\robots\Final_Project_OS\Project\Main2.nxc"
24	191	231	#line 191 "C:\Users\ptan\Dropbox\robots\Final_Project_OS\Project\Main2.nxc"
24	192	231		subcall checkWallBack, __checkWallBack_return
24	191	233	#line 191 "C:\Users\ptan\Dropbox\robots\Final_Project_OS\Project\Main2.nxc"
24	192	233		mov __unsigned_stack_001reading, __DU0checkWallBack
24	191	235	#line 191 "C:\Users\ptan\Dropbox\robots\Final_Project_OS\Project\Main2.nxc"
24	192	235	#line 192 "C:\Users\ptan\Dropbox\robots\Final_Project_OS\Project\Main2.nxc"
24	193	235		set __D0reading, 0
24	192	238	#line 192 "C:\Users\ptan\Dropbox\robots\Final_Project_OS\Project\Main2.nxc"
24	193	238		cmp 4, __zfreading, __unsigned_stack_001reading, __D0reading
24	192	242	#line 192 "C:\Users\ptan\Dropbox\robots\Final_Project_OS\Project\Main2.nxc"
24	193	242		mov __D0reading, __zfreading
24	193	245	#line 193 "C:\Users\ptan\Dropbox\robots\Final_Project_OS\Project\Main2.nxc"
24	194	245		brtst 4, __NXC_Label_720, __zfreading
24	193	248	#line 193 "C:\Users\ptan\Dropbox\robots\Final_Project_OS\Project\Main2.nxc"
24	194	248		mov __signed_stack_001reading, relBearing
24	193	250	#line 193 "C:\Users\ptan\Dropbox\robots\Final_Project_OS\Project\Main2.nxc"
24	194	250	#line 194 "C:\Users\ptan\Dropbox\robots\Final_Project_OS\Project\Main2.nxc"
24	195	250		set __D0reading, 75
24	194	253	#line 194 "C:\Users\ptan\Dropbox\robots\Final_Project_OS\Project\Main2.nxc"
24	195	253		cmp 0, __zfreading, __signed_stack_001reading, __D0reading
24	194	257	#line 194 "C:\Users\ptan\Dropbox\robots\Final_Project_OS\Project\Main2.nxc"
24	195	257		mov __D0reading, __zfreading
24	196	260	#line 196 "C:\Users\ptan\Dropbox\robots\Final_Project_OS\Project\Main2.nxc"
24	197	260		brtst 4, __NXC_Label_723, __zfreading
24	196	263	#line 196 "C:\Users\ptan\Dropbox\robots\Final_Project_OS\Project\Main2.nxc"
24	197	263		set __ClearSensor_7qG2_port_7qG2_000_inline_reading, 0
24	196	266	#line 196 "C:\Users\ptan\Dropbox\robots\Final_Project_OS\Project\Main2.nxc"
24	3684	266	#line 3684 "NXCDefs.h"
24	3685	266		setin __constVal0, __ClearSensor_7qG2_port_7qG2_000_inline_reading, 4
24	3684	270	#line 3684 "NXCDefs.h"
24	197	270	#line 197 "C:\Users\ptan\Dropbox\robots\Final_Project_OS\Project\Main2.nxc"
24	197	270	#line 197 "C:\Users\ptan\Dropbox\robots\Final_Project_OS\Project\Main2.nxc"
24	198	270	#pragma macro 26
24	198	270		acquire __RLSBmutex0
24	198	271		mov __RLSReadBuf0, __RLSBbufLSWrite1
24	198	273		set __RLSBytesCount0, 1
24	198	276		wait2 NA, __constVal15
24	198	279		subcall __ReadLSBytes0, ____ReadLSBytes0_return
24	198	282		index __D0reading, __RLSReadBuf0, 65535
24	198	286		release __RLSBmutex0
24	7412	287	#line 7412 "C:\Users\ptan\Dropbox\robots\Final_Project_OS\Project\Main2.nxc"
24	197	287	#line 197 "C:\Users\ptan\Dropbox\robots\Final_Project_OS\Project\Main2.nxc"
24	198	287		mov __signed_stack_001reading, __D0reading
24	198	289	#line 198 "C:\Users\ptan\Dropbox\robots\Final_Project_OS\Project\Main2.nxc"
24	199	289		set __D0reading, 40
24	198	292	#line 198 "C:\Users\ptan\Dropbox\robots\Final_Project_OS\Project\Main2.nxc"
24	199	292		cmp 2, __zfreading, __signed_stack_001reading, __D0reading
24	198	296	#line 198 "C:\Users\ptan\Dropbox\robots\Final_Project_OS\Project\Main2.nxc"
24	199	296		mov __D0reading, __zfreading
24	200	299	#line 200 "C:\Users\ptan\Dropbox\robots\Final_Project_OS\Project\Main2.nxc"
24	201	299		brtst 4, __NXC_Label_728, __zfreading
24	201	302	#line 201 "C:\Users\ptan\Dropbox\robots\Final_Project_OS\Project\Main2.nxc"
24	202	302	#pragma macro 7
24	202	302		setout motors, 2, __constVal0, 1, __constVal3, 8, __constVal0, 6, __constVal32, 7, __constVal0, 5, __constVal0, 10, __constVal96, 11, __constVal32, 12, __constVal32, 0, __constVal63
24	7426	325	#line 7426 "C:\Users\ptan\Dropbox\robots\Final_Project_OS\Project\Main2.nxc"
24	201	325	#line 201 "C:\Users\ptan\Dropbox\robots\Final_Project_OS\Project\Main2.nxc"
24	202	325	#line 202 "C:\Users\ptan\Dropbox\robots\Final_Project_OS\Project\Main2.nxc"
24	203	325		subcall moveTowardObj, __moveTowardObj_return
24	202	327	#line 202 "C:\Users\ptan\Dropbox\robots\Final_Project_OS\Project\Main2.nxc"
24	203	327		mov __reading_7qG2_grab_7qG2_004, __DU0moveTowardObj
24	202	330	#line 202 "C:\Users\ptan\Dropbox\robots\Final_Project_OS\Project\Main2.nxc"
24	203	330	#line 203 "C:\Users\ptan\Dropbox\robots\Final_Project_OS\Project\Main2.nxc"
24	204	330		mov __DU0reading, __DU0moveTowardObj
24	204	332	#line 204 "C:\Users\ptan\Dropbox\robots\Final_Project_OS\Project\Main2.nxc"
24	205	332		tst 5, __zfreading, __DU0reading
24	204	335	#line 204 "C:\Users\ptan\Dropbox\robots\Final_Project_OS\Project\Main2.nxc"
24	205	335		brtst 4, __NXC_Label_733, __zfreading
24	205	338	#line 205 "C:\Users\ptan\Dropbox\robots\Final_Project_OS\Project\Main2.nxc"
24	206	338		subcall checkandthrow, __checkandthrow_return
24	205	340	#line 205 "C:\Users\ptan\Dropbox\robots\Final_Project_OS\Project\Main2.nxc"
24	206	340		mov __reading_7qG2_grab_7qG2_004, __DU0checkandthrow
24	205	342	#line 205 "C:\Users\ptan\Dropbox\robots\Final_Project_OS\Project\Main2.nxc"
24	205	342	#line 205 "C:\Users\ptan\Dropbox\robots\Final_Project_OS\Project\Main2.nxc"
24	207	342	#line 207 "C:\Users\ptan\Dropbox\robots\Final_Project_OS\Project\Main2.nxc"
24	208	342	#line 208 "C:\Users\ptan\Dropbox\robots\Final_Project_OS\Project\Main2.nxc"
24	208	342	#line 208 "C:\Users\ptan\Dropbox\robots\Final_Project_OS\Project\Main2.nxc"
24	209	342		not __DU0reading, __reading_7qG2_grab_7qG2_004
24	209	345	#line 209 "C:\Users\ptan\Dropbox\robots\Final_Project_OS\Project\Main2.nxc"
24	210	345		tst 5, __zfreading, __DU0reading
24	209	348	#line 209 "C:\Users\ptan\Dropbox\robots\Final_Project_OS\Project\Main2.nxc"
24	210	348		brtst 4, __NXC_Label_738, __zfreading
24	209	351	#line 209 "C:\Users\ptan\Dropbox\robots\Final_Project_OS\Project\Main2.nxc"
24	210	351		set __PlaySound_7qG2_aCode_7qG2_000, 3
24	209	354	#line 209 "C:\Users\ptan\Dropbox\robots\Final_Project_OS\Project\Main2.nxc"
24	211	354	#line 211 "C:\Users\ptan\Dropbox\robots\Final_Project_OS\Project\Main2.nxc"
24	212	354		subcall PlaySound, __PlaySound_return
24	211	356	#line 211 "C:\Users\ptan\Dropbox\robots\Final_Project_OS\Project\Main2.nxc"
24	211	356	#line 211 "C:\Users\ptan\Dropbox\robots\Final_Project_OS\Project\Main2.nxc"
24	212	356		set __moveBwd_7qG2_moveTime_7qG2_000, 5000
24	211	359	#line 211 "C:\Users\ptan\Dropbox\robots\Final_Project_OS\Project\Main2.nxc"
24	212	359	#line 212 "C:\Users\ptan\Dropbox\robots\Final_Project_OS\Project\Main2.nxc"
24	213	359		subcall moveBwd, __moveBwd_return
24	212	361	#line 212 "C:\Users\ptan\Dropbox\robots\Final_Project_OS\Project\Main2.nxc"
24	213	361	#line 213 "C:\Users\ptan\Dropbox\robots\Final_Project_OS\Project\Main2.nxc"
24	214	361		mov __DU0reading, scanningRight
24	217	364	#line 217 "C:\Users\ptan\Dropbox\robots\Final_Project_OS\Project\Main2.nxc"
24	218	364		tst 5, __zfreading, __DU0reading
24	217	367	#line 217 "C:\Users\ptan\Dropbox\robots\Final_Project_OS\Project\Main2.nxc"
24	218	367		brtst 4, __NXC_Label_745, __zfreading
24	217	370	#line 217 "C:\Users\ptan\Dropbox\robots\Final_Project_OS\Project\Main2.nxc"
24	218	370		set __signed_stack_001reading, 40
24	217	373	#line 217 "C:\Users\ptan\Dropbox\robots\Final_Project_OS\Project\Main2.nxc"
24	217	373	#line 217 "C:\Users\ptan\Dropbox\robots\Final_Project_OS\Project\Main2.nxc"
24	218	373		set __D0reading, 810
24	218	376	#line 218 "C:\Users\ptan\Dropbox\robots\Final_Project_OS\Project\Main2.nxc"
24	219	376	#pragma macro 22
24	219	376		acquire __rotateMutex0
24	219	377		acquire __rotateMutex1
24	219	378		acquire __rotateMutex2
24	219	379		arrbuild __rotate_ports6, RMotor
24	219	383		mov __rotate_power6, __signed_stack_001reading
24	219	385		mov __rotate_angle6, __D0reading
24	219	387		mov __rotate_turnpct6, __constVal0
24	219	389		mov __rotate_sync6, __constVal0
24	219	391		mov __rotate_stop6, __constVal1
24	219	393		mov __rotate_theRVP6, __constVal32
24	219	395		mov __rotate_theRVI6, __constVal0
24	219	397		mov __rotate_theRVD6, __constVal96
24	219	399		subcall __RotateMotorVar, ____RotateMotorVar_return
24	219	402		release __rotateMutex2
24	219	403		release __rotateMutex1
24	219	404		release __rotateMutex0
24	7506	405	#line 7506 "C:\Users\ptan\Dropbox\robots\Final_Project_OS\Project\Main2.nxc"
24	218	405	#line 218 "C:\Users\ptan\Dropbox\robots\Final_Project_OS\Project\Main2.nxc"
24	219	405	#line 219 "C:\Users\ptan\Dropbox\robots\Final_Project_OS\Project\Main2.nxc"
24	220	405	#pragma macro 7
24	220	405		setout motors, 2, __constVal0, 1, __constVal3, 8, __constVal0, 6, __constVal32, 7, __constVal0, 5, __constVal0, 10, __constVal96, 11, __constVal32, 12, __constVal32, 0, __constVal63
24	7509	428	#line 7509 "C:\Users\ptan\Dropbox\robots\Final_Project_OS\Project\Main2.nxc"
24	219	428	#line 219 "C:\Users\ptan\Dropbox\robots\Final_Project_OS\Project\Main2.nxc"
24	222	428	#line 222 "C:\Users\ptan\Dropbox\robots\Final_Project_OS\Project\Main2.nxc"
24	223	428		jmp __NXC_Label_750
24	222	430	#line 222 "C:\Users\ptan\Dropbox\robots\Final_Project_OS\Project\Main2.nxc"
24	223	430		set __signed_stack_001reading, 40
24	222	433	#line 222 "C:\Users\ptan\Dropbox\robots\Final_Project_OS\Project\Main2.nxc"
24	222	433	#line 222 "C:\Users\ptan\Dropbox\robots\Final_Project_OS\Project\Main2.nxc"
24	223	433		set __D0reading, 810
24	223	436	#line 223 "C:\Users\ptan\Dropbox\robots\Final_Project_OS\Project\Main2.nxc"
24	224	436	#pragma macro 22
24	224	436		acquire __rotateMutex0
24	224	437		acquire __rotateMutex1
24	224	438		acquire __rotateMutex2
24	224	439		arrbuild __rotate_ports6, LMotor
24	224	443		mov __rotate_power6, __signed_stack_001reading
24	224	445		mov __rotate_angle6, __D0reading
24	224	447		mov __rotate_turnpct6, __constVal0
24	224	449		mov __rotate_sync6, __constVal0
24	224	451		mov __rotate_stop6, __constVal1
24	224	453		mov __rotate_theRVP6, __constVal32
24	224	455		mov __rotate_theRVI6, __constVal0
24	224	457		mov __rotate_theRVD6, __constVal96
24	224	459		subcall __RotateMotorVar, ____RotateMotorVar_return
24	224	462		release __rotateMutex2
24	224	463		release __rotateMutex1
24	224	464		release __rotateMutex0
24	7525	465	#line 7525 "C:\Users\ptan\Dropbox\robots\Final_Project_OS\Project\Main2.nxc"
24	223	465	#line 223 "C:\Users\ptan\Dropbox\robots\Final_Project_OS\Project\Main2.nxc"
24	224	465	#line 224 "C:\Users\ptan\Dropbox\robots\Final_Project_OS\Project\Main2.nxc"
24	225	465	#pragma macro 7
24	225	465		setout motors, 2, __constVal0, 1, __constVal3, 8, __constVal0, 6, __constVal32, 7, __constVal0, 5, __constVal0, 10, __constVal96, 11, __constVal32, 12, __constVal32, 0, __constVal63
24	7528	488	#line 7528 "C:\Users\ptan\Dropbox\robots\Final_Project_OS\Project\Main2.nxc"
24	224	488	#line 224 "C:\Users\ptan\Dropbox\robots\Final_Project_OS\Project\Main2.nxc"
24	226	488	#line 226 "C:\Users\ptan\Dropbox\robots\Final_Project_OS\Project\Main2.nxc"
24	227	488	#line 227 "C:\Users\ptan\Dropbox\robots\Final_Project_OS\Project\Main2.nxc"
24	228	488		subcall changeDirection, __changeDirection_return
24	227	490	#line 227 "C:\Users\ptan\Dropbox\robots\Final_Project_OS\Project\Main2.nxc"
24	230	490	#line 230 "C:\Users\ptan\Dropbox\robots\Final_Project_OS\Project\Main2.nxc"
24	231	490	#line 231 "C:\Users\ptan\Dropbox\robots\Final_Project_OS\Project\Main2.nxc"
24	233	490	#line 233 "C:\Users\ptan\Dropbox\robots\Final_Project_OS\Project\Main2.nxc"
24	234	490		jmp __NXC_Label_755
24	234	492	#line 234 "C:\Users\ptan\Dropbox\robots\Final_Project_OS\Project\Main2.nxc"
24	235	492		mov __DU0reading, scanningRight
24	236	495	#line 236 "C:\Users\ptan\Dropbox\robots\Final_Project_OS\Project\Main2.nxc"
24	237	495		tst 5, __zfreading, __DU0reading
24	236	498	#line 236 "C:\Users\ptan\Dropbox\robots\Final_Project_OS\Project\Main2.nxc"
24	237	498		brtst 4, __NXC_Label_758, __zfreading
24	237	501	#line 237 "C:\Users\ptan\Dropbox\robots\Final_Project_OS\Project\Main2.nxc"
24	238	501		subcall backtoOrigin, __backtoOrigin_return
24	237	504	#line 237 "C:\Users\ptan\Dropbox\robots\Final_Project_OS\Project\Main2.nxc"
24	237	504	#line 237 "C:\Users\ptan\Dropbox\robots\Final_Project_OS\Project\Main2.nxc"
24	238	504		set __moveFwd_7qG2_moveTime_7qG2_000, 1000
24	237	507	#line 237 "C:\Users\ptan\Dropbox\robots\Final_Project_OS\Project\Main2.nxc"
24	238	507	#line 238 "C:\Users\ptan\Dropbox\robots\Final_Project_OS\Project\Main2.nxc"
24	239	507		subcall moveFwd, __moveFwd_return
24	238	509	#line 238 "C:\Users\ptan\Dropbox\robots\Final_Project_OS\Project\Main2.nxc"
24	239	509	#line 239 "C:\Users\ptan\Dropbox\robots\Final_Project_OS\Project\Main2.nxc"
24	241	509	#line 241 "C:\Users\ptan\Dropbox\robots\Final_Project_OS\Project\Main2.nxc"
24	242	509		subcall changeDirection, __changeDirection_return
24	241	511	#line 241 "C:\Users\ptan\Dropbox\robots\Final_Project_OS\Project\Main2.nxc"
24	242	511	#line 242 "C:\Users\ptan\Dropbox\robots\Final_Project_OS\Project\Main2.nxc"
24	243	511		release moveMutex
24	242	512	#line 242 "C:\Users\ptan\Dropbox\robots\Final_Project_OS\Project\Main2.nxc"
24	242	512	#line 242 "C:\Users\ptan\Dropbox\robots\Final_Project_OS\Project\Main2.nxc"
24	243	512		set __Wait_7qG2_ms_7qG2_000_inline_reading, 1000
24	242	515	#line 242 "C:\Users\ptan\Dropbox\robots\Final_Project_OS\Project\Main2.nxc"
24	7921	515	#line 7921 "NXCDefs.h"
24	7922	515		wait2 NA, __Wait_7qG2_ms_7qG2_000_inline_reading
24	7921	518	#line 7921 "NXCDefs.h"
24	243	518	#line 243 "C:\Users\ptan\Dropbox\robots\Final_Project_OS\Project\Main2.nxc"
24	244	518	#line 244 "C:\Users\ptan\Dropbox\robots\Final_Project_OS\Project\Main2.nxc"
24	245	518		acquire moveMutex
24	244	519	#line 244 "C:\Users\ptan\Dropbox\robots\Final_Project_OS\Project\Main2.nxc"
24	246	519	#line 246 "C:\Users\ptan\Dropbox\robots\Final_Project_OS\Project\Main2.nxc"
24	248	519	#line 248 "C:\Users\ptan\Dropbox\robots\Final_Project_OS\Project\Main2.nxc"
24	249	519		jmp __NXC_Label_763
24	248	521	#line 248 "C:\Users\ptan\Dropbox\robots\Final_Project_OS\Project\Main2.nxc"
24	249	521		set __moveFwd_7qG2_moveTime_7qG2_000, 4000
24	248	524	#line 248 "C:\Users\ptan\Dropbox\robots\Final_Project_OS\Project\Main2.nxc"
24	250	524	#line 250 "C:\Users\ptan\Dropbox\robots\Final_Project_OS\Project\Main2.nxc"
24	251	524		subcall moveFwd, __moveFwd_return
24	250	526	#line 250 "C:\Users\ptan\Dropbox\robots\Final_Project_OS\Project\Main2.nxc"
24	251	526	#line 251 "C:\Users\ptan\Dropbox\robots\Final_Project_OS\Project\Main2.nxc"
24	252	526		set __D0reading, 1
24	252	529	#line 252 "C:\Users\ptan\Dropbox\robots\Final_Project_OS\Project\Main2.nxc"
24	253	529		tst 5, __zfreading, __D0reading
24	252	532	#line 252 "C:\Users\ptan\Dropbox\robots\Final_Project_OS\Project\Main2.nxc"
24	253	532		brtst 4, __NXC_Label_767, __zfreading
24	252	535	#line 252 "C:\Users\ptan\Dropbox\robots\Final_Project_OS\Project\Main2.nxc"
24	253	535		set __D0reading, 25
24	253	538	#line 253 "C:\Users\ptan\Dropbox\robots\Final_Project_OS\Project\Main2.nxc"
24	254	538	#pragma macro 10
24	254	538		acquire __OnRevMutex
24	254	539		neg __OnRev_Tmp, __D0reading
24	254	542		setout LMotor, 2, __OnRev_Tmp, 1, __constVal3, 8, __constVal0, 6, __constVal32, 7, __constVal0, 5, __constVal0, 10, __constVal96, 11, __constVal32, 12, __constVal32, 0, __constVal63
24	254	565		release __OnRevMutex
24	7615	566	#line 7615 "C:\Users\ptan\Dropbox\robots\Final_Project_OS\Project\Main2.nxc"
24	253	566	#line 253 "C:\Users\ptan\Dropbox\robots\Final_Project_OS\Project\Main2.nxc"
24	253	566	#line 253 "C:\Users\ptan\Dropbox\robots\Final_Project_OS\Project\Main2.nxc"
24	254	566		set __D0reading, 25
24	254	569	#line 254 "C:\Users\ptan\Dropbox\robots\Final_Project_OS\Project\Main2.nxc"
24	255	569	#pragma macro 7
24	255	569		setout RMotor, 2, __D0reading, 1, __constVal3, 8, __constVal0, 6, __constVal32, 7, __constVal0, 5, __constVal0, 10, __constVal96, 11, __constVal32, 12, __constVal32, 0, __constVal63
24	7622	592	#line 7622 "C:\Users\ptan\Dropbox\robots\Final_Project_OS\Project\Main2.nxc"
24	254	592	#line 254 "C:\Users\ptan\Dropbox\robots\Final_Project_OS\Project\Main2.nxc"
24	254	592	#line 254 "C:\Users\ptan\Dropbox\robots\Final_Project_OS\Project\Main2.nxc"
24	255	592		set __Wait_7qG2_ms_7qG2_000_inline_reading, 100
24	254	595	#line 254 "C:\Users\ptan\Dropbox\robots\Final_Project_OS\Project\Main2.nxc"
24	7921	595	#line 7921 "NXCDefs.h"
24	7922	595		wait2 NA, __Wait_7qG2_ms_7qG2_000_inline_reading
24	7921	598	#line 7921 "NXCDefs.h"
24	255	598	#line 255 "C:\Users\ptan\Dropbox\robots\Final_Project_OS\Project\Main2.nxc"
24	255	598	#line 255 "C:\Users\ptan\Dropbox\robots\Final_Project_OS\Project\Main2.nxc"
24	256	598		mov __signed_stack_001reading, relBearing
24	255	600	#line 255 "C:\Users\ptan\Dropbox\robots\Final_Project_OS\Project\Main2.nxc"
24	256	600	#line 256 "C:\Users\ptan\Dropbox\robots\Final_Project_OS\Project\Main2.nxc"
24	257	600		set __D0reading, 4
24	256	603	#line 256 "C:\Users\ptan\Dropbox\robots\Final_Project_OS\Project\Main2.nxc"
24	257	603		cmp 2, __zfreading, __signed_stack_001reading, __D0reading
24	256	607	#line 256 "C:\Users\ptan\Dropbox\robots\Final_Project_OS\Project\Main2.nxc"
24	257	607		mov __D0reading, __zfreading
24	257	610	#line 257 "C:\Users\ptan\Dropbox\robots\Final_Project_OS\Project\Main2.nxc"
24	258	610		brtst 4, __NXC_Label_778, __zfreading
24	258	613	#line 258 "C:\Users\ptan\Dropbox\robots\Final_Project_OS\Project\Main2.nxc"
24	259	613		jmp __NXC_Label_767
24	258	615	#line 258 "C:\Users\ptan\Dropbox\robots\Final_Project_OS\Project\Main2.nxc"
24	260	615	#line 260 "C:\Users\ptan\Dropbox\robots\Final_Project_OS\Project\Main2.nxc"
24	260	615	#line 260 "C:\Users\ptan\Dropbox\robots\Final_Project_OS\Project\Main2.nxc"
24	261	615		jmp __NXC_Label_766
24	260	617	#line 260 "C:\Users\ptan\Dropbox\robots\Final_Project_OS\Project\Main2.nxc"
24	262	617	#line 262 "C:\Users\ptan\Dropbox\robots\Final_Project_OS\Project\Main2.nxc"
24	263	617	#pragma macro 7
24	263	617		setout motors, 2, __constVal0, 1, __constVal3, 8, __constVal0, 6, __constVal32, 7, __constVal0, 5, __constVal0, 10, __constVal96, 11, __constVal32, 12, __constVal32, 0, __constVal63
24	7658	640	#line 7658 "C:\Users\ptan\Dropbox\robots\Final_Project_OS\Project\Main2.nxc"
24	262	640	#line 262 "C:\Users\ptan\Dropbox\robots\Final_Project_OS\Project\Main2.nxc"
24	264	640	#line 264 "C:\Users\ptan\Dropbox\robots\Final_Project_OS\Project\Main2.nxc"
24	265	640	#line 265 "C:\Users\ptan\Dropbox\robots\Final_Project_OS\Project\Main2.nxc"
24	266	640		release moveMutex
24	265	641	#line 265 "C:\Users\ptan\Dropbox\robots\Final_Project_OS\Project\Main2.nxc"
24	269	641	#line 269 "C:\Users\ptan\Dropbox\robots\Final_Project_OS\Project\Main2.nxc"
24	270	641		jmp __NXC_Label_676
24	269	643	#line 269 "C:\Users\ptan\Dropbox\robots\Final_Project_OS\Project\Main2.nxc"
24	270	643		exit -1, -1
25	271	0	#line 271 "C:\Users\ptan\Dropbox\robots\Final_Project_OS\Project\Main2.nxc"
25	272	0		set __signed_stack_001containBalls, 40
25	271	3	#line 271 "C:\Users\ptan\Dropbox\robots\Final_Project_OS\Project\Main2.nxc"
25	271	3	#line 271 "C:\Users\ptan\Dropbox\robots\Final_Project_OS\Project\Main2.nxc"
25	272	3		set __D0containBalls, 50
25	274	6	#line 274 "C:\Users\ptan\Dropbox\robots\Final_Project_OS\Project\Main2.nxc"
25	275	6	#pragma macro 22
25	275	6		acquire __rotateMutex0
25	275	7		acquire __rotateMutex1
25	275	8		acquire __rotateMutex2
25	275	9		arrbuild __rotate_ports6, RMotor
25	275	13		mov __rotate_power6, __signed_stack_001containBalls
25	275	15		mov __rotate_angle6, __D0containBalls
25	275	17		mov __rotate_turnpct6, __constVal0
25	275	19		mov __rotate_sync6, __constVal0
25	275	21		mov __rotate_stop6, __constVal1
25	275	23		mov __rotate_theRVP6, __constVal32
25	275	25		mov __rotate_theRVI6, __constVal0
25	275	27		mov __rotate_theRVD6, __constVal96
25	275	29		subcall __RotateMotorVar, ____RotateMotorVar_return
25	275	32		release __rotateMutex2
25	275	33		release __rotateMutex1
25	275	34		release __rotateMutex0
25	7683	35	#line 7683 "C:\Users\ptan\Dropbox\robots\Final_Project_OS\Project\Main2.nxc"
25	274	35	#line 274 "C:\Users\ptan\Dropbox\robots\Final_Project_OS\Project\Main2.nxc"
25	275	35	#line 275 "C:\Users\ptan\Dropbox\robots\Final_Project_OS\Project\Main2.nxc"
25	276	35	#pragma macro 7
25	276	35		setout motors, 2, __constVal0, 1, __constVal3, 8, __constVal0, 6, __constVal32, 7, __constVal0, 5, __constVal0, 10, __constVal96, 11, __constVal32, 12, __constVal32, 0, __constVal63
25	7686	58	#line 7686 "C:\Users\ptan\Dropbox\robots\Final_Project_OS\Project\Main2.nxc"
25	275	58	#line 275 "C:\Users\ptan\Dropbox\robots\Final_Project_OS\Project\Main2.nxc"
25	276	58	#line 276 "C:\Users\ptan\Dropbox\robots\Final_Project_OS\Project\Main2.nxc"
25	277	58		subcall close, __close_return
25	276	60	#line 276 "C:\Users\ptan\Dropbox\robots\Final_Project_OS\Project\Main2.nxc"
25	280	60	#line 280 "C:\Users\ptan\Dropbox\robots\Final_Project_OS\Project\Main2.nxc"
25	281	60		subcall stopRotor, __stopRotor_return
25	280	62	#line 280 "C:\Users\ptan\Dropbox\robots\Final_Project_OS\Project\Main2.nxc"
25	280	62	#line 280 "C:\Users\ptan\Dropbox\robots\Final_Project_OS\Project\Main2.nxc"
25	281	62		set __signed_stack_001containBalls, 40
25	280	65	#line 280 "C:\Users\ptan\Dropbox\robots\Final_Project_OS\Project\Main2.nxc"
25	280	65	#line 280 "C:\Users\ptan\Dropbox\robots\Final_Project_OS\Project\Main2.nxc"
25	281	65		set __D0containBalls, 50
25	281	68	#line 281 "C:\Users\ptan\Dropbox\robots\Final_Project_OS\Project\Main2.nxc"
25	282	68	#pragma macro 22
25	282	68		acquire __rotateMutex0
25	282	69		acquire __rotateMutex1
25	282	70		acquire __rotateMutex2
25	282	71		arrbuild __rotate_ports6, LMotor
25	282	75		mov __rotate_power6, __signed_stack_001containBalls
25	282	77		mov __rotate_angle6, __D0containBalls
25	282	79		mov __rotate_turnpct6, __constVal0
25	282	81		mov __rotate_sync6, __constVal0
25	282	83		mov __rotate_stop6, __constVal1
25	282	85		mov __rotate_theRVP6, __constVal32
25	282	87		mov __rotate_theRVI6, __constVal0
25	282	89		mov __rotate_theRVD6, __constVal96
25	282	91		subcall __RotateMotorVar, ____RotateMotorVar_return
25	282	94		release __rotateMutex2
25	282	95		release __rotateMutex1
25	282	96		release __rotateMutex0
25	7705	97	#line 7705 "C:\Users\ptan\Dropbox\robots\Final_Project_OS\Project\Main2.nxc"
25	281	97	#line 281 "C:\Users\ptan\Dropbox\robots\Final_Project_OS\Project\Main2.nxc"
25	282	97	#line 282 "C:\Users\ptan\Dropbox\robots\Final_Project_OS\Project\Main2.nxc"
25	283	97	#pragma macro 7
25	283	97		setout motors, 2, __constVal0, 1, __constVal3, 8, __constVal0, 6, __constVal32, 7, __constVal0, 5, __constVal0, 10, __constVal96, 11, __constVal32, 12, __constVal32, 0, __constVal63
25	7708	120	#line 7708 "C:\Users\ptan\Dropbox\robots\Final_Project_OS\Project\Main2.nxc"
25	282	120	#line 282 "C:\Users\ptan\Dropbox\robots\Final_Project_OS\Project\Main2.nxc"
25	282	120	#line 282 "C:\Users\ptan\Dropbox\robots\Final_Project_OS\Project\Main2.nxc"
25	283	120		set __open_7qG2_angle_7qG2_000, 180
25	282	123	#line 282 "C:\Users\ptan\Dropbox\robots\Final_Project_OS\Project\Main2.nxc"
25	283	123	#line 283 "C:\Users\ptan\Dropbox\robots\Final_Project_OS\Project\Main2.nxc"
25	284	123		subcall open, __open_return
25	283	125	#line 283 "C:\Users\ptan\Dropbox\robots\Final_Project_OS\Project\Main2.nxc"
25	284	125	#line 284 "C:\Users\ptan\Dropbox\robots\Final_Project_OS\Project\Main2.nxc"
25	285	125		subcall stopRotor, __stopRotor_return
25	284	127	#line 284 "C:\Users\ptan\Dropbox\robots\Final_Project_OS\Project\Main2.nxc"
25	284	127	#line 284 "C:\Users\ptan\Dropbox\robots\Final_Project_OS\Project\Main2.nxc"
25	285	127		set __Wait_7qG2_ms_7qG2_000_inline_containBalls, 1000
25	284	130	#line 284 "C:\Users\ptan\Dropbox\robots\Final_Project_OS\Project\Main2.nxc"
25	7921	130	#line 7921 "NXCDefs.h"
25	7922	130		wait2 NA, __Wait_7qG2_ms_7qG2_000_inline_containBalls
25	7921	133	#line 7921 "NXCDefs.h"
25	285	133	#line 285 "C:\Users\ptan\Dropbox\robots\Final_Project_OS\Project\Main2.nxc"
25	287	133	#line 287 "C:\Users\ptan\Dropbox\robots\Final_Project_OS\Project\Main2.nxc"
25	288	133		subcall goToPredefined, __goToPredefined_return
25	287	135	#line 287 "C:\Users\ptan\Dropbox\robots\Final_Project_OS\Project\Main2.nxc"
25	288	135	#line 288 "C:\Users\ptan\Dropbox\robots\Final_Project_OS\Project\Main2.nxc"
25	289	135		subret __containBalls_return
26	290	0	#line 290 "C:\Users\ptan\Dropbox\robots\Final_Project_OS\Project\Main2.nxc"
26	291	0		set __SetSensorLowspeed_7qG2_port_7qG2_000_inline_goToPredefined, 0
26	290	3	#line 290 "C:\Users\ptan\Dropbox\robots\Final_Project_OS\Project\Main2.nxc"
26	291	3	#line 291 "C:\Users\ptan\Dropbox\robots\Final_Project_OS\Project\Main2.nxc"
26	292	3		mov __SetSensorLowspeed_7qG2_bIsPowered_7qG2_000_inline_goToPredefined, __constVal1
26	3758	5	#line 3758 "NXCDefs.h"
26	3759	5		mov __SetSensorType_7qG2_port_7qG2_000_inline_SetSensorLowspeed_inline_goToPredefined, __SetSensorLowspeed_7qG2_port_7qG2_000_inline_goToPredefined
26	3758	7	#line 3758 "NXCDefs.h"
26	3758	7	#line 3758 "NXCDefs.h"
26	3759	7		mov __DU0SetSensorLowspeed_inline_goToPredefined, __SetSensorLowspeed_7qG2_bIsPowered_7qG2_000_inline_goToPredefined
26	3758	10	#line 3758 "NXCDefs.h"
26	3759	10		tst 5, __zfSetSensorLowspeed_inline_goToPredefined, __DU0SetSensorLowspeed_inline_goToPredefined
26	3758	13	#line 3758 "NXCDefs.h"
26	3759	13		brtst 4, __006__NXC_Label_36, __zfSetSensorLowspeed_inline_goToPredefined
26	3758	16	#line 3758 "NXCDefs.h"
26	3759	16		set __D0SetSensorLowspeed_inline_goToPredefined, 11
26	3758	19	#line 3758 "NXCDefs.h"
26	3759	19		jmp __006__NXC_Label_37
26	3758	21	#line 3758 "NXCDefs.h"
26	3759	21		set __D0SetSensorLowspeed_inline_goToPredefined, 10
26	3758	24	#line 3758 "NXCDefs.h"
26	3759	24		mov __SetSensorType_7qG2_type_7qG2_000_inline_SetSensorLowspeed_inline_goToPredefined, __D0SetSensorLowspeed_inline_goToPredefined
26	3663	27	#line 3663 "NXCDefs.h"
26	3664	27		setin __SetSensorType_7qG2_type_7qG2_000_inline_SetSensorLowspeed_inline_goToPredefined, __SetSensorType_7qG2_port_7qG2_000_inline_SetSensorLowspeed_inline_goToPredefined, 0
26	3663	31	#line 3663 "NXCDefs.h"
26	3759	31	#line 3759 "NXCDefs.h"
26	3759	31	#line 3759 "NXCDefs.h"
26	3760	31		mov __SetSensorMode_7qG2_port_7qG2_000_inline_SetSensorLowspeed_inline_goToPredefined, __SetSensorLowspeed_7qG2_port_7qG2_000_inline_goToPredefined
26	3759	33	#line 3759 "NXCDefs.h"
26	3759	33	#line 3759 "NXCDefs.h"
26	3760	33		set __SetSensorMode_7qG2_mode_7qG2_000_inline_SetSensorLowspeed_inline_goToPredefined, 0
26	3759	36	#line 3759 "NXCDefs.h"
26	3676	36	#line 3676 "NXCDefs.h"
26	3677	36		setin __SetSensorMode_7qG2_mode_7qG2_000_inline_SetSensorLowspeed_inline_goToPredefined, __SetSensorMode_7qG2_port_7qG2_000_inline_SetSensorLowspeed_inline_goToPredefined, 1
26	3676	40	#line 3676 "NXCDefs.h"
26	3760	40	#line 3760 "NXCDefs.h"
26	3760	40	#line 3760 "NXCDefs.h"
26	3761	40		mov __ResetSensor_7qG2_port_7qG2_000_inline_SetSensorLowspeed_inline_goToPredefined, __SetSensorLowspeed_7qG2_port_7qG2_000_inline_goToPredefined
26	3760	42	#line 3760 "NXCDefs.h"
26	3694	42	#line 3694 "NXCDefs.h"
26	3695	42	#pragma macro 4
26	3695	42		acquire __ResetSensorMutex
26	3695	43		mov __ResetSensorPort, __ResetSensor_7qG2_port_7qG2_000_inline_SetSensorLowspeed_inline_goToPredefined
26	3695	45		subcall __ResetSensorSubroutine, ____ResetSensorSubroutine_return
26	3695	48		release __ResetSensorMutex
26	7835	49	#line 7835 "NXCDefs.h"
26	3694	49	#line 3694 "NXCDefs.h"
26	3761	49	#line 3761 "NXCDefs.h"
26	291	49	#line 291 "C:\Users\ptan\Dropbox\robots\Final_Project_OS\Project\Main2.nxc"
26	291	49	#line 291 "C:\Users\ptan\Dropbox\robots\Final_Project_OS\Project\Main2.nxc"
26	292	49		set __ClearSensor_7qG2_port_7qG2_000_inline_goToPredefined, 0
26	291	52	#line 291 "C:\Users\ptan\Dropbox\robots\Final_Project_OS\Project\Main2.nxc"
26	3684	52	#line 3684 "NXCDefs.h"
26	3685	52		setin __constVal0, __ClearSensor_7qG2_port_7qG2_000_inline_goToPredefined, 4
26	3684	56	#line 3684 "NXCDefs.h"
26	292	56	#line 292 "C:\Users\ptan\Dropbox\robots\Final_Project_OS\Project\Main2.nxc"
26	292	56	#line 292 "C:\Users\ptan\Dropbox\robots\Final_Project_OS\Project\Main2.nxc"
26	293	56		mov __signed_stack_001goToPredefined, __constValNeg40
26	292	58	#line 292 "C:\Users\ptan\Dropbox\robots\Final_Project_OS\Project\Main2.nxc"
26	292	58	#line 292 "C:\Users\ptan\Dropbox\robots\Final_Project_OS\Project\Main2.nxc"
26	293	58		set __D0goToPredefined, 405
26	293	61	#line 293 "C:\Users\ptan\Dropbox\robots\Final_Project_OS\Project\Main2.nxc"
26	294	61	#pragma macro 22
26	294	61		acquire __rotateMutex0
26	294	62		acquire __rotateMutex1
26	294	63		acquire __rotateMutex2
26	294	64		arrbuild __rotate_ports6, LMotor
26	294	68		mov __rotate_power6, __signed_stack_001goToPredefined
26	294	70		mov __rotate_angle6, __D0goToPredefined
26	294	72		mov __rotate_turnpct6, __constVal0
26	294	74		mov __rotate_sync6, __constVal0
26	294	76		mov __rotate_stop6, __constVal1
26	294	78		mov __rotate_theRVP6, __constVal32
26	294	80		mov __rotate_theRVI6, __constVal0
26	294	82		mov __rotate_theRVD6, __constVal96
26	294	84		subcall __RotateMotorVar, ____RotateMotorVar_return
26	294	87		release __rotateMutex2
26	294	88		release __rotateMutex1
26	294	89		release __rotateMutex0
26	7864	90	#line 7864 "C:\Users\ptan\Dropbox\robots\Final_Project_OS\Project\Main2.nxc"
26	293	90	#line 293 "C:\Users\ptan\Dropbox\robots\Final_Project_OS\Project\Main2.nxc"
26	294	90	#line 294 "C:\Users\ptan\Dropbox\robots\Final_Project_OS\Project\Main2.nxc"
26	295	90	#pragma macro 7
26	295	90		setout motors, 2, __constVal0, 1, __constVal3, 8, __constVal0, 6, __constVal32, 7, __constVal0, 5, __constVal0, 10, __constVal96, 11, __constVal32, 12, __constVal32, 0, __constVal63
26	7867	113	#line 7867 "C:\Users\ptan\Dropbox\robots\Final_Project_OS\Project\Main2.nxc"
26	294	113	#line 294 "C:\Users\ptan\Dropbox\robots\Final_Project_OS\Project\Main2.nxc"
26	294	113	#line 294 "C:\Users\ptan\Dropbox\robots\Final_Project_OS\Project\Main2.nxc"
26	295	113		set __ClearSensor_7qG2_port_7qG2_000_inline_goToPredefined, 0
26	294	116	#line 294 "C:\Users\ptan\Dropbox\robots\Final_Project_OS\Project\Main2.nxc"
26	3684	116	#line 3684 "NXCDefs.h"
26	3685	116		setin __constVal0, __ClearSensor_7qG2_port_7qG2_000_inline_goToPredefined, 4
26	3684	120	#line 3684 "NXCDefs.h"
26	295	120	#line 295 "C:\Users\ptan\Dropbox\robots\Final_Project_OS\Project\Main2.nxc"
26	295	120	#line 295 "C:\Users\ptan\Dropbox\robots\Final_Project_OS\Project\Main2.nxc"
26	296	120		set __Wait_7qG2_ms_7qG2_000_inline_goToPredefined, 500
26	295	123	#line 295 "C:\Users\ptan\Dropbox\robots\Final_Project_OS\Project\Main2.nxc"
26	7921	123	#line 7921 "NXCDefs.h"
26	7922	123		wait2 NA, __Wait_7qG2_ms_7qG2_000_inline_goToPredefined
26	7921	126	#line 7921 "NXCDefs.h"
26	296	126	#line 296 "C:\Users\ptan\Dropbox\robots\Final_Project_OS\Project\Main2.nxc"
26	297	126	#line 297 "C:\Users\ptan\Dropbox\robots\Final_Project_OS\Project\Main2.nxc"
26	298	126		set __goToPredefined_7qG2_distance_7qG2_000, 50
26	297	129	#line 297 "C:\Users\ptan\Dropbox\robots\Final_Project_OS\Project\Main2.nxc"
26	297	129	#line 297 "C:\Users\ptan\Dropbox\robots\Final_Project_OS\Project\Main2.nxc"
26	298	129		mov __signed_stack_001goToPredefined, __goToPredefined_7qG2_distance_7qG2_000
26	297	131	#line 297 "C:\Users\ptan\Dropbox\robots\Final_Project_OS\Project\Main2.nxc"
26	298	131	#line 298 "C:\Users\ptan\Dropbox\robots\Final_Project_OS\Project\Main2.nxc"
26	299	131		set __D0goToPredefined, 20
26	298	134	#line 298 "C:\Users\ptan\Dropbox\robots\Final_Project_OS\Project\Main2.nxc"
26	299	134		cmp 1, __zfgoToPredefined, __signed_stack_001goToPredefined, __D0goToPredefined
26	298	138	#line 298 "C:\Users\ptan\Dropbox\robots\Final_Project_OS\Project\Main2.nxc"
26	299	138		mov __D0goToPredefined, __zfgoToPredefined
26	299	141	#line 299 "C:\Users\ptan\Dropbox\robots\Final_Project_OS\Project\Main2.nxc"
26	300	141		brtst 4, __NXC_Label_806, __zfgoToPredefined
26	299	144	#line 299 "C:\Users\ptan\Dropbox\robots\Final_Project_OS\Project\Main2.nxc"
26	300	144	#pragma macro 26
26	300	144		acquire __RLSBmutex0
26	300	145		mov __RLSReadBuf0, __RLSBbufLSWrite1
26	300	147		set __RLSBytesCount0, 1
26	300	150		wait2 NA, __constVal15
26	300	153		subcall __ReadLSBytes0, ____ReadLSBytes0_return
26	300	156		index __D0goToPredefined, __RLSReadBuf0, 65535
26	300	160		release __RLSBmutex0
26	7919	161	#line 7919 "C:\Users\ptan\Dropbox\robots\Final_Project_OS\Project\Main2.nxc"
26	299	161	#line 299 "C:\Users\ptan\Dropbox\robots\Final_Project_OS\Project\Main2.nxc"
26	300	161		mov __goToPredefined_7qG2_distance_7qG2_000, __D0goToPredefined
26	299	163	#line 299 "C:\Users\ptan\Dropbox\robots\Final_Project_OS\Project\Main2.nxc"
26	299	163	#line 299 "C:\Users\ptan\Dropbox\robots\Final_Project_OS\Project\Main2.nxc"
26	300	163	#line 300 "C:\Users\ptan\Dropbox\robots\Final_Project_OS\Project\Main2.nxc"
26	301	163		set __signed_stack_001goToPredefined, 40
26	300	166	#line 300 "C:\Users\ptan\Dropbox\robots\Final_Project_OS\Project\Main2.nxc"
26	300	166	#line 300 "C:\Users\ptan\Dropbox\robots\Final_Project_OS\Project\Main2.nxc"
26	301	166		set __D0goToPredefined, 2
26	301	169	#line 301 "C:\Users\ptan\Dropbox\robots\Final_Project_OS\Project\Main2.nxc"
26	302	169	#pragma macro 7
26	302	169		setout __OUT_AC, 2, __signed_stack_001goToPredefined, 1, __constVal7, 8, __constVal2, 7, __D0goToPredefined, 6, __constVal32, 5, __constVal0, 10, __constVal96, 11, __constVal32, 12, __constVal32, 0, __constVal63
26	7937	192	#line 7937 "C:\Users\ptan\Dropbox\robots\Final_Project_OS\Project\Main2.nxc"
26	301	192	#line 301 "C:\Users\ptan\Dropbox\robots\Final_Project_OS\Project\Main2.nxc"
26	304	192	#line 304 "C:\Users\ptan\Dropbox\robots\Final_Project_OS\Project\Main2.nxc"
26	305	192		jmp __NXC_Label_805
26	304	194	#line 304 "C:\Users\ptan\Dropbox\robots\Final_Project_OS\Project\Main2.nxc"
26	305	194	#line 305 "C:\Users\ptan\Dropbox\robots\Final_Project_OS\Project\Main2.nxc"
26	306	194	#pragma macro 7
26	306	194		setout motors, 2, __constVal0, 1, __constVal3, 8, __constVal0, 6, __constVal32, 7, __constVal0, 5, __constVal0, 10, __constVal96, 11, __constVal32, 12, __constVal32, 0, __constVal63
26	7944	217	#line 7944 "C:\Users\ptan\Dropbox\robots\Final_Project_OS\Project\Main2.nxc"
26	305	217	#line 305 "C:\Users\ptan\Dropbox\robots\Final_Project_OS\Project\Main2.nxc"
26	305	217	#line 305 "C:\Users\ptan\Dropbox\robots\Final_Project_OS\Project\Main2.nxc"
26	306	217		set __signed_stack_001goToPredefined, 40
26	305	220	#line 305 "C:\Users\ptan\Dropbox\robots\Final_Project_OS\Project\Main2.nxc"
26	305	220	#line 305 "C:\Users\ptan\Dropbox\robots\Final_Project_OS\Project\Main2.nxc"
26	306	220		set __D0goToPredefined, 405
26	306	223	#line 306 "C:\Users\ptan\Dropbox\robots\Final_Project_OS\Project\Main2.nxc"
26	307	223	#pragma macro 22
26	307	223		acquire __rotateMutex0
26	307	224		acquire __rotateMutex1
26	307	225		acquire __rotateMutex2
26	307	226		arrbuild __rotate_ports6, LMotor
26	307	230		mov __rotate_power6, __signed_stack_001goToPredefined
26	307	232		mov __rotate_angle6, __D0goToPredefined
26	307	234		mov __rotate_turnpct6, __constVal0
26	307	236		mov __rotate_sync6, __constVal0
26	307	238		mov __rotate_stop6, __constVal1
26	307	240		mov __rotate_theRVP6, __constVal32
26	307	242		mov __rotate_theRVI6, __constVal0
26	307	244		mov __rotate_theRVD6, __constVal96
26	307	246		subcall __RotateMotorVar, ____RotateMotorVar_return
26	307	249		release __rotateMutex2
26	307	250		release __rotateMutex1
26	307	251		release __rotateMutex0
26	7957	252	#line 7957 "C:\Users\ptan\Dropbox\robots\Final_Project_OS\Project\Main2.nxc"
26	306	252	#line 306 "C:\Users\ptan\Dropbox\robots\Final_Project_OS\Project\Main2.nxc"
26	307	252	#line 307 "C:\Users\ptan\Dropbox\robots\Final_Project_OS\Project\Main2.nxc"
26	308	252	#pragma macro 7
26	308	252		setout motors, 2, __constVal0, 1, __constVal3, 8, __constVal0, 6, __constVal32, 7, __constVal0, 5, __constVal0, 10, __constVal96, 11, __constVal32, 12, __constVal32, 0, __constVal63
26	7960	275	#line 7960 "C:\Users\ptan\Dropbox\robots\Final_Project_OS\Project\Main2.nxc"
26	307	275	#line 307 "C:\Users\ptan\Dropbox\robots\Final_Project_OS\Project\Main2.nxc"
26	307	275	#line 307 "C:\Users\ptan\Dropbox\robots\Final_Project_OS\Project\Main2.nxc"
26	308	275		set __signed_stack_001goToPredefined, 40
26	307	278	#line 307 "C:\Users\ptan\Dropbox\robots\Final_Project_OS\Project\Main2.nxc"
26	307	278	#line 307 "C:\Users\ptan\Dropbox\robots\Final_Project_OS\Project\Main2.nxc"
26	308	278		set __D0goToPredefined, 2
26	308	281	#line 308 "C:\Users\ptan\Dropbox\robots\Final_Project_OS\Project\Main2.nxc"
26	309	281	#pragma macro 7
26	309	281		setout __OUT_AC, 2, __signed_stack_001goToPredefined, 1, __constVal7, 8, __constVal2, 7, __D0goToPredefined, 6, __constVal32, 5, __constVal0, 10, __constVal96, 11, __constVal32, 12, __constVal32, 0, __constVal63
26	7973	304	#line 7973 "C:\Users\ptan\Dropbox\robots\Final_Project_OS\Project\Main2.nxc"
26	308	304	#line 308 "C:\Users\ptan\Dropbox\robots\Final_Project_OS\Project\Main2.nxc"
26	308	304	#line 308 "C:\Users\ptan\Dropbox\robots\Final_Project_OS\Project\Main2.nxc"
26	309	304	#pragma macro 26
26	309	304		acquire __RLSBmutex0
26	309	305		mov __RLSReadBuf0, __RLSBbufLSWrite1
26	309	307		set __RLSBytesCount0, 1
26	309	310		wait2 NA, __constVal15
26	309	313		subcall __ReadLSBytes0, ____ReadLSBytes0_return
26	309	316		index __D0goToPredefined, __RLSReadBuf0, 65535
26	309	320		release __RLSBmutex0
26	7977	321	#line 7977 "C:\Users\ptan\Dropbox\robots\Final_Project_OS\Project\Main2.nxc"
26	308	321	#line 308 "C:\Users\ptan\Dropbox\robots\Final_Project_OS\Project\Main2.nxc"
26	309	321		mov __signed_stack_001goToPredefined, __D0goToPredefined
26	308	323	#line 308 "C:\Users\ptan\Dropbox\robots\Final_Project_OS\Project\Main2.nxc"
26	309	323		set __D0goToPredefined, 7
26	308	326	#line 308 "C:\Users\ptan\Dropbox\robots\Final_Project_OS\Project\Main2.nxc"
26	309	326		cmp 2, __zfgoToPredefined, __signed_stack_001goToPredefined, __D0goToPredefined
26	308	330	#line 308 "C:\Users\ptan\Dropbox\robots\Final_Project_OS\Project\Main2.nxc"
26	308	330	#line 308 "C:\Users\ptan\Dropbox\robots\Final_Project_OS\Project\Main2.nxc"
26	309	330		not __D0goToPredefined, __zfgoToPredefined
26	309	333	#line 309 "C:\Users\ptan\Dropbox\robots\Final_Project_OS\Project\Main2.nxc"
26	310	333		tst 5, __zfgoToPredefined, __D0goToPredefined
26	309	336	#line 309 "C:\Users\ptan\Dropbox\robots\Final_Project_OS\Project\Main2.nxc"
26	310	336		brtst 4, __NXC_Label_824, __zfgoToPredefined
26	309	339	#line 309 "C:\Users\ptan\Dropbox\robots\Final_Project_OS\Project\Main2.nxc"
26	309	339	#line 309 "C:\Users\ptan\Dropbox\robots\Final_Project_OS\Project\Main2.nxc"
26	310	339		jmp __NXC_Label_823
26	309	341	#line 309 "C:\Users\ptan\Dropbox\robots\Final_Project_OS\Project\Main2.nxc"
26	310	341	#line 310 "C:\Users\ptan\Dropbox\robots\Final_Project_OS\Project\Main2.nxc"
26	311	341	#pragma macro 7
26	311	341		setout motors, 2, __constVal0, 1, __constVal3, 8, __constVal0, 6, __constVal32, 7, __constVal0, 5, __constVal0, 10, __constVal96, 11, __constVal32, 12, __constVal32, 0, __constVal63
26	8002	364	#line 8002 "C:\Users\ptan\Dropbox\robots\Final_Project_OS\Project\Main2.nxc"
26	310	364	#line 310 "C:\Users\ptan\Dropbox\robots\Final_Project_OS\Project\Main2.nxc"
26	311	364	#line 311 "C:\Users\ptan\Dropbox\robots\Final_Project_OS\Project\Main2.nxc"
26	312	364		subcall close, __close_return
26	311	366	#line 311 "C:\Users\ptan\Dropbox\robots\Final_Project_OS\Project\Main2.nxc"
26	312	366	#line 312 "C:\Users\ptan\Dropbox\robots\Final_Project_OS\Project\Main2.nxc"
26	313	366		subcall stopRotor, __stopRotor_return
26	312	368	#line 312 "C:\Users\ptan\Dropbox\robots\Final_Project_OS\Project\Main2.nxc"
26	312	368	#line 312 "C:\Users\ptan\Dropbox\robots\Final_Project_OS\Project\Main2.nxc"
26	313	368		set __open_7qG2_angle_7qG2_000, 15
26	312	371	#line 312 "C:\Users\ptan\Dropbox\robots\Final_Project_OS\Project\Main2.nxc"
26	313	371	#line 313 "C:\Users\ptan\Dropbox\robots\Final_Project_OS\Project\Main2.nxc"
26	314	371		subcall open, __open_return
26	313	373	#line 313 "C:\Users\ptan\Dropbox\robots\Final_Project_OS\Project\Main2.nxc"
26	314	373	#line 314 "C:\Users\ptan\Dropbox\robots\Final_Project_OS\Project\Main2.nxc"
26	315	373		subcall stopRotor, __stopRotor_return
26	314	375	#line 314 "C:\Users\ptan\Dropbox\robots\Final_Project_OS\Project\Main2.nxc"
26	314	375	#line 314 "C:\Users\ptan\Dropbox\robots\Final_Project_OS\Project\Main2.nxc"
26	315	375		set __open_7qG2_angle_7qG2_000, 165
26	314	378	#line 314 "C:\Users\ptan\Dropbox\robots\Final_Project_OS\Project\Main2.nxc"
26	315	378	#line 315 "C:\Users\ptan\Dropbox\robots\Final_Project_OS\Project\Main2.nxc"
26	316	378		subcall open, __open_return
26	315	380	#line 315 "C:\Users\ptan\Dropbox\robots\Final_Project_OS\Project\Main2.nxc"
26	316	380	#line 316 "C:\Users\ptan\Dropbox\robots\Final_Project_OS\Project\Main2.nxc"
26	317	380		subcall stopRotor, __stopRotor_return
26	316	382	#line 316 "C:\Users\ptan\Dropbox\robots\Final_Project_OS\Project\Main2.nxc"
26	318	382	#line 318 "C:\Users\ptan\Dropbox\robots\Final_Project_OS\Project\Main2.nxc"
26	319	382		subcall throwBall, __throwBall_return
26	318	385	#line 318 "C:\Users\ptan\Dropbox\robots\Final_Project_OS\Project\Main2.nxc"
26	319	385	#line 319 "C:\Users\ptan\Dropbox\robots\Final_Project_OS\Project\Main2.nxc"
26	320	385	#pragma macro 7
26	320	385		setout motors, 2, __constVal0, 1, __constVal3, 8, __constVal0, 6, __constVal32, 7, __constVal0, 5, __constVal0, 10, __constVal96, 11, __constVal32, 12, __constVal32, 0, __constVal63
26	8038	408	#line 8038 "C:\Users\ptan\Dropbox\robots\Final_Project_OS\Project\Main2.nxc"
26	319	408	#line 319 "C:\Users\ptan\Dropbox\robots\Final_Project_OS\Project\Main2.nxc"
26	319	408	#line 319 "C:\Users\ptan\Dropbox\robots\Final_Project_OS\Project\Main2.nxc"
26	320	408		set __Wait_7qG2_ms_7qG2_000_inline_goToPredefined, 500
26	319	411	#line 319 "C:\Users\ptan\Dropbox\robots\Final_Project_OS\Project\Main2.nxc"
26	7921	411	#line 7921 "NXCDefs.h"
26	7922	411		wait2 NA, __Wait_7qG2_ms_7qG2_000_inline_goToPredefined
26	7921	414	#line 7921 "NXCDefs.h"
26	322	414	#line 322 "C:\Users\ptan\Dropbox\robots\Final_Project_OS\Project\Main2.nxc"
26	322	414	#line 322 "C:\Users\ptan\Dropbox\robots\Final_Project_OS\Project\Main2.nxc"
26	323	414		set __signed_stack_001goToPredefined, 40
26	322	417	#line 322 "C:\Users\ptan\Dropbox\robots\Final_Project_OS\Project\Main2.nxc"
26	322	417	#line 322 "C:\Users\ptan\Dropbox\robots\Final_Project_OS\Project\Main2.nxc"
26	323	417		set __D0goToPredefined, 50
26	323	420	#line 323 "C:\Users\ptan\Dropbox\robots\Final_Project_OS\Project\Main2.nxc"
26	324	420	#pragma macro 22
26	324	420		acquire __rotateMutex0
26	324	421		acquire __rotateMutex1
26	324	422		acquire __rotateMutex2
26	324	423		arrbuild __rotate_ports6, RMotor
26	324	427		mov __rotate_power6, __signed_stack_001goToPredefined
26	324	429		mov __rotate_angle6, __D0goToPredefined
26	324	431		mov __rotate_turnpct6, __constVal0
26	324	433		mov __rotate_sync6, __constVal0
26	324	435		mov __rotate_stop6, __constVal1
26	324	437		mov __rotate_theRVP6, __constVal32
26	324	439		mov __rotate_theRVI6, __constVal0
26	324	441		mov __rotate_theRVD6, __constVal96
26	324	443		subcall __RotateMotorVar, ____RotateMotorVar_return
26	324	446		release __rotateMutex2
26	324	447		release __rotateMutex1
26	324	448		release __rotateMutex0
26	8061	449	#line 8061 "C:\Users\ptan\Dropbox\robots\Final_Project_OS\Project\Main2.nxc"
26	323	449	#line 323 "C:\Users\ptan\Dropbox\robots\Final_Project_OS\Project\Main2.nxc"
26	324	449	#line 324 "C:\Users\ptan\Dropbox\robots\Final_Project_OS\Project\Main2.nxc"
26	325	449	#pragma macro 7
26	325	449		setout motors, 2, __constVal0, 1, __constVal3, 8, __constVal0, 6, __constVal32, 7, __constVal0, 5, __constVal0, 10, __constVal96, 11, __constVal32, 12, __constVal32, 0, __constVal63
26	8064	472	#line 8064 "C:\Users\ptan\Dropbox\robots\Final_Project_OS\Project\Main2.nxc"
26	324	472	#line 324 "C:\Users\ptan\Dropbox\robots\Final_Project_OS\Project\Main2.nxc"
26	324	472	#line 324 "C:\Users\ptan\Dropbox\robots\Final_Project_OS\Project\Main2.nxc"
26	325	472		set __signed_stack_001goToPredefined, 40
26	324	475	#line 324 "C:\Users\ptan\Dropbox\robots\Final_Project_OS\Project\Main2.nxc"
26	324	475	#line 324 "C:\Users\ptan\Dropbox\robots\Final_Project_OS\Project\Main2.nxc"
26	325	475		set __D0goToPredefined, 2
26	328	478	#line 328 "C:\Users\ptan\Dropbox\robots\Final_Project_OS\Project\Main2.nxc"
26	329	478	#pragma macro 10
26	329	478		acquire __OnRevMutex
26	329	479		neg __OnRev_Tmp, __signed_stack_001goToPredefined
26	329	482		setout __OUT_AC, 2, __OnRev_Tmp, 1, __constVal7, 8, __constVal2, 7, __D0goToPredefined, 6, __constVal32, 5, __constVal0, 10, __constVal96, 11, __constVal32, 12, __constVal32, 0, __constVal63
26	329	505		release __OnRevMutex
26	8077	506	#line 8077 "C:\Users\ptan\Dropbox\robots\Final_Project_OS\Project\Main2.nxc"
26	328	506	#line 328 "C:\Users\ptan\Dropbox\robots\Final_Project_OS\Project\Main2.nxc"
26	329	506	#line 329 "C:\Users\ptan\Dropbox\robots\Final_Project_OS\Project\Main2.nxc"
26	330	506		set __D0goToPredefined, 1
26	330	509	#line 330 "C:\Users\ptan\Dropbox\robots\Final_Project_OS\Project\Main2.nxc"
26	331	509		tst 5, __zfgoToPredefined, __D0goToPredefined
26	330	512	#line 330 "C:\Users\ptan\Dropbox\robots\Final_Project_OS\Project\Main2.nxc"
26	331	512		brtst 4, __NXC_Label_844, __zfgoToPredefined
26	330	515	#line 330 "C:\Users\ptan\Dropbox\robots\Final_Project_OS\Project\Main2.nxc"
26	331	515		getin __signed_stack_001goToPredefined, __constVal3, 4
26	330	519	#line 330 "C:\Users\ptan\Dropbox\robots\Final_Project_OS\Project\Main2.nxc"
26	331	519	#line 331 "C:\Users\ptan\Dropbox\robots\Final_Project_OS\Project\Main2.nxc"
26	332	519		set __D0goToPredefined, 1
26	331	522	#line 331 "C:\Users\ptan\Dropbox\robots\Final_Project_OS\Project\Main2.nxc"
26	332	522		cmp 4, __zfgoToPredefined, __signed_stack_001goToPredefined, __D0goToPredefined
26	331	526	#line 331 "C:\Users\ptan\Dropbox\robots\Final_Project_OS\Project\Main2.nxc"
26	332	526		mov __D0goToPredefined, __zfgoToPredefined
26	333	529	#line 333 "C:\Users\ptan\Dropbox\robots\Final_Project_OS\Project\Main2.nxc"
26	334	529		brtst 4, __NXC_Label_849, __zfgoToPredefined
26	334	532	#line 334 "C:\Users\ptan\Dropbox\robots\Final_Project_OS\Project\Main2.nxc"
26	335	532		jmp __NXC_Label_844
26	334	534	#line 334 "C:\Users\ptan\Dropbox\robots\Final_Project_OS\Project\Main2.nxc"
26	337	534	#line 337 "C:\Users\ptan\Dropbox\robots\Final_Project_OS\Project\Main2.nxc"
26	337	534	#line 337 "C:\Users\ptan\Dropbox\robots\Final_Project_OS\Project\Main2.nxc"
26	338	534		jmp __NXC_Label_843
26	337	536	#line 337 "C:\Users\ptan\Dropbox\robots\Final_Project_OS\Project\Main2.nxc"
26	339	536	#line 339 "C:\Users\ptan\Dropbox\robots\Final_Project_OS\Project\Main2.nxc"
26	340	536	#pragma macro 7
26	340	536		setout motors, 2, __constVal0, 1, __constVal3, 8, __constVal0, 6, __constVal32, 7, __constVal0, 5, __constVal0, 10, __constVal96, 11, __constVal32, 12, __constVal32, 0, __constVal63
26	8112	559	#line 8112 "C:\Users\ptan\Dropbox\robots\Final_Project_OS\Project\Main2.nxc"
26	339	559	#line 339 "C:\Users\ptan\Dropbox\robots\Final_Project_OS\Project\Main2.nxc"
26	339	559	#line 339 "C:\Users\ptan\Dropbox\robots\Final_Project_OS\Project\Main2.nxc"
26	340	559		set __signed_stack_001goToPredefined, 40
26	339	562	#line 339 "C:\Users\ptan\Dropbox\robots\Final_Project_OS\Project\Main2.nxc"
26	339	562	#line 339 "C:\Users\ptan\Dropbox\robots\Final_Project_OS\Project\Main2.nxc"
26	340	562		set __D0goToPredefined, 405
26	340	565	#line 340 "C:\Users\ptan\Dropbox\robots\Final_Project_OS\Project\Main2.nxc"
26	341	565	#pragma macro 22
26	341	565		acquire __rotateMutex0
26	341	566		acquire __rotateMutex1
26	341	567		acquire __rotateMutex2
26	341	568		arrbuild __rotate_ports6, LMotor
26	341	572		mov __rotate_power6, __signed_stack_001goToPredefined
26	341	574		mov __rotate_angle6, __D0goToPredefined
26	341	576		mov __rotate_turnpct6, __constVal0
26	341	578		mov __rotate_sync6, __constVal0
26	341	580		mov __rotate_stop6, __constVal1
26	341	582		mov __rotate_theRVP6, __constVal32
26	341	584		mov __rotate_theRVI6, __constVal0
26	341	586		mov __rotate_theRVD6, __constVal96
26	341	588		subcall __RotateMotorVar, ____RotateMotorVar_return
26	341	591		release __rotateMutex2
26	341	592		release __rotateMutex1
26	341	593		release __rotateMutex0
26	8125	594	#line 8125 "C:\Users\ptan\Dropbox\robots\Final_Project_OS\Project\Main2.nxc"
26	340	594	#line 340 "C:\Users\ptan\Dropbox\robots\Final_Project_OS\Project\Main2.nxc"
26	341	594	#line 341 "C:\Users\ptan\Dropbox\robots\Final_Project_OS\Project\Main2.nxc"
26	342	594	#pragma macro 7
26	342	594		setout motors, 2, __constVal0, 1, __constVal3, 8, __constVal0, 6, __constVal32, 7, __constVal0, 5, __constVal0, 10, __constVal96, 11, __constVal32, 12, __constVal32, 0, __constVal63
26	8128	617	#line 8128 "C:\Users\ptan\Dropbox\robots\Final_Project_OS\Project\Main2.nxc"
26	341	617	#line 341 "C:\Users\ptan\Dropbox\robots\Final_Project_OS\Project\Main2.nxc"
26	341	617	#line 341 "C:\Users\ptan\Dropbox\robots\Final_Project_OS\Project\Main2.nxc"
26	342	617		set __ClearSensor_7qG2_port_7qG2_000_inline_goToPredefined, 0
26	341	620	#line 341 "C:\Users\ptan\Dropbox\robots\Final_Project_OS\Project\Main2.nxc"
26	3684	620	#line 3684 "NXCDefs.h"
26	3685	620		setin __constVal0, __ClearSensor_7qG2_port_7qG2_000_inline_goToPredefined, 4
26	3684	624	#line 3684 "NXCDefs.h"
26	342	624	#line 342 "C:\Users\ptan\Dropbox\robots\Final_Project_OS\Project\Main2.nxc"
26	342	624	#line 342 "C:\Users\ptan\Dropbox\robots\Final_Project_OS\Project\Main2.nxc"
26	343	624		set __Wait_7qG2_ms_7qG2_000_inline_goToPredefined, 500
26	342	627	#line 342 "C:\Users\ptan\Dropbox\robots\Final_Project_OS\Project\Main2.nxc"
26	7921	627	#line 7921 "NXCDefs.h"
26	7922	627		wait2 NA, __Wait_7qG2_ms_7qG2_000_inline_goToPredefined
26	7921	630	#line 7921 "NXCDefs.h"
26	343	630	#line 343 "C:\Users\ptan\Dropbox\robots\Final_Project_OS\Project\Main2.nxc"
26	343	630	#line 343 "C:\Users\ptan\Dropbox\robots\Final_Project_OS\Project\Main2.nxc"
26	344	630		set __signed_stack_001goToPredefined, 40
26	343	633	#line 343 "C:\Users\ptan\Dropbox\robots\Final_Project_OS\Project\Main2.nxc"
26	343	633	#line 343 "C:\Users\ptan\Dropbox\robots\Final_Project_OS\Project\Main2.nxc"
26	344	633		set __D0goToPredefined, 2
26	345	636	#line 345 "C:\Users\ptan\Dropbox\robots\Final_Project_OS\Project\Main2.nxc"
26	346	636	#pragma macro 7
26	346	636		setout __OUT_AC, 2, __signed_stack_001goToPredefined, 1, __constVal7, 8, __constVal2, 7, __D0goToPredefined, 6, __constVal32, 5, __constVal0, 10, __constVal96, 11, __constVal32, 12, __constVal32, 0, __constVal63
26	8161	659	#line 8161 "C:\Users\ptan\Dropbox\robots\Final_Project_OS\Project\Main2.nxc"
26	345	659	#line 345 "C:\Users\ptan\Dropbox\robots\Final_Project_OS\Project\Main2.nxc"
26	345	659	#line 345 "C:\Users\ptan\Dropbox\robots\Final_Project_OS\Project\Main2.nxc"
26	346	659	#pragma macro 26
26	346	659		acquire __RLSBmutex0
26	346	660		mov __RLSReadBuf0, __RLSBbufLSWrite1
26	346	662		set __RLSBytesCount0, 1
26	346	665		wait2 NA, __constVal15
26	346	668		subcall __ReadLSBytes0, ____ReadLSBytes0_return
26	346	671		index __D0goToPredefined, __RLSReadBuf0, 65535
26	346	675		release __RLSBmutex0
26	8165	676	#line 8165 "C:\Users\ptan\Dropbox\robots\Final_Project_OS\Project\Main2.nxc"
26	345	676	#line 345 "C:\Users\ptan\Dropbox\robots\Final_Project_OS\Project\Main2.nxc"
26	346	676		mov __signed_stack_001goToPredefined, __D0goToPredefined
26	345	678	#line 345 "C:\Users\ptan\Dropbox\robots\Final_Project_OS\Project\Main2.nxc"
26	346	678		set __D0goToPredefined, 25
26	345	681	#line 345 "C:\Users\ptan\Dropbox\robots\Final_Project_OS\Project\Main2.nxc"
26	346	681		cmp 2, __zfgoToPredefined, __signed_stack_001goToPredefined, __D0goToPredefined
26	345	685	#line 345 "C:\Users\ptan\Dropbox\robots\Final_Project_OS\Project\Main2.nxc"
26	345	685	#line 345 "C:\Users\ptan\Dropbox\robots\Final_Project_OS\Project\Main2.nxc"
26	346	685		not __D0goToPredefined, __zfgoToPredefined
26	346	688	#line 346 "C:\Users\ptan\Dropbox\robots\Final_Project_OS\Project\Main2.nxc"
26	347	688		tst 5, __zfgoToPredefined, __D0goToPredefined
26	346	691	#line 346 "C:\Users\ptan\Dropbox\robots\Final_Project_OS\Project\Main2.nxc"
26	347	691		brtst 4, __NXC_Label_863, __zfgoToPredefined
26	346	694	#line 346 "C:\Users\ptan\Dropbox\robots\Final_Project_OS\Project\Main2.nxc"
26	346	694	#line 346 "C:\Users\ptan\Dropbox\robots\Final_Project_OS\Project\Main2.nxc"
26	347	694		jmp __NXC_Label_862
26	346	696	#line 346 "C:\Users\ptan\Dropbox\robots\Final_Project_OS\Project\Main2.nxc"
26	347	696	#line 347 "C:\Users\ptan\Dropbox\robots\Final_Project_OS\Project\Main2.nxc"
26	348	696	#pragma macro 7
26	348	696		setout motors, 2, __constVal0, 1, __constVal3, 8, __constVal0, 6, __constVal32, 7, __constVal0, 5, __constVal0, 10, __constVal96, 11, __constVal32, 12, __constVal32, 0, __constVal63
26	8190	719	#line 8190 "C:\Users\ptan\Dropbox\robots\Final_Project_OS\Project\Main2.nxc"
26	347	719	#line 347 "C:\Users\ptan\Dropbox\robots\Final_Project_OS\Project\Main2.nxc"
26	347	719	#line 347 "C:\Users\ptan\Dropbox\robots\Final_Project_OS\Project\Main2.nxc"
26	348	719		set __signed_stack_001goToPredefined, 40
26	347	722	#line 347 "C:\Users\ptan\Dropbox\robots\Final_Project_OS\Project\Main2.nxc"
26	347	722	#line 347 "C:\Users\ptan\Dropbox\robots\Final_Project_OS\Project\Main2.nxc"
26	348	722		set __D0goToPredefined, 405
26	348	725	#line 348 "C:\Users\ptan\Dropbox\robots\Final_Project_OS\Project\Main2.nxc"
26	349	725	#pragma macro 22
26	349	725		acquire __rotateMutex0
26	349	726		acquire __rotateMutex1
26	349	727		acquire __rotateMutex2
26	349	728		arrbuild __rotate_ports6, RMotor
26	349	732		mov __rotate_power6, __signed_stack_001goToPredefined
26	349	734		mov __rotate_angle6, __D0goToPredefined
26	349	736		mov __rotate_turnpct6, __constVal0
26	349	738		mov __rotate_sync6, __constVal0
26	349	740		mov __rotate_stop6, __constVal1
26	349	742		mov __rotate_theRVP6, __constVal32
26	349	744		mov __rotate_theRVI6, __constVal0
26	349	746		mov __rotate_theRVD6, __constVal96
26	349	748		subcall __RotateMotorVar, ____RotateMotorVar_return
26	349	751		release __rotateMutex2
26	349	752		release __rotateMutex1
26	349	753		release __rotateMutex0
26	8203	754	#line 8203 "C:\Users\ptan\Dropbox\robots\Final_Project_OS\Project\Main2.nxc"
26	348	754	#line 348 "C:\Users\ptan\Dropbox\robots\Final_Project_OS\Project\Main2.nxc"
26	349	754	#line 349 "C:\Users\ptan\Dropbox\robots\Final_Project_OS\Project\Main2.nxc"
26	350	754	#pragma macro 7
26	350	754		setout motors, 2, __constVal0, 1, __constVal3, 8, __constVal0, 6, __constVal32, 7, __constVal0, 5, __constVal0, 10, __constVal96, 11, __constVal32, 12, __constVal32, 0, __constVal63
26	8206	777	#line 8206 "C:\Users\ptan\Dropbox\robots\Final_Project_OS\Project\Main2.nxc"
26	349	777	#line 349 "C:\Users\ptan\Dropbox\robots\Final_Project_OS\Project\Main2.nxc"
26	349	777	#line 349 "C:\Users\ptan\Dropbox\robots\Final_Project_OS\Project\Main2.nxc"
26	350	777		set __signed_stack_001goToPredefined, 40
26	349	780	#line 349 "C:\Users\ptan\Dropbox\robots\Final_Project_OS\Project\Main2.nxc"
26	349	780	#line 349 "C:\Users\ptan\Dropbox\robots\Final_Project_OS\Project\Main2.nxc"
26	350	780		set __D0goToPredefined, 2
26	350	783	#line 350 "C:\Users\ptan\Dropbox\robots\Final_Project_OS\Project\Main2.nxc"
26	351	783	#pragma macro 7
26	351	783		setout __OUT_AC, 2, __signed_stack_001goToPredefined, 1, __constVal7, 8, __constVal2, 7, __D0goToPredefined, 6, __constVal32, 5, __constVal0, 10, __constVal96, 11, __constVal32, 12, __constVal32, 0, __constVal63
26	8219	806	#line 8219 "C:\Users\ptan\Dropbox\robots\Final_Project_OS\Project\Main2.nxc"
26	350	806	#line 350 "C:\Users\ptan\Dropbox\robots\Final_Project_OS\Project\Main2.nxc"
26	350	806	#line 350 "C:\Users\ptan\Dropbox\robots\Final_Project_OS\Project\Main2.nxc"
26	351	806	#pragma macro 26
26	351	806		acquire __RLSBmutex0
26	351	807		mov __RLSReadBuf0, __RLSBbufLSWrite1
26	351	809		set __RLSBytesCount0, 1
26	351	812		wait2 NA, __constVal15
26	351	815		subcall __ReadLSBytes0, ____ReadLSBytes0_return
26	351	818		index __D0goToPredefined, __RLSReadBuf0, 65535
26	351	822		release __RLSBmutex0
26	8223	823	#line 8223 "C:\Users\ptan\Dropbox\robots\Final_Project_OS\Project\Main2.nxc"
26	350	823	#line 350 "C:\Users\ptan\Dropbox\robots\Final_Project_OS\Project\Main2.nxc"
26	351	823		mov __signed_stack_001goToPredefined, __D0goToPredefined
26	350	825	#line 350 "C:\Users\ptan\Dropbox\robots\Final_Project_OS\Project\Main2.nxc"
26	351	825		set __D0goToPredefined, 7
26	350	828	#line 350 "C:\Users\ptan\Dropbox\robots\Final_Project_OS\Project\Main2.nxc"
26	351	828		cmp 2, __zfgoToPredefined, __signed_stack_001goToPredefined, __D0goToPredefined
26	350	832	#line 350 "C:\Users\ptan\Dropbox\robots\Final_Project_OS\Project\Main2.nxc"
26	350	832	#line 350 "C:\Users\ptan\Dropbox\robots\Final_Project_OS\Project\Main2.nxc"
26	351	832		not __D0goToPredefined, __zfgoToPredefined
26	351	835	#line 351 "C:\Users\ptan\Dropbox\robots\Final_Project_OS\Project\Main2.nxc"
26	352	835		tst 5, __zfgoToPredefined, __D0goToPredefined
26	351	838	#line 351 "C:\Users\ptan\Dropbox\robots\Final_Project_OS\Project\Main2.nxc"
26	352	838		brtst 4, __NXC_Label_877, __zfgoToPredefined
26	351	841	#line 351 "C:\Users\ptan\Dropbox\robots\Final_Project_OS\Project\Main2.nxc"
26	351	841	#line 351 "C:\Users\ptan\Dropbox\robots\Final_Project_OS\Project\Main2.nxc"
26	352	841		jmp __NXC_Label_876
26	351	843	#line 351 "C:\Users\ptan\Dropbox\robots\Final_Project_OS\Project\Main2.nxc"
26	352	843	#line 352 "C:\Users\ptan\Dropbox\robots\Final_Project_OS\Project\Main2.nxc"
26	353	843	#pragma macro 7
26	353	843		setout motors, 2, __constVal0, 1, __constVal3, 8, __constVal0, 6, __constVal32, 7, __constVal0, 5, __constVal0, 10, __constVal96, 11, __constVal32, 12, __constVal32, 0, __constVal63
26	8248	866	#line 8248 "C:\Users\ptan\Dropbox\robots\Final_Project_OS\Project\Main2.nxc"
26	352	866	#line 352 "C:\Users\ptan\Dropbox\robots\Final_Project_OS\Project\Main2.nxc"
26	353	866	#line 353 "C:\Users\ptan\Dropbox\robots\Final_Project_OS\Project\Main2.nxc"
26	354	866		subcall close, __close_return
26	353	868	#line 353 "C:\Users\ptan\Dropbox\robots\Final_Project_OS\Project\Main2.nxc"
26	354	868	#line 354 "C:\Users\ptan\Dropbox\robots\Final_Project_OS\Project\Main2.nxc"
26	355	868		subcall stopRotor, __stopRotor_return
26	354	870	#line 354 "C:\Users\ptan\Dropbox\robots\Final_Project_OS\Project\Main2.nxc"
26	354	870	#line 354 "C:\Users\ptan\Dropbox\robots\Final_Project_OS\Project\Main2.nxc"
26	355	870		set __open_7qG2_angle_7qG2_000, 15
26	354	873	#line 354 "C:\Users\ptan\Dropbox\robots\Final_Project_OS\Project\Main2.nxc"
26	355	873	#line 355 "C:\Users\ptan\Dropbox\robots\Final_Project_OS\Project\Main2.nxc"
26	356	873		subcall open, __open_return
26	355	875	#line 355 "C:\Users\ptan\Dropbox\robots\Final_Project_OS\Project\Main2.nxc"
26	356	875	#line 356 "C:\Users\ptan\Dropbox\robots\Final_Project_OS\Project\Main2.nxc"
26	357	875		subcall stopRotor, __stopRotor_return
26	356	877	#line 356 "C:\Users\ptan\Dropbox\robots\Final_Project_OS\Project\Main2.nxc"
26	356	877	#line 356 "C:\Users\ptan\Dropbox\robots\Final_Project_OS\Project\Main2.nxc"
26	357	877		set __open_7qG2_angle_7qG2_000, 165
26	356	880	#line 356 "C:\Users\ptan\Dropbox\robots\Final_Project_OS\Project\Main2.nxc"
26	357	880	#line 357 "C:\Users\ptan\Dropbox\robots\Final_Project_OS\Project\Main2.nxc"
26	358	880		subcall open, __open_return
26	357	882	#line 357 "C:\Users\ptan\Dropbox\robots\Final_Project_OS\Project\Main2.nxc"
26	358	882	#line 358 "C:\Users\ptan\Dropbox\robots\Final_Project_OS\Project\Main2.nxc"
26	359	882		subcall stopRotor, __stopRotor_return
26	358	884	#line 358 "C:\Users\ptan\Dropbox\robots\Final_Project_OS\Project\Main2.nxc"
26	361	884	#line 361 "C:\Users\ptan\Dropbox\robots\Final_Project_OS\Project\Main2.nxc"
26	362	884		subcall throwBall, __throwBall_return
26	361	887	#line 361 "C:\Users\ptan\Dropbox\robots\Final_Project_OS\Project\Main2.nxc"
26	362	887	#line 362 "C:\Users\ptan\Dropbox\robots\Final_Project_OS\Project\Main2.nxc"
26	363	887		subret __goToPredefined_return
27	365	0	#line 365 "C:\Users\ptan\Dropbox\robots\Final_Project_OS\Project\Main2.nxc"
27	366	0		set __D0scanningArenaLeft, 1
27	366	3	#line 366 "C:\Users\ptan\Dropbox\robots\Final_Project_OS\Project\Main2.nxc"
27	367	3		tst 5, __zfscanningArenaLeft, __D0scanningArenaLeft
27	366	6	#line 366 "C:\Users\ptan\Dropbox\robots\Final_Project_OS\Project\Main2.nxc"
27	367	6		brtst 4, __NXC_Label_887, __zfscanningArenaLeft
27	366	9	#line 366 "C:\Users\ptan\Dropbox\robots\Final_Project_OS\Project\Main2.nxc"
27	366	9	#line 366 "C:\Users\ptan\Dropbox\robots\Final_Project_OS\Project\Main2.nxc"
27	367	9		not __DU0scanningArenaLeft, scanningLeft
27	367	12	#line 367 "C:\Users\ptan\Dropbox\robots\Final_Project_OS\Project\Main2.nxc"
27	368	12		tst 5, __zfscanningArenaLeft, __DU0scanningArenaLeft
27	367	15	#line 367 "C:\Users\ptan\Dropbox\robots\Final_Project_OS\Project\Main2.nxc"
27	368	15		brtst 4, __NXC_Label_891, __zfscanningArenaLeft
27	367	18	#line 367 "C:\Users\ptan\Dropbox\robots\Final_Project_OS\Project\Main2.nxc"
27	367	18	#line 367 "C:\Users\ptan\Dropbox\robots\Final_Project_OS\Project\Main2.nxc"
27	368	18		jmp __NXC_Label_890
27	367	20	#line 367 "C:\Users\ptan\Dropbox\robots\Final_Project_OS\Project\Main2.nxc"
27	369	20	#line 369 "C:\Users\ptan\Dropbox\robots\Final_Project_OS\Project\Main2.nxc"
27	370	20		acquire moveMutex
27	369	21	#line 369 "C:\Users\ptan\Dropbox\robots\Final_Project_OS\Project\Main2.nxc"
27	369	21	#line 369 "C:\Users\ptan\Dropbox\robots\Final_Project_OS\Project\Main2.nxc"
27	370	21		set __D0scanningArenaLeft, 25
27	370	24	#line 370 "C:\Users\ptan\Dropbox\robots\Final_Project_OS\Project\Main2.nxc"
27	371	24	#pragma macro 10
27	371	24		acquire __OnRevMutex
27	371	25		neg __OnRev_Tmp, __D0scanningArenaLeft
27	371	28		setout LMotor, 2, __OnRev_Tmp, 1, __constVal3, 8, __constVal0, 6, __constVal32, 7, __constVal0, 5, __constVal0, 10, __constVal96, 11, __constVal32, 12, __constVal32, 0, __constVal63
27	371	51		release __OnRevMutex
27	8323	52	#line 8323 "C:\Users\ptan\Dropbox\robots\Final_Project_OS\Project\Main2.nxc"
27	370	52	#line 370 "C:\Users\ptan\Dropbox\robots\Final_Project_OS\Project\Main2.nxc"
27	370	52	#line 370 "C:\Users\ptan\Dropbox\robots\Final_Project_OS\Project\Main2.nxc"
27	371	52		set __D0scanningArenaLeft, 25
27	371	55	#line 371 "C:\Users\ptan\Dropbox\robots\Final_Project_OS\Project\Main2.nxc"
27	372	55	#pragma macro 7
27	372	55		setout RMotor, 2, __D0scanningArenaLeft, 1, __constVal3, 8, __constVal0, 6, __constVal32, 7, __constVal0, 5, __constVal0, 10, __constVal96, 11, __constVal32, 12, __constVal32, 0, __constVal63
27	8330	78	#line 8330 "C:\Users\ptan\Dropbox\robots\Final_Project_OS\Project\Main2.nxc"
27	371	78	#line 371 "C:\Users\ptan\Dropbox\robots\Final_Project_OS\Project\Main2.nxc"
27	371	78	#line 371 "C:\Users\ptan\Dropbox\robots\Final_Project_OS\Project\Main2.nxc"
27	372	78		set __Wait_7qG2_ms_7qG2_000_inline_scanningArenaLeft, 100
27	371	81	#line 371 "C:\Users\ptan\Dropbox\robots\Final_Project_OS\Project\Main2.nxc"
27	7921	81	#line 7921 "NXCDefs.h"
27	7922	81		wait2 NA, __Wait_7qG2_ms_7qG2_000_inline_scanningArenaLeft
27	7921	84	#line 7921 "NXCDefs.h"
27	373	84	#line 373 "C:\Users\ptan\Dropbox\robots\Final_Project_OS\Project\Main2.nxc"
27	374	84	#line 374 "C:\Users\ptan\Dropbox\robots\Final_Project_OS\Project\Main2.nxc"
27	375	84		release moveMutex
27	374	85	#line 374 "C:\Users\ptan\Dropbox\robots\Final_Project_OS\Project\Main2.nxc"
27	377	85	#line 377 "C:\Users\ptan\Dropbox\robots\Final_Project_OS\Project\Main2.nxc"
27	378	85		jmp __NXC_Label_886
27	377	87	#line 377 "C:\Users\ptan\Dropbox\robots\Final_Project_OS\Project\Main2.nxc"
27	378	87		exit -1, -1
28	380	0	#line 380 "C:\Users\ptan\Dropbox\robots\Final_Project_OS\Project\Main2.nxc"
28	381	0		set __D0scanningArenaRight, 1
28	381	3	#line 381 "C:\Users\ptan\Dropbox\robots\Final_Project_OS\Project\Main2.nxc"
28	382	3		tst 5, __zfscanningArenaRight, __D0scanningArenaRight
28	381	6	#line 381 "C:\Users\ptan\Dropbox\robots\Final_Project_OS\Project\Main2.nxc"
28	382	6		brtst 4, __NXC_Label_903, __zfscanningArenaRight
28	381	9	#line 381 "C:\Users\ptan\Dropbox\robots\Final_Project_OS\Project\Main2.nxc"
28	381	9	#line 381 "C:\Users\ptan\Dropbox\robots\Final_Project_OS\Project\Main2.nxc"
28	382	9		not __DU0scanningArenaRight, scanningRight
28	382	12	#line 382 "C:\Users\ptan\Dropbox\robots\Final_Project_OS\Project\Main2.nxc"
28	383	12		tst 5, __zfscanningArenaRight, __DU0scanningArenaRight
28	382	15	#line 382 "C:\Users\ptan\Dropbox\robots\Final_Project_OS\Project\Main2.nxc"
28	383	15		brtst 4, __NXC_Label_907, __zfscanningArenaRight
28	382	18	#line 382 "C:\Users\ptan\Dropbox\robots\Final_Project_OS\Project\Main2.nxc"
28	382	18	#line 382 "C:\Users\ptan\Dropbox\robots\Final_Project_OS\Project\Main2.nxc"
28	383	18		jmp __NXC_Label_906
28	382	20	#line 382 "C:\Users\ptan\Dropbox\robots\Final_Project_OS\Project\Main2.nxc"
28	384	20	#line 384 "C:\Users\ptan\Dropbox\robots\Final_Project_OS\Project\Main2.nxc"
28	385	20		acquire moveMutex
28	384	21	#line 384 "C:\Users\ptan\Dropbox\robots\Final_Project_OS\Project\Main2.nxc"
28	384	21	#line 384 "C:\Users\ptan\Dropbox\robots\Final_Project_OS\Project\Main2.nxc"
28	385	21		set __D0scanningArenaRight, 25
28	385	24	#line 385 "C:\Users\ptan\Dropbox\robots\Final_Project_OS\Project\Main2.nxc"
28	386	24	#pragma macro 10
28	386	24		acquire __OnRevMutex
28	386	25		neg __OnRev_Tmp, __D0scanningArenaRight
28	386	28		setout RMotor, 2, __OnRev_Tmp, 1, __constVal3, 8, __constVal0, 6, __constVal32, 7, __constVal0, 5, __constVal0, 10, __constVal96, 11, __constVal32, 12, __constVal32, 0, __constVal63
28	386	51		release __OnRevMutex
28	8391	52	#line 8391 "C:\Users\ptan\Dropbox\robots\Final_Project_OS\Project\Main2.nxc"
28	385	52	#line 385 "C:\Users\ptan\Dropbox\robots\Final_Project_OS\Project\Main2.nxc"
28	385	52	#line 385 "C:\Users\ptan\Dropbox\robots\Final_Project_OS\Project\Main2.nxc"
28	386	52		set __D0scanningArenaRight, 25
28	386	55	#line 386 "C:\Users\ptan\Dropbox\robots\Final_Project_OS\Project\Main2.nxc"
28	387	55	#pragma macro 7
28	387	55		setout LMotor, 2, __D0scanningArenaRight, 1, __constVal3, 8, __constVal0, 6, __constVal32, 7, __constVal0, 5, __constVal0, 10, __constVal96, 11, __constVal32, 12, __constVal32, 0, __constVal63
28	8398	78	#line 8398 "C:\Users\ptan\Dropbox\robots\Final_Project_OS\Project\Main2.nxc"
28	386	78	#line 386 "C:\Users\ptan\Dropbox\robots\Final_Project_OS\Project\Main2.nxc"
28	386	78	#line 386 "C:\Users\ptan\Dropbox\robots\Final_Project_OS\Project\Main2.nxc"
28	387	78		set __Wait_7qG2_ms_7qG2_000_inline_scanningArenaRight, 100
28	386	81	#line 386 "C:\Users\ptan\Dropbox\robots\Final_Project_OS\Project\Main2.nxc"
28	7921	81	#line 7921 "NXCDefs.h"
28	7922	81		wait2 NA, __Wait_7qG2_ms_7qG2_000_inline_scanningArenaRight
28	7921	84	#line 7921 "NXCDefs.h"
28	388	84	#line 388 "C:\Users\ptan\Dropbox\robots\Final_Project_OS\Project\Main2.nxc"
28	389	84	#line 389 "C:\Users\ptan\Dropbox\robots\Final_Project_OS\Project\Main2.nxc"
28	390	84		release moveMutex
28	389	85	#line 389 "C:\Users\ptan\Dropbox\robots\Final_Project_OS\Project\Main2.nxc"
28	392	85	#line 392 "C:\Users\ptan\Dropbox\robots\Final_Project_OS\Project\Main2.nxc"
28	393	85		jmp __NXC_Label_902
28	392	87	#line 392 "C:\Users\ptan\Dropbox\robots\Final_Project_OS\Project\Main2.nxc"
28	393	87		exit -1, -1
29	393	0	#line 393 "C:\Users\ptan\Dropbox\robots\Final_Project_OS\Project\Main2.nxc"
29	394	0		subret ____initialize_global_data_return
#CLUMPS
Clump	Name	Offset	File
0	main	0	C:\Users\ptan\Dropbox\robots\Final_Project_OS\Project\Main2.nxc
1	__RotateMotor6	7	NXTDefs.h
2	__RotateMotorVar	176	NXTDefs.h
3	__ResetSensorSubroutine	220	NXTDefs.h
4	__ReadLSBytes0	233	NXTDefs.h
5	__ReadLSBytes1	318	NXTDefs.h
6	__ReadLSBytes2	403	NXTDefs.h
7	PlaySound	488	NXCDefs.h
8	stopRotor	931	C:\Users\ptan\Dropbox\robots\Final_Project_OS\Project\.\Header.nxc
9	close	962	C:\Users\ptan\Dropbox\robots\Final_Project_OS\Project\.\Header.nxc
10	open	1010	C:\Users\ptan\Dropbox\robots\Final_Project_OS\Project\.\Header.nxc
11	init	1050	C:\Users\ptan\Dropbox\robots\Final_Project_OS\Project\Main2.nxc
12	getDegreeDiff	1236	C:\Users\ptan\Dropbox\robots\Final_Project_OS\Project\Main2.nxc
13	backtoOrigin	1268	C:\Users\ptan\Dropbox\robots\Final_Project_OS\Project\Main2.nxc
14	throwBall	1351	C:\Users\ptan\Dropbox\robots\Final_Project_OS\Project\Main2.nxc
15	getObjColor	1483	C:\Users\ptan\Dropbox\robots\Final_Project_OS\Project\Main2.nxc
16	isNotField	1509	C:\Users\ptan\Dropbox\robots\Final_Project_OS\Project\Main2.nxc
17	checkandthrow	1621	C:\Users\ptan\Dropbox\robots\Final_Project_OS\Project\Main2.nxc
18	moveTowardObj	1697	C:\Users\ptan\Dropbox\robots\Final_Project_OS\Project\Main2.nxc
19	changeDirection	1849	C:\Users\ptan\Dropbox\robots\Final_Project_OS\Project\Main2.nxc
20	moveFwd	1856	C:\Users\ptan\Dropbox\robots\Final_Project_OS\Project\Main2.nxc
21	moveBwd	1915	C:\Users\ptan\Dropbox\robots\Final_Project_OS\Project\Main2.nxc
22	reverseDirection	1979	C:\Users\ptan\Dropbox\robots\Final_Project_OS\Project\Main2.nxc
23	checkWallBack	2111	C:\Users\ptan\Dropbox\robots\Final_Project_OS\Project\Main2.nxc
24	reading	2140	C:\Users\ptan\Dropbox\robots\Final_Project_OS\Project\Main2.nxc
25	containBalls	2786	C:\Users\ptan\Dropbox\robots\Final_Project_OS\Project\Main2.nxc
26	goToPredefined	2923	C:\Users\ptan\Dropbox\robots\Final_Project_OS\Project\Main2.nxc
27	scanningArenaLeft	3812	C:\Users\ptan\Dropbox\robots\Final_Project_OS\Project\Main2.nxc
28	scanningArenaRight	3902	C:\Users\ptan\Dropbox\robots\Final_Project_OS\Project\Main2.nxc
29	__initialize_global_data	3992	C:\Users\ptan\Dropbox\robots\Final_Project_OS\Project\Main2.nxc
