#SYMBOLS
Index	Identifier	Type	Flag	Data	Size	RefCount
0	__D0reading	6	1	0	4	29
1	__D0PlaySound	6	1	4	4	48
2	__D0reverseDirection	6	1	8	4	8
3	__DU0reading	5	1	12	4	8
4	__D0moveTowardObj	6	1	16	4	12
5	__D0moveFwd	6	1	20	4	2
6	__D0open	6	1	24	4	2
7	__DU0moveTowardObj	5	1	28	4	8
8	__D0throwBall	6	1	32	4	4
9	__DU0scanningArenaRight	5	1	36	4	2
10	__DU0SetSensorLowspeed_inline_init	5	1	40	4	6
11	__D0SetSensorLowspeed_inline_init	6	1	44	4	9
12	__D0scanningArenaLeft	6	1	48	4	6
13	__DU0reverseDirection	5	1	52	4	2
14	__D0scanningArenaRight	6	1	56	4	6
15	__DU0scanningArenaLeft	5	1	60	4	2
16	__D0moveBwd	6	1	64	4	2
17	__D0checkandthrow	6	1	68	4	8
18	__D0backtoOrigin	6	1	72	4	13
19	__D0close	6	1	76	4	2
20	__DU0checkandthrow	5	1	80	4	5
21	__RLSBmutex1	9	0	84	4	6
22	__RLSBmutex0	9	0	88	4	12
23	__SPTArgsMutex	9	0	92	4	14
24	__RLSBmutex2	9	0	96	4	2
25	__D0init	6	1	100	4	7
26	__DU0goToPredefined	5	1	104	4	2
27	__DU0isNotField	5	1	108	4	2
28	__D0isNotField	6	1	112	4	2
29	__D0getObjColor	6	1	116	4	1
30	__D0getDegreeDiff	6	1	120	4	7
31	__D0goToPredefined	6	1	124	4	42
32	__DU0getObjColor	5	1	128	4	4
33	moveMutex	9	0	132	4	8
34	__Wait_7qG2_ms_7qG2_000_inline_stopRotor	5	1	136	4	2
35	__Wait_7qG2_ms_7qG2_000_inline_throwBall	5	1	140	4	4
36	__Wait_7qG2_ms_7qG2_000_inline_init	5	1	144	4	2
37	__signed_stack_001reading	6	1	148	4	16
38	__signed_stack_003PlaySound	6	1	152	4	14
39	__signed_stack_001throwBall	6	1	156	4	4
40	__signed_stack_002reading	6	1	160	4	12
41	__Wait_7qG2_ms_7qG2_000_inline_goToPredefined	5	1	164	4	4
42	__Wait_7qG2_ms_7qG2_000_inline_reading	5	1	168	4	2
43	__Wait_7qG2_ms_7qG2_000_inline_scanningArenaRight	5	1	172	4	2
44	__Wait_7qG2_ms_7qG2_000_inline_scanningArenaLeft	5	1	176	4	2
45	__Wait_7qG2_ms_7qG2_000_inline_moveFwd	5	1	180	4	2
46	__Wait_7qG2_ms_7qG2_000_inline_checkandthrow	5	1	184	4	2
47	__Wait_7qG2_ms_7qG2_000_inline_reverseDirection	5	1	188	4	2
48	__Wait_7qG2_ms_7qG2_000_inline_moveBwd	5	1	192	4	2
49	__signed_stack_002PlaySound	6	1	196	4	14
50	__signed_stack_002close	6	1	200	4	2
51	__signed_stack_001close	6	1	204	4	2
52	__signed_stack_004close	6	1	208	4	2
53	__signed_stack_003close	6	1	212	4	2
54	__signed_stack_001checkandthrow	6	1	216	4	2
55	__signed_stack_001backtoOrigin	6	1	220	4	2
56	__unsigned_stack_002checkandthrow	5	1	224	4	2
57	__unsigned_stack_001checkandthrow	5	1	228	4	2
58	__signed_stack_001moveTowardObj	6	1	232	4	6
59	__signed_stack_001moveFwd	6	1	236	4	2
60	__signed_stack_001PlaySound	6	1	240	4	38
61	__signed_stack_001open	6	1	244	4	2
62	__signed_stack_001goToPredefined	6	1	248	4	26
63	__signed_stack_001getDegreeDiff	6	1	252	4	2
64	__signed_stack_001moveBwd	6	1	256	4	2
65	__unsigned_stack_001isNotField	5	1	260	4	2
66	__rotateMutex1	9	0	264	4	12
67	__TextOutMutex	9	0	268	4	12
68	__rotate_theAngle6	5	1	272	4	2
69	__CLSRMutex0	9	0	276	4	2
70	__rotate_angle6	6	1	280	4	10
71	__rotateMutex2	9	0	284	4	12
72	__CLSWMutex1	9	0	288	4	2
73	__CLSRMutex1	9	0	292	4	2
74	__CLSCSMutex1	9	0	296	4	2
75	__PointOutMutex	9	0	300	4	2
76	__OnRevMutex	9	0	304	4	14
77	__CLSWMutex0	9	0	308	4	2
78	__CLSCSMutex0	9	0	312	4	2
79	__CLSWMutex2	9	0	316	4	2
80	__CLSRMutex2	9	0	320	4	2
81	__CLSCSMutex2	9	0	324	4	2
82	__rotateMutex0	9	0	328	4	12
83	__getDegreeDiff_7qG2_current_7qG2_000	4	1	332	2	2
84	__moveBwd_7qG2_moveTime_7qG2_000	4	1	334	2	2
85	__getDegreeDiff_7qG2_diff_7qG2_000	4	1	336	2	5
86	__constVal200	4	0	338	2	3
87	__getDegreeDiff_7qG2_old_7qG2_000	4	1	340	2	2
88	__open_7qG2_angle_7qG2_000	4	1	342	2	4
89	__moveFwd_7qG2_moveTime_7qG2_000	4	1	344	2	3
90	__rotate_RotCount6	4	1	346	2	4
91	ownGoal	4	1	348	2	4
92	currentCompass	4	1	350	2	4
93	__constVal523	4	0	352	2	3
94	relBearing	4	1	354	2	5
95	__rotate_OldRotCount6	4	1	356	2	2
96	__constVal500	4	0	358	2	1
97	__reverseDirection_7qG2_moveTime_7qG2_000	4	1	360	2	2
98	__constVal360	4	0	362	2	1
99	__PlaySound_7qG2_aCode_7qG2_000	4	1	364	2	7
100	__constVal150	4	0	366	2	1
101	__PlaySound_7qG2_i_7qG2_001	4	1	368	2	15
102	scanningLeft	1	0	370	1	3
103	__rotate_stop6	1	1	371	1	7
104	__rotate_turnpct6	2	1	372	1	8
105	__rotate_firstPort6	1	1	373	1	5
106	__rotate_sync6	1	1	374	1	7
107	__rotate_theRM6	1	1	375	1	4
108	__rotate_theRS6	1	1	376	1	3
109	__rotate_theUF6	1	1	377	1	6
110	__rotate_theOM6	1	1	378	1	7
111	__PlaySound_return	1	1	379	1	3
112	__constVal63	2	0	380	1	34
113	__constVal96	2	0	381	1	40
114	__open_return	1	1	382	1	5
115	__close_return	1	1	383	1	4
116	LMotor	1	0	384	1	7
117	RMotor	1	1	385	1	5
118	__stopRotor_return	1	1	386	1	5
119	GMotor	1	0	387	1	3
120	__checkandthrow_return	1	1	388	1	7
121	__checkandthrow_7qG2_output_7qG2_000	1	1	389	1	2
122	__moveTowardObj_return	1	1	390	1	5
123	__isNotField_return	1	1	391	1	4
124	__throwBall_return	1	1	392	1	3
125	__getObjColor_return	1	1	393	1	5
126	__getObjColor_7qG2_output_7qG2_000	1	1	394	1	3
127	__moveTowardObj_7qG2_meetWall_7qG2_000	1	1	395	1	4
128	__OnRev_Tmp	2	1	396	1	14
129	__ClearSensor_7qG2_port_7qG2_000_inline_reading	1	1	397	1	2
130	__reading_7qG2_grab_7qG2_003	1	1	398	1	4
131	__moveBwd_return	1	1	399	1	3
132	__ClearSensor_7qG2_port_7qG2_000_inline_moveTowardObj	1	1	400	1	2
133	__changeDirection_return	1	1	401	1	4
134	__moveFwd_return	1	1	402	1	4
135	__constValNeg40	2	0	403	1	1
136	__SetSensorType_7qG2_port_7qG2_000_inline_SetSensorLowspeed_inline_init	1	1	404	1	6
137	__SetSensorType_7qG2_type_7qG2_000_inline_SetSensorLowspeed_inline_init	1	1	405	1	6
138	__SetSensorMode_7qG2_port_7qG2_000_inline_SetSensorLowspeed_inline_init	1	1	406	1	6
139	__SetSensorLowspeed_7qG2_bIsPowered_7qG2_000_inline_init	1	1	407	1	6
140	scanningRight	1	1	408	1	9
141	____initialize_global_data_return	1	1	409	1	3
142	__SetSensorLowspeed_7qG2_port_7qG2_000_inline_init	1	1	410	1	15
143	__SetSensorMode_7qG2_mode_7qG2_000_inline_SetSensorLowspeed_inline_init	1	1	411	1	6
144	__getDegreeDiff_return	1	1	412	1	4
145	__backtoOrigin_return	1	1	413	1	5
146	__reverseDirection_return	1	1	414	1	3
147	__goToPredefined_return	1	1	415	1	3
148	__ResetSensor_7qG2_port_7qG2_000_inline_SetSensorLowspeed_inline_init	1	1	416	1	3
149	__SetSensorTouch_7qG2_port_7qG2_000_inline_init	1	1	417	1	4
150	__rotate_power6	1	1	418	1	9
151	__RLSBResult1	2	1	419	1	7
152	____ReadLSBytes1_return	1	1	420	1	5
153	__zfmoveTowardObj	1	1	421	1	11
154	__zfgoToPredefined	1	1	422	1	20
155	__RLSBytesCount1	1	1	423	1	15
156	__zfisNotField	1	1	424	1	2
157	____ResetSensorSubroutine_return	1	1	425	1	6
158	__zfreading	1	1	426	1	16
159	__RLSBytesCount0	1	1	427	1	12
160	__constVal15	2	0	428	1	15
161	__zfPlaySound	1	1	429	1	27
162	__RLSBIterations0	1	1	430	1	4
163	__constVal7	2	0	431	1	10
164	__RLSBIterations2	1	1	432	1	4
165	__RLSBytesCount2	1	1	433	1	7
166	__constVal2	2	0	434	1	10
167	__constVal100	2	0	435	1	2
168	__PFTmp	1	1	436	1	1
169	__zfgetDegreeDiff	1	1	437	1	3
170	____ReadLSBytes2_return	1	1	438	1	3
171	__RLSBIterations1	1	1	439	1	4
172	__zfbacktoOrigin	1	1	440	1	3
173	__RLSBResult2	2	1	441	1	8
174	__zfcheckandthrow	1	1	442	1	7
175	__ResetSensorTmp	1	1	443	1	2
176	__constVal0	2	1	444	1	123
177	__constVal1	2	0	445	1	23
178	__constVal32	2	0	446	1	112
179	____RotateMotor6_return	1	1	447	1	3
180	__zfSetSensorLowspeed_inline_init	1	1	448	1	6
181	__constVal50	2	0	449	1	2
182	__rotate_theRVD6	1	1	450	1	7
183	__rotate_theRVI6	1	1	451	1	7
184	__rotate_theRVP6	1	1	452	1	7
185	__rotate_theTurnPct6	2	1	453	1	4
186	__rotate_thePower6	2	1	454	1	4
187	__rotate_rs6	1	1	455	1	10
188	__constVal4	2	0	456	1	4
189	__zfscanningArenaLeft	1	1	457	1	4
190	__RLSBResult0	2	1	458	1	7
191	__ResetSensorPort	1	1	459	1	6
192	__zfreverseDirection	1	1	460	1	2
193	__constVal5	2	0	461	1	1
194	__constVal6	2	0	462	1	1
195	____RotateMotorVar_return	1	1	463	1	8
196	____ReadLSBytes0_return	1	1	464	1	8
197	____RotateMotor6_sign_tmp	2	1	465	1	4
198	__constVal3	2	0	466	1	26
199	__zfscanningArenaRight	1	1	467	1	4
200	__PointOutArgs	8	0	3	12	4
201	__PointOutArgs.Result	2	1	468	1	4
202	__PointOutArgs.Location	8	0	2	4	4
203	__PointOutArgs.Location.X	4	1	472	2	4
204	__PointOutArgs.Location.Y	4	1	474	2	4
205	__PointOutArgs.Options	5	1	476	4	4
206	__CLSCSArgs1	8	0	3	4	4
207	__CLSCSArgs1.Result	2	1	480	1	4
208	__CLSCSArgs1.Port	1	1	481	1	4
209	__CLSCSArgs1.BytesReady	1	1	482	1	4
210	__CLSWArgs1	8	0	4	12	5
211	__CLSWArgs1.Result	2	1	484	1	5
212	__CLSWArgs1.Port	1	1	485	1	5
213	__CLSWArgs1.Buffer	7	0	486	4	5
214	__CLSWArgs1.Buffer.Buffer_type	1	0	0	1	0
215	__CLSWArgs1.ReturnLen	1	1	488	1	5
216	__CLSRArgs1	8	0	4	12	5
217	__CLSRArgs1.Result	2	1	492	1	5
218	__CLSRArgs1.Port	1	1	493	1	5
219	__CLSRArgs1.Buffer	7	0	494	4	5
220	__CLSRArgs1.Buffer.Buffer_type	1	0	0	1	0
221	__CLSRArgs1.BufferLen	1	1	496	1	5
222	__CLSCSArgs0	8	0	3	4	4
223	__CLSCSArgs0.Result	2	1	500	1	4
224	__CLSCSArgs0.Port	1	1	501	1	4
225	__CLSCSArgs0.BytesReady	1	1	502	1	4
226	__CLSWArgs0	8	0	4	12	5
227	__CLSWArgs0.Result	2	1	504	1	5
228	__CLSWArgs0.Port	1	1	505	1	5
229	__CLSWArgs0.Buffer	7	0	506	4	5
230	__CLSWArgs0.Buffer.Buffer_type	1	0	0	1	0
231	__CLSWArgs0.ReturnLen	1	1	508	1	5
232	__CLSRArgs0	8	0	4	12	5
233	__CLSRArgs0.Result	2	1	512	1	5
234	__CLSRArgs0.Port	1	1	513	1	5
235	__CLSRArgs0.Buffer	7	0	514	4	5
236	__CLSRArgs0.Buffer.Buffer_type	1	0	0	1	0
237	__CLSRArgs0.BufferLen	1	1	516	1	5
238	__CLSCSArgs2	8	0	3	4	4
239	__CLSCSArgs2.Result	2	1	520	1	4
240	__CLSCSArgs2.Port	1	1	521	1	4
241	__CLSCSArgs2.BytesReady	1	1	522	1	4
242	__CLSRArgs2	8	0	4	12	5
243	__CLSRArgs2.Result	2	1	524	1	5
244	__CLSRArgs2.Port	1	1	525	1	5
245	__CLSRArgs2.Buffer	7	0	526	4	5
246	__CLSRArgs2.Buffer.Buffer_type	1	0	0	1	0
247	__CLSRArgs2.BufferLen	1	1	528	1	5
248	__TextOutArgs	8	0	4	16	36
249	__TextOutArgs.Result	2	1	532	1	36
250	__TextOutArgs.Location	8	0	2	4	36
251	__TextOutArgs.Location.X	4	1	536	2	36
252	__TextOutArgs.Location.Y	4	1	538	2	36
253	__TextOutArgs.Text	7	0	540	4	36
254	__TextOutArgs.Text.Text_type	1	0	0	1	0
255	__TextOutArgs.Options	5	1	544	4	36
256	__SPTArgs	8	0	5	8	42
257	__SPTArgs.Result	2	1	548	1	42
258	__SPTArgs.Frequency	3	1	550	2	42
259	__SPTArgs.Duration	3	1	552	2	42
260	__SPTArgs.Loop	1	1	554	1	42
261	__SPTArgs.Volume	1	1	555	1	42
262	__CLSWArgs2	8	0	4	12	5
263	__CLSWArgs2.Result	2	1	556	1	5
264	__CLSWArgs2.Port	1	1	557	1	5
265	__CLSWArgs2.Buffer	7	0	558	4	5
266	__CLSWArgs2.Buffer.Buffer_type	1	0	0	1	0
267	__CLSWArgs2.ReturnLen	1	1	560	1	5
268	__RLSBbufLSWrite1	7	0	562	4	10
269	__RLSBbufLSWrite1.__RLSBbufLSWrite1_type	1	0	0	1	0
270	__OUT_ABC	7	0	564	4	1
271	__OUT_ABC.__OUT_ABC_type	1	0	0	1	0
272	__RLSLastGoodRead0	7	0	566	4	2
273	__RLSLastGoodRead0.__RLSLastGoodRead0_type	1	0	0	1	0
274	__constStr0011	7	0	568	4	1
275	__constStr0011.__constStr0011_type	1	1	0	1	0
276	__OUT_AC	7	0	570	4	9
277	__OUT_AC.__OUT_AC_type	1	0	0	1	0
278	__OUT_AB	7	0	572	4	1
279	__OUT_AB.__OUT_AB_type	1	0	0	1	0
280	__OUT_BC	7	0	574	4	1
281	__OUT_BC.__OUT_BC_type	1	0	0	1	0
282	motors	7	0	576	4	17
283	motors.motors_type	1	0	0	1	0
284	__constStr0010	7	0	578	4	1
285	__constStr0010.__constStr0010_type	1	1	0	1	0
286	__RLSLastGoodRead1	7	0	580	4	2
287	__RLSLastGoodRead1.__RLSLastGoodRead1_type	1	0	0	1	0
288	__RLSReadBuf0	7	0	582	4	18
289	__RLSReadBuf0.__RLSReadBuf0_type	1	0	0	1	0
290	__RLSReadBuf1	7	0	584	4	15
291	__RLSReadBuf1.__RLSReadBuf1_type	1	0	0	1	0
292	__RLSLastGoodRead2	7	0	586	4	2
293	__RLSLastGoodRead2.__RLSLastGoodRead2_type	1	0	0	1	0
294	__rotate_ports6	7	0	588	4	17
295	__rotate_ports6.__rotate_ports6_type	1	0	0	1	0
296	__constStr0009	7	0	590	4	1
297	__constStr0009.__constStr0009_type	1	1	0	1	0
298	__RLSReadBuf2	7	0	592	4	8
299	__RLSReadBuf2.__RLSReadBuf2_type	1	0	0	1	0
300	__strbufreading	7	0	594	4	6
301	__strbufreading.__strbufreading_type	1	0	0	1	0
#SOURCES
Clump	Line	PC	Source
0	10	0	#line 10 "C:\Users\Kawtar\Documents\GitHub\OS_Project\new - Copy\Main.nxc"
0	11	0		subcall __initialize_global_data, ____initialize_global_data_return
0	10	2	#line 10 "C:\Users\Kawtar\Documents\GitHub\OS_Project\new - Copy\Main.nxc"
0	11	2	#line 11 "C:\Users\Kawtar\Documents\GitHub\OS_Project\new - Copy\Main.nxc"
0	12	2		exitto init
0	11	4	#line 11 "C:\Users\Kawtar\Documents\GitHub\OS_Project\new - Copy\Main.nxc"
0	12	4		exit -1, -1
1	4794	0		brtst 4, __rotate_Done6, __rotate_angle6
1	4795	3		set ____RotateMotor6_sign_tmp, 0
1	4795	6		brtst EQ, __sign_6, __rotate_angle6
1	4795	9		set ____RotateMotor6_sign_tmp, -1
1	4795	12		brtst LT, __sign_6, __rotate_angle6
1	4795	15		set ____RotateMotor6_sign_tmp, 1
1	4795	18	__sign_6:	mov __rotate_thePower6, ____RotateMotor6_sign_tmp
1	4796	20		abs __rotate_theAngle6, __rotate_angle6
1	4797	23		mul __rotate_thePower6, __rotate_thePower6, __rotate_power6
1	4799	27		set __rotate_theUF6, 23
1	4800	30		brtst 4, __rotate_NoSync6, __rotate_sync6
1	4801	33		set __rotate_theOM6, 7
1	4802	36		set __rotate_theRM6, 2
1	4803	39		mov __rotate_theTurnPct6, __rotate_turnpct6
1	4804	41		brtst 4, __rotate_Start6, __rotate_theTurnPct6
1	4805	44		add __rotate_theUF6, __rotate_theUF6, __constVal32
1	4806	48		jmp __rotate_Start6
1	4808	50		set __rotate_theOM6, 3
1	4809	53		set __rotate_theRM6, 0
1	4810	56		set __rotate_theTurnPct6, 0
1	4812	59		set __rotate_theRS6, 32
1	4813	62		setout __rotate_ports6, 1, __rotate_theOM6, 8, __rotate_theRM6, 5, __rotate_theAngle6, 6, __rotate_theRS6, 10, __rotate_theRVP6, 11, __rotate_theRVI6, 12, __rotate_theRVD6, 2, __rotate_thePower6, 7, __rotate_turnpct6, 0, __rotate_theUF6
1	4816	85		index __rotate_firstPort6, __rotate_ports6, 65535
1	4818	89		getout __rotate_power6, __rotate_firstPort6, 2
1	4819	93		brtst 4, __rotate_doneRunning6, __rotate_power6
1	4820	96		getout __rotate_rs6, __rotate_firstPort6, 6
1	4821	100		brcmp 4, __rotate_Running6, __rotate_rs6, __constVal32
1	4823	104		brtst 4, __rotate_Reset6, __rotate_stop6
1	4825	107		set __rotate_theOM6, 7
1	4826	110		set __rotate_theUF6, 7
1	4827	113		setout __rotate_ports6, 1, __rotate_theOM6, 8, __constVal1, 6, __rotate_theRS6, 2, __constVal0, 5, __constVal0, 0, __rotate_theUF6
1	4829	128		getout __rotate_RotCount6, __rotate_firstPort6, 14
1	4831	132		mov __rotate_OldRotCount6, __rotate_RotCount6
1	4832	134		wait2 NA, __constVal50
1	4834	137		getout __rotate_RotCount6, __rotate_firstPort6, 14
1	4835	141		brcmp 5, __rotate_Stabilize6, __rotate_OldRotCount6, __rotate_RotCount6
1	4836	145		set __rotate_theOM6, 4
1	4837	148		setout __rotate_ports6, 8, __rotate_theRM6, 6, __constVal0, 1, __rotate_theOM6, 0, __constVal1
1	4840	159		brtst 4, __rotate_Done6, __rotate_theTurnPct6
1	4841	162		setout __rotate_ports6, 0, __constVal32
1	4843	167		subret ____RotateMotor6_return
2	4854	0		arrsize __rotate_rs6, __rotate_ports6
2	4855	3		brcmp 1, __rmvCallSub, __rotate_rs6, __constVal1
2	4857	7		index __rotate_rs6, __rotate_ports6, 65535
2	4858	11		brcmp 0, __rmvCallSub, __rotate_rs6, __constVal3
2	4859	15		brcmp 1, __rmvExit, __rotate_rs6, __constVal6
2	4861	19		mov __rotate_ports6, __OUT_AB
2	4862	21		brcmp 4, __rmvCallSub, __rotate_rs6, __constVal3
2	4863	25		mov __rotate_ports6, __OUT_AC
2	4864	27		brcmp 4, __rmvCallSub, __rotate_rs6, __constVal4
2	4865	31		mov __rotate_ports6, __OUT_BC
2	4866	33		brcmp 4, __rmvCallSub, __rotate_rs6, __constVal5
2	4867	37		mov __rotate_ports6, __OUT_ABC
2	4869	39		subcall __RotateMotor6, ____RotateMotor6_return
2	4871	42		subret ____RotateMotorVar_return
3	4885	0		setin __constVal1, __ResetSensorPort, 5
3	4887	4		getin __ResetSensorTmp, __ResetSensorPort, 5
3	4888	8		brtst 5, __SensorStillInvalid, __ResetSensorTmp
3	4889	11		subret ____ResetSensorSubroutine_return
4	5672	0	#pragma macro 25
4	5672	0		acquire __CLSWMutex0
4	5672	1		set __CLSWArgs0.Port, 0
4	5672	4		mov __CLSWArgs0.ReturnLen, __RLSBytesCount0
4	5672	6		mov __CLSWArgs0.Buffer, __RLSReadBuf0
4	5672	8		syscall 21, __CLSWArgs0
4	5672	11		mov __RLSBResult0, __CLSWArgs0.Result
4	5672	13		release __CLSWMutex0
4	5673	14	#line 5673 "NXTDefs.h"
4	5674	14		brtst 4, __RLSBReturn0, __RLSBytesCount0
4	5675	17		arrinit __RLSReadBuf0, __constVal0, __RLSBytesCount0
4	5676	21		brtst 5, __RLSBError0, __RLSBResult0
4	5677	24		set __RLSBIterations0, 4
4	5679	27	#pragma macro 23
4	5679	27		acquire __CLSCSMutex0
4	5679	28		set __CLSCSArgs0.Port, 0
4	5679	31		syscall 23, __CLSCSArgs0
4	5679	34		mov __RLSBytesCount0, __CLSCSArgs0.BytesReady
4	5679	36		mov __RLSBResult0, __CLSCSArgs0.Result
4	5679	38		release __CLSCSMutex0
4	5679	39	#line 5679 "NXTDefs.h"
4	5680	39		sub __RLSBIterations0, __RLSBIterations0, __constVal1
4	5681	43		brtst 2, __RLSBError0, __RLSBIterations0
4	5682	46		brtst 0, __RLSBError0, __RLSBResult0
4	5683	49		brtst 4, __RLSBReadyToRead0, __RLSBResult0
4	5685	52		wait2 NA, __constVal15
4	5686	55		jmp __RLSBDoCheckStatus0
4	5689	57	#pragma macro 25
4	5689	57		acquire __CLSRMutex0
4	5689	58		set __CLSRArgs0.Port, 0
4	5689	61		mov __CLSRArgs0.BufferLen, __RLSBytesCount0
4	5689	63		syscall 22, __CLSRArgs0
4	5689	66		mov __RLSReadBuf0, __CLSRArgs0.Buffer
4	5689	68		mov __RLSBResult0, __CLSRArgs0.Result
4	5689	70		release __CLSRMutex0
4	5689	71	#line 5689 "NXTDefs.h"
4	5690	71		brtst 5, __RLSBError0, __RLSBResult0
4	5691	74		mov __RLSLastGoodRead0, __RLSReadBuf0
4	5692	76		jmp __RLSBDone0
4	5694	78		mov __RLSReadBuf0, __RLSLastGoodRead0
4	5696	80		arrsize __RLSBytesCount0, __RLSReadBuf0
4	5698	83		subret ____ReadLSBytes0_return
5	5710	0	#pragma macro 25
5	5710	0		acquire __CLSWMutex1
5	5710	1		set __CLSWArgs1.Port, 1
5	5710	4		mov __CLSWArgs1.ReturnLen, __RLSBytesCount1
5	5710	6		mov __CLSWArgs1.Buffer, __RLSReadBuf1
5	5710	8		syscall 21, __CLSWArgs1
5	5710	11		mov __RLSBResult1, __CLSWArgs1.Result
5	5710	13		release __CLSWMutex1
5	5710	14	#line 5710 "NXTDefs.h"
5	5711	14		brtst 4, __RLSBReturn1, __RLSBytesCount1
5	5712	17		arrinit __RLSReadBuf1, __constVal0, __RLSBytesCount1
5	5713	21		brtst 5, __RLSBError1, __RLSBResult1
5	5714	24		set __RLSBIterations1, 4
5	5716	27	#pragma macro 23
5	5716	27		acquire __CLSCSMutex1
5	5716	28		set __CLSCSArgs1.Port, 1
5	5716	31		syscall 23, __CLSCSArgs1
5	5716	34		mov __RLSBytesCount1, __CLSCSArgs1.BytesReady
5	5716	36		mov __RLSBResult1, __CLSCSArgs1.Result
5	5716	38		release __CLSCSMutex1
5	5716	39	#line 5716 "NXTDefs.h"
5	5717	39		sub __RLSBIterations1, __RLSBIterations1, __constVal1
5	5718	43		brtst 2, __RLSBError1, __RLSBIterations1
5	5719	46		brtst 0, __RLSBError1, __RLSBResult1
5	5720	49		brtst 4, __RLSBReadyToRead1, __RLSBResult1
5	5722	52		wait2 NA, __constVal15
5	5723	55		jmp __RLSBDoCheckStatus1
5	5726	57	#pragma macro 25
5	5726	57		acquire __CLSRMutex1
5	5726	58		set __CLSRArgs1.Port, 1
5	5726	61		mov __CLSRArgs1.BufferLen, __RLSBytesCount1
5	5726	63		syscall 22, __CLSRArgs1
5	5726	66		mov __RLSReadBuf1, __CLSRArgs1.Buffer
5	5726	68		mov __RLSBResult1, __CLSRArgs1.Result
5	5726	70		release __CLSRMutex1
5	5726	71	#line 5726 "NXTDefs.h"
5	5727	71		brtst 5, __RLSBError1, __RLSBResult1
5	5728	74		mov __RLSLastGoodRead1, __RLSReadBuf1
5	5729	76		jmp __RLSBDone1
5	5731	78		mov __RLSReadBuf1, __RLSLastGoodRead1
5	5733	80		arrsize __RLSBytesCount1, __RLSReadBuf1
5	5735	83		subret ____ReadLSBytes1_return
6	5747	0	#pragma macro 25
6	5747	0		acquire __CLSWMutex2
6	5747	1		set __CLSWArgs2.Port, 2
6	5747	4		mov __CLSWArgs2.ReturnLen, __RLSBytesCount2
6	5747	6		mov __CLSWArgs2.Buffer, __RLSReadBuf2
6	5747	8		syscall 21, __CLSWArgs2
6	5747	11		mov __RLSBResult2, __CLSWArgs2.Result
6	5747	13		release __CLSWMutex2
6	5747	14	#line 5747 "NXTDefs.h"
6	5748	14		brtst 4, __RLSBReturn2, __RLSBytesCount2
6	5749	17		arrinit __RLSReadBuf2, __constVal0, __RLSBytesCount2
6	5750	21		brtst 5, __RLSBError2, __RLSBResult2
6	5751	24		set __RLSBIterations2, 4
6	5753	27	#pragma macro 23
6	5753	27		acquire __CLSCSMutex2
6	5753	28		set __CLSCSArgs2.Port, 2
6	5753	31		syscall 23, __CLSCSArgs2
6	5753	34		mov __RLSBytesCount2, __CLSCSArgs2.BytesReady
6	5753	36		mov __RLSBResult2, __CLSCSArgs2.Result
6	5753	38		release __CLSCSMutex2
6	5753	39	#line 5753 "NXTDefs.h"
6	5754	39		sub __RLSBIterations2, __RLSBIterations2, __constVal1
6	5755	43		brtst 2, __RLSBError2, __RLSBIterations2
6	5756	46		brtst 0, __RLSBError2, __RLSBResult2
6	5757	49		brtst 4, __RLSBReadyToRead2, __RLSBResult2
6	5759	52		wait2 NA, __constVal15
6	5760	55		jmp __RLSBDoCheckStatus2
6	5763	57	#pragma macro 25
6	5763	57		acquire __CLSRMutex2
6	5763	58		set __CLSRArgs2.Port, 2
6	5763	61		mov __CLSRArgs2.BufferLen, __RLSBytesCount2
6	5763	63		syscall 22, __CLSRArgs2
6	5763	66		mov __RLSReadBuf2, __CLSRArgs2.Buffer
6	5763	68		mov __RLSBResult2, __CLSRArgs2.Result
6	5763	70		release __CLSRMutex2
6	5763	71	#line 5763 "NXTDefs.h"
6	5764	71		brtst 5, __RLSBError2, __RLSBResult2
6	5765	74		mov __RLSLastGoodRead2, __RLSReadBuf2
6	5766	76		jmp __RLSBDone2
6	5768	78		mov __RLSReadBuf2, __RLSLastGoodRead2
6	5770	80		arrsize __RLSBytesCount2, __RLSReadBuf2
6	5772	83		subret ____ReadLSBytes2_return
7	6518	0	#line 6518 "NXCDefs.h"
7	6519	0		mov __signed_stack_001PlaySound, __PlaySound_7qG2_aCode_7qG2_000
7	6518	2	#line 6518 "NXCDefs.h"
7	6519	2	#line 6519 "NXCDefs.h"
7	6520	2		set __D0PlaySound, 0
7	6519	5	#line 6519 "NXCDefs.h"
7	6520	5		cmp 4, __zfPlaySound, __signed_stack_001PlaySound, __D0PlaySound
7	6519	9	#line 6519 "NXCDefs.h"
7	6520	9		mov __D0PlaySound, __zfPlaySound
7	6519	12	#line 6519 "NXCDefs.h"
7	6520	12		brtst 4, __NXC_Label_56, __zfPlaySound
7	6519	15	#line 6519 "NXCDefs.h"
7	6520	15		set __signed_stack_001PlaySound, 600
7	6519	18	#line 6519 "NXCDefs.h"
7	6519	18	#line 6519 "NXCDefs.h"
7	6520	18		set __signed_stack_002PlaySound, 200
7	6519	21	#line 6519 "NXCDefs.h"
7	6519	21	#line 6519 "NXCDefs.h"
7	6520	21		set __signed_stack_003PlaySound, 4
7	6519	24	#line 6519 "NXCDefs.h"
7	6519	24	#line 6519 "NXCDefs.h"
7	6520	24		set __D0PlaySound, 0
7	6520	27	#line 6520 "NXCDefs.h"
7	6521	27		acquire __SPTArgsMutex
7	6520	28	#line 6520 "NXCDefs.h"
7	6521	28		mov __SPTArgs.Frequency, __signed_stack_001PlaySound
7	6520	31	#line 6520 "NXCDefs.h"
7	6521	31		mov __SPTArgs.Duration, __signed_stack_002PlaySound
7	6520	34	#line 6520 "NXCDefs.h"
7	6521	34		mov __SPTArgs.Volume, __signed_stack_003PlaySound
7	6520	37	#line 6520 "NXCDefs.h"
7	6521	37		mov __SPTArgs.Loop, __D0PlaySound
7	6520	40	#line 6520 "NXCDefs.h"
7	6521	40		syscall 10, __SPTArgs
7	6520	43	#line 6520 "NXCDefs.h"
7	6521	43		mov __D0PlaySound, __SPTArgs.Result
7	6520	46	#line 6520 "NXCDefs.h"
7	6521	46		release __SPTArgsMutex
7	6520	47	#line 6520 "NXCDefs.h"
7	6520	47	#line 6520 "NXCDefs.h"
7	6521	47		jmp __NXC_Label_65
7	6520	49	#line 6520 "NXCDefs.h"
7	6521	49		mov __signed_stack_001PlaySound, __PlaySound_7qG2_aCode_7qG2_000
7	6520	51	#line 6520 "NXCDefs.h"
7	6521	51	#line 6521 "NXCDefs.h"
7	6522	51		set __D0PlaySound, 1
7	6521	54	#line 6521 "NXCDefs.h"
7	6522	54		cmp 4, __zfPlaySound, __signed_stack_001PlaySound, __D0PlaySound
7	6521	58	#line 6521 "NXCDefs.h"
7	6522	58		mov __D0PlaySound, __zfPlaySound
7	6522	61	#line 6522 "NXCDefs.h"
7	6523	61		brtst 4, __NXC_Label_68, __zfPlaySound
7	6522	64	#line 6522 "NXCDefs.h"
7	6523	64		set __signed_stack_001PlaySound, 600
7	6522	67	#line 6522 "NXCDefs.h"
7	6522	67	#line 6522 "NXCDefs.h"
7	6523	67		set __signed_stack_002PlaySound, 150
7	6522	70	#line 6522 "NXCDefs.h"
7	6522	70	#line 6522 "NXCDefs.h"
7	6523	70		set __signed_stack_003PlaySound, 4
7	6522	73	#line 6522 "NXCDefs.h"
7	6522	73	#line 6522 "NXCDefs.h"
7	6523	73		set __D0PlaySound, 0
7	6523	76	#line 6523 "NXCDefs.h"
7	6524	76		acquire __SPTArgsMutex
7	6523	77	#line 6523 "NXCDefs.h"
7	6524	77		mov __SPTArgs.Frequency, __signed_stack_001PlaySound
7	6523	80	#line 6523 "NXCDefs.h"
7	6524	80		mov __SPTArgs.Duration, __signed_stack_002PlaySound
7	6523	83	#line 6523 "NXCDefs.h"
7	6524	83		mov __SPTArgs.Volume, __signed_stack_003PlaySound
7	6523	86	#line 6523 "NXCDefs.h"
7	6524	86		mov __SPTArgs.Loop, __D0PlaySound
7	6523	89	#line 6523 "NXCDefs.h"
7	6524	89		syscall 10, __SPTArgs
7	6523	92	#line 6523 "NXCDefs.h"
7	6524	92		mov __D0PlaySound, __SPTArgs.Result
7	6523	95	#line 6523 "NXCDefs.h"
7	6524	95		release __SPTArgsMutex
7	6523	96	#line 6523 "NXCDefs.h"
7	6523	96	#line 6523 "NXCDefs.h"
7	6524	96		wait2 NA, __constVal200
7	6523	99	#line 6523 "NXCDefs.h"
7	6523	99	#line 6523 "NXCDefs.h"
7	6524	99	#line 6524 "NXCDefs.h"
7	6525	99		set __signed_stack_001PlaySound, 600
7	6524	102	#line 6524 "NXCDefs.h"
7	6524	102	#line 6524 "NXCDefs.h"
7	6525	102		set __signed_stack_002PlaySound, 150
7	6524	105	#line 6524 "NXCDefs.h"
7	6524	105	#line 6524 "NXCDefs.h"
7	6525	105		set __signed_stack_003PlaySound, 4
7	6524	108	#line 6524 "NXCDefs.h"
7	6524	108	#line 6524 "NXCDefs.h"
7	6525	108		set __D0PlaySound, 0
7	6525	111	#line 6525 "NXCDefs.h"
7	6526	111		acquire __SPTArgsMutex
7	6525	112	#line 6525 "NXCDefs.h"
7	6526	112		mov __SPTArgs.Frequency, __signed_stack_001PlaySound
7	6525	115	#line 6525 "NXCDefs.h"
7	6526	115		mov __SPTArgs.Duration, __signed_stack_002PlaySound
7	6525	118	#line 6525 "NXCDefs.h"
7	6526	118		mov __SPTArgs.Volume, __signed_stack_003PlaySound
7	6525	121	#line 6525 "NXCDefs.h"
7	6526	121		mov __SPTArgs.Loop, __D0PlaySound
7	6525	124	#line 6525 "NXCDefs.h"
7	6526	124		syscall 10, __SPTArgs
7	6525	127	#line 6525 "NXCDefs.h"
7	6526	127		mov __D0PlaySound, __SPTArgs.Result
7	6525	130	#line 6525 "NXCDefs.h"
7	6526	130		release __SPTArgsMutex
7	6525	131	#line 6525 "NXCDefs.h"
7	6525	131	#line 6525 "NXCDefs.h"
7	6526	131		wait2 NA, __constVal150
7	6525	134	#line 6525 "NXCDefs.h"
7	6525	134	#line 6525 "NXCDefs.h"
7	6527	134	#line 6527 "NXCDefs.h"
7	6528	134		jmp __NXC_Label_85
7	6527	136	#line 6527 "NXCDefs.h"
7	6528	136		mov __signed_stack_001PlaySound, __PlaySound_7qG2_aCode_7qG2_000
7	6527	138	#line 6527 "NXCDefs.h"
7	6528	138	#line 6528 "NXCDefs.h"
7	6529	138		set __D0PlaySound, 3
7	6528	141	#line 6528 "NXCDefs.h"
7	6529	141		cmp 4, __zfPlaySound, __signed_stack_001PlaySound, __D0PlaySound
7	6528	145	#line 6528 "NXCDefs.h"
7	6529	145		mov __D0PlaySound, __zfPlaySound
7	6528	148	#line 6528 "NXCDefs.h"
7	6529	148		brtst 4, __NXC_Label_88, __zfPlaySound
7	6528	151	#line 6528 "NXCDefs.h"
7	6529	151		set __PlaySound_7qG2_i_7qG2_001, 4
7	6528	154	#line 6528 "NXCDefs.h"
7	6528	154	#line 6528 "NXCDefs.h"
7	6529	154		mov __signed_stack_001PlaySound, __PlaySound_7qG2_i_7qG2_001
7	6528	156	#line 6528 "NXCDefs.h"
7	6528	156	#line 6528 "NXCDefs.h"
7	6529	156		set __D0PlaySound, 8
7	6528	159	#line 6528 "NXCDefs.h"
7	6529	159		cmp 0, __zfPlaySound, __signed_stack_001PlaySound, __D0PlaySound
7	6528	163	#line 6528 "NXCDefs.h"
7	6529	163		mov __D0PlaySound, __zfPlaySound
7	6528	166	#line 6528 "NXCDefs.h"
7	6529	166		brtst 4, __NXC_Label_90, __zfPlaySound
7	6528	169	#line 6528 "NXCDefs.h"
7	6529	169		jmp __NXC_Label_91
7	6529	171	#line 6529 "NXCDefs.h"
7	6530	171		add __PlaySound_7qG2_i_7qG2_001, __PlaySound_7qG2_i_7qG2_001, __constVal1
7	6530	175	#line 6530 "NXCDefs.h"
7	6531	175		jmp __NXC_Label_89
7	6530	177	#line 6530 "NXCDefs.h"
7	6530	177	#line 6530 "NXCDefs.h"
7	6530	177	#line 6530 "NXCDefs.h"
7	6530	177	#line 6530 "NXCDefs.h"
7	6531	177		mul __signed_stack_001PlaySound, __constVal523, __PlaySound_7qG2_i_7qG2_001
7	6530	181	#line 6530 "NXCDefs.h"
7	6530	181	#line 6530 "NXCDefs.h"
7	6530	181	#line 6530 "NXCDefs.h"
7	6531	181		div __signed_stack_001PlaySound, __signed_stack_001PlaySound, __constVal4
7	6530	185	#line 6530 "NXCDefs.h"
7	6530	185	#line 6530 "NXCDefs.h"
7	6531	185		set __signed_stack_002PlaySound, 100
7	6530	188	#line 6530 "NXCDefs.h"
7	6530	188	#line 6530 "NXCDefs.h"
7	6531	188		set __signed_stack_003PlaySound, 4
7	6530	191	#line 6530 "NXCDefs.h"
7	6530	191	#line 6530 "NXCDefs.h"
7	6531	191		set __D0PlaySound, 0
7	6531	194	#line 6531 "NXCDefs.h"
7	6532	194		acquire __SPTArgsMutex
7	6531	195	#line 6531 "NXCDefs.h"
7	6532	195		mov __SPTArgs.Frequency, __signed_stack_001PlaySound
7	6531	198	#line 6531 "NXCDefs.h"
7	6532	198		mov __SPTArgs.Duration, __signed_stack_002PlaySound
7	6531	201	#line 6531 "NXCDefs.h"
7	6532	201		mov __SPTArgs.Volume, __signed_stack_003PlaySound
7	6531	204	#line 6531 "NXCDefs.h"
7	6532	204		mov __SPTArgs.Loop, __D0PlaySound
7	6531	207	#line 6531 "NXCDefs.h"
7	6532	207		syscall 10, __SPTArgs
7	6531	210	#line 6531 "NXCDefs.h"
7	6532	210		mov __D0PlaySound, __SPTArgs.Result
7	6531	213	#line 6531 "NXCDefs.h"
7	6532	213		release __SPTArgsMutex
7	6531	214	#line 6531 "NXCDefs.h"
7	6531	214	#line 6531 "NXCDefs.h"
7	6532	214		wait2 NA, __constVal100
7	6531	217	#line 6531 "NXCDefs.h"
7	6531	217	#line 6531 "NXCDefs.h"
7	6533	217	#line 6533 "NXCDefs.h"
7	6534	217		jmp __NXC_Label_92
7	6533	219	#line 6533 "NXCDefs.h"
7	6533	219	#line 6533 "NXCDefs.h"
7	6534	219		jmp __NXC_Label_105
7	6533	221	#line 6533 "NXCDefs.h"
7	6534	221		mov __signed_stack_001PlaySound, __PlaySound_7qG2_aCode_7qG2_000
7	6533	223	#line 6533 "NXCDefs.h"
7	6534	223	#line 6534 "NXCDefs.h"
7	6535	223		set __D0PlaySound, 2
7	6534	226	#line 6534 "NXCDefs.h"
7	6535	226		cmp 4, __zfPlaySound, __signed_stack_001PlaySound, __D0PlaySound
7	6534	230	#line 6534 "NXCDefs.h"
7	6535	230		mov __D0PlaySound, __zfPlaySound
7	6534	233	#line 6534 "NXCDefs.h"
7	6535	233		brtst 4, __NXC_Label_108, __zfPlaySound
7	6534	236	#line 6534 "NXCDefs.h"
7	6535	236		set __PlaySound_7qG2_i_7qG2_001, 7
7	6534	239	#line 6534 "NXCDefs.h"
7	6534	239	#line 6534 "NXCDefs.h"
7	6535	239		mov __signed_stack_001PlaySound, __PlaySound_7qG2_i_7qG2_001
7	6534	241	#line 6534 "NXCDefs.h"
7	6534	241	#line 6534 "NXCDefs.h"
7	6535	241		set __D0PlaySound, 3
7	6534	244	#line 6534 "NXCDefs.h"
7	6535	244		cmp 1, __zfPlaySound, __signed_stack_001PlaySound, __D0PlaySound
7	6534	248	#line 6534 "NXCDefs.h"
7	6535	248		mov __D0PlaySound, __zfPlaySound
7	6534	251	#line 6534 "NXCDefs.h"
7	6535	251		brtst 4, __NXC_Label_110, __zfPlaySound
7	6534	254	#line 6534 "NXCDefs.h"
7	6535	254		jmp __NXC_Label_111
7	6535	256	#line 6535 "NXCDefs.h"
7	6536	256		sub __PlaySound_7qG2_i_7qG2_001, __PlaySound_7qG2_i_7qG2_001, __constVal1
7	6536	260	#line 6536 "NXCDefs.h"
7	6537	260		jmp __NXC_Label_109
7	6536	262	#line 6536 "NXCDefs.h"
7	6536	262	#line 6536 "NXCDefs.h"
7	6536	262	#line 6536 "NXCDefs.h"
7	6536	262	#line 6536 "NXCDefs.h"
7	6537	262		mul __signed_stack_001PlaySound, __constVal523, __PlaySound_7qG2_i_7qG2_001
7	6536	266	#line 6536 "NXCDefs.h"
7	6536	266	#line 6536 "NXCDefs.h"
7	6536	266	#line 6536 "NXCDefs.h"
7	6537	266		div __signed_stack_001PlaySound, __signed_stack_001PlaySound, __constVal4
7	6536	270	#line 6536 "NXCDefs.h"
7	6536	270	#line 6536 "NXCDefs.h"
7	6537	270		set __signed_stack_002PlaySound, 100
7	6536	273	#line 6536 "NXCDefs.h"
7	6536	273	#line 6536 "NXCDefs.h"
7	6537	273		set __signed_stack_003PlaySound, 4
7	6536	276	#line 6536 "NXCDefs.h"
7	6536	276	#line 6536 "NXCDefs.h"
7	6537	276		set __D0PlaySound, 0
7	6537	279	#line 6537 "NXCDefs.h"
7	6538	279		acquire __SPTArgsMutex
7	6537	280	#line 6537 "NXCDefs.h"
7	6538	280		mov __SPTArgs.Frequency, __signed_stack_001PlaySound
7	6537	283	#line 6537 "NXCDefs.h"
7	6538	283		mov __SPTArgs.Duration, __signed_stack_002PlaySound
7	6537	286	#line 6537 "NXCDefs.h"
7	6538	286		mov __SPTArgs.Volume, __signed_stack_003PlaySound
7	6537	289	#line 6537 "NXCDefs.h"
7	6538	289		mov __SPTArgs.Loop, __D0PlaySound
7	6537	292	#line 6537 "NXCDefs.h"
7	6538	292		syscall 10, __SPTArgs
7	6537	295	#line 6537 "NXCDefs.h"
7	6538	295		mov __D0PlaySound, __SPTArgs.Result
7	6537	298	#line 6537 "NXCDefs.h"
7	6538	298		release __SPTArgsMutex
7	6537	299	#line 6537 "NXCDefs.h"
7	6537	299	#line 6537 "NXCDefs.h"
7	6538	299		wait2 NA, __constVal100
7	6537	302	#line 6537 "NXCDefs.h"
7	6537	302	#line 6537 "NXCDefs.h"
7	6539	302	#line 6539 "NXCDefs.h"
7	6540	302		jmp __NXC_Label_112
7	6539	304	#line 6539 "NXCDefs.h"
7	6539	304	#line 6539 "NXCDefs.h"
7	6540	304		jmp __NXC_Label_125
7	6539	306	#line 6539 "NXCDefs.h"
7	6540	306		mov __signed_stack_001PlaySound, __PlaySound_7qG2_aCode_7qG2_000
7	6539	308	#line 6539 "NXCDefs.h"
7	6540	308	#line 6540 "NXCDefs.h"
7	6541	308		set __D0PlaySound, 4
7	6540	311	#line 6540 "NXCDefs.h"
7	6541	311		cmp 4, __zfPlaySound, __signed_stack_001PlaySound, __D0PlaySound
7	6540	315	#line 6540 "NXCDefs.h"
7	6541	315		mov __D0PlaySound, __zfPlaySound
7	6541	318	#line 6541 "NXCDefs.h"
7	6542	318		brtst 4, __NXC_Label_128, __zfPlaySound
7	6541	321	#line 6541 "NXCDefs.h"
7	6542	321		set __signed_stack_001PlaySound, 100
7	6541	324	#line 6541 "NXCDefs.h"
7	6541	324	#line 6541 "NXCDefs.h"
7	6542	324		set __signed_stack_002PlaySound, 500
7	6541	327	#line 6541 "NXCDefs.h"
7	6541	327	#line 6541 "NXCDefs.h"
7	6542	327		set __signed_stack_003PlaySound, 4
7	6541	330	#line 6541 "NXCDefs.h"
7	6541	330	#line 6541 "NXCDefs.h"
7	6542	330		set __D0PlaySound, 0
7	6542	333	#line 6542 "NXCDefs.h"
7	6543	333		acquire __SPTArgsMutex
7	6542	334	#line 6542 "NXCDefs.h"
7	6543	334		mov __SPTArgs.Frequency, __signed_stack_001PlaySound
7	6542	337	#line 6542 "NXCDefs.h"
7	6543	337		mov __SPTArgs.Duration, __signed_stack_002PlaySound
7	6542	340	#line 6542 "NXCDefs.h"
7	6543	340		mov __SPTArgs.Volume, __signed_stack_003PlaySound
7	6542	343	#line 6542 "NXCDefs.h"
7	6543	343		mov __SPTArgs.Loop, __D0PlaySound
7	6542	346	#line 6542 "NXCDefs.h"
7	6543	346		syscall 10, __SPTArgs
7	6542	349	#line 6542 "NXCDefs.h"
7	6543	349		mov __D0PlaySound, __SPTArgs.Result
7	6542	352	#line 6542 "NXCDefs.h"
7	6543	352		release __SPTArgsMutex
7	6542	353	#line 6542 "NXCDefs.h"
7	6542	353	#line 6542 "NXCDefs.h"
7	6543	353		wait2 NA, __constVal500
7	6542	356	#line 6542 "NXCDefs.h"
7	6542	356	#line 6542 "NXCDefs.h"
7	6544	356	#line 6544 "NXCDefs.h"
7	6545	356		jmp __NXC_Label_137
7	6544	358	#line 6544 "NXCDefs.h"
7	6545	358		mov __signed_stack_001PlaySound, __PlaySound_7qG2_aCode_7qG2_000
7	6544	360	#line 6544 "NXCDefs.h"
7	6545	360	#line 6545 "NXCDefs.h"
7	6546	360		set __D0PlaySound, 5
7	6545	363	#line 6545 "NXCDefs.h"
7	6546	363		cmp 4, __zfPlaySound, __signed_stack_001PlaySound, __D0PlaySound
7	6545	367	#line 6545 "NXCDefs.h"
7	6546	367		mov __D0PlaySound, __zfPlaySound
7	6545	370	#line 6545 "NXCDefs.h"
7	6546	370		brtst 4, __NXC_Label_140, __zfPlaySound
7	6545	373	#line 6545 "NXCDefs.h"
7	6546	373		set __PlaySound_7qG2_i_7qG2_001, 4
7	6545	376	#line 6545 "NXCDefs.h"
7	6545	376	#line 6545 "NXCDefs.h"
7	6546	376		mov __signed_stack_001PlaySound, __PlaySound_7qG2_i_7qG2_001
7	6545	378	#line 6545 "NXCDefs.h"
7	6545	378	#line 6545 "NXCDefs.h"
7	6546	378		set __D0PlaySound, 8
7	6545	381	#line 6545 "NXCDefs.h"
7	6546	381		cmp 0, __zfPlaySound, __signed_stack_001PlaySound, __D0PlaySound
7	6545	385	#line 6545 "NXCDefs.h"
7	6546	385		mov __D0PlaySound, __zfPlaySound
7	6545	388	#line 6545 "NXCDefs.h"
7	6546	388		brtst 4, __NXC_Label_142, __zfPlaySound
7	6545	391	#line 6545 "NXCDefs.h"
7	6546	391		jmp __NXC_Label_143
7	6546	393	#line 6546 "NXCDefs.h"
7	6547	393		add __PlaySound_7qG2_i_7qG2_001, __PlaySound_7qG2_i_7qG2_001, __constVal1
7	6547	397	#line 6547 "NXCDefs.h"
7	6548	397		jmp __NXC_Label_141
7	6547	399	#line 6547 "NXCDefs.h"
7	6547	399	#line 6547 "NXCDefs.h"
7	6547	399	#line 6547 "NXCDefs.h"
7	6547	399	#line 6547 "NXCDefs.h"
7	6548	399		mul __signed_stack_001PlaySound, __constVal523, __PlaySound_7qG2_i_7qG2_001
7	6547	403	#line 6547 "NXCDefs.h"
7	6547	403	#line 6547 "NXCDefs.h"
7	6547	403	#line 6547 "NXCDefs.h"
7	6548	403		div __signed_stack_001PlaySound, __signed_stack_001PlaySound, __constVal4
7	6547	407	#line 6547 "NXCDefs.h"
7	6547	407	#line 6547 "NXCDefs.h"
7	6548	407		set __signed_stack_002PlaySound, 50
7	6547	410	#line 6547 "NXCDefs.h"
7	6547	410	#line 6547 "NXCDefs.h"
7	6548	410		set __signed_stack_003PlaySound, 4
7	6547	413	#line 6547 "NXCDefs.h"
7	6547	413	#line 6547 "NXCDefs.h"
7	6548	413		set __D0PlaySound, 0
7	6548	416	#line 6548 "NXCDefs.h"
7	6549	416		acquire __SPTArgsMutex
7	6548	417	#line 6548 "NXCDefs.h"
7	6549	417		mov __SPTArgs.Frequency, __signed_stack_001PlaySound
7	6548	420	#line 6548 "NXCDefs.h"
7	6549	420		mov __SPTArgs.Duration, __signed_stack_002PlaySound
7	6548	423	#line 6548 "NXCDefs.h"
7	6549	423		mov __SPTArgs.Volume, __signed_stack_003PlaySound
7	6548	426	#line 6548 "NXCDefs.h"
7	6549	426		mov __SPTArgs.Loop, __D0PlaySound
7	6548	429	#line 6548 "NXCDefs.h"
7	6549	429		syscall 10, __SPTArgs
7	6548	432	#line 6548 "NXCDefs.h"
7	6549	432		mov __D0PlaySound, __SPTArgs.Result
7	6548	435	#line 6548 "NXCDefs.h"
7	6549	435		release __SPTArgsMutex
7	6548	436	#line 6548 "NXCDefs.h"
7	6548	436	#line 6548 "NXCDefs.h"
7	6549	436		wait2 NA, __constVal50
7	6548	439	#line 6548 "NXCDefs.h"
7	6548	439	#line 6548 "NXCDefs.h"
7	6560	439	#line 6560 "NXCDefs.h"
7	6561	439		jmp __NXC_Label_144
7	6560	441	#line 6560 "NXCDefs.h"
7	6560	441	#line 6560 "NXCDefs.h"
7	6560	441	#line 6560 "NXCDefs.h"
7	6560	441	#line 6560 "NXCDefs.h"
7	6560	441	#line 6560 "NXCDefs.h"
7	6560	441	#line 6560 "NXCDefs.h"
7	6560	441	#line 6560 "NXCDefs.h"
7	6560	441	#line 6560 "NXCDefs.h"
7	6561	441		subret __PlaySound_return
8	28	0	#line 28 "C:\Users\Kawtar\Documents\GitHub\OS_Project\new - Copy\.\Header.nxc"
8	29	0		set __Wait_7qG2_ms_7qG2_000_inline_stopRotor, 100
8	28	3	#line 28 "C:\Users\Kawtar\Documents\GitHub\OS_Project\new - Copy\.\Header.nxc"
8	7921	3	#line 7921 "NXCDefs.h"
8	7922	3		wait2 NA, __Wait_7qG2_ms_7qG2_000_inline_stopRotor
8	7921	6	#line 7921 "NXCDefs.h"
8	29	6	#line 29 "C:\Users\Kawtar\Documents\GitHub\OS_Project\new - Copy\.\Header.nxc"
8	30	6	#line 30 "C:\Users\Kawtar\Documents\GitHub\OS_Project\new - Copy\.\Header.nxc"
8	31	6	#pragma macro 7
8	31	6		setout GMotor, 2, __constVal0, 1, __constVal3, 8, __constVal0, 6, __constVal32, 7, __constVal0, 5, __constVal0, 10, __constVal96, 11, __constVal32, 12, __constVal32, 0, __constVal63
8	5567	29	#line 5567 "C:\Users\Kawtar\Documents\GitHub\OS_Project\new - Copy\.\Header.nxc"
8	30	29	#line 30 "C:\Users\Kawtar\Documents\GitHub\OS_Project\new - Copy\.\Header.nxc"
8	31	29	#line 31 "C:\Users\Kawtar\Documents\GitHub\OS_Project\new - Copy\.\Header.nxc"
8	32	29		subret __stopRotor_return
9	33	0	#line 33 "C:\Users\Kawtar\Documents\GitHub\OS_Project\new - Copy\.\Header.nxc"
9	34	0		set __signed_stack_001close, 70
9	33	3	#line 33 "C:\Users\Kawtar\Documents\GitHub\OS_Project\new - Copy\.\Header.nxc"
9	33	3	#line 33 "C:\Users\Kawtar\Documents\GitHub\OS_Project\new - Copy\.\Header.nxc"
9	34	3		set __signed_stack_002close, 180
9	33	6	#line 33 "C:\Users\Kawtar\Documents\GitHub\OS_Project\new - Copy\.\Header.nxc"
9	33	6	#line 33 "C:\Users\Kawtar\Documents\GitHub\OS_Project\new - Copy\.\Header.nxc"
9	34	6		set __signed_stack_003close, 0
9	33	9	#line 33 "C:\Users\Kawtar\Documents\GitHub\OS_Project\new - Copy\.\Header.nxc"
9	33	9	#line 33 "C:\Users\Kawtar\Documents\GitHub\OS_Project\new - Copy\.\Header.nxc"
9	34	9		set __signed_stack_004close, 0
9	33	12	#line 33 "C:\Users\Kawtar\Documents\GitHub\OS_Project\new - Copy\.\Header.nxc"
9	33	12	#line 33 "C:\Users\Kawtar\Documents\GitHub\OS_Project\new - Copy\.\Header.nxc"
9	34	12		set __D0close, 1
9	34	15	#line 34 "C:\Users\Kawtar\Documents\GitHub\OS_Project\new - Copy\.\Header.nxc"
9	35	15	#pragma macro 22
9	35	15		acquire __rotateMutex0
9	35	16		acquire __rotateMutex1
9	35	17		acquire __rotateMutex2
9	35	18		arrbuild __rotate_ports6, GMotor
9	35	22		mov __rotate_power6, __signed_stack_001close
9	35	24		mov __rotate_angle6, __signed_stack_002close
9	35	26		mov __rotate_turnpct6, __signed_stack_003close
9	35	28		mov __rotate_sync6, __signed_stack_004close
9	35	30		mov __rotate_stop6, __D0close
9	35	32		mov __rotate_theRVP6, __constVal32
9	35	34		mov __rotate_theRVI6, __constVal0
9	35	36		mov __rotate_theRVD6, __constVal96
9	35	38		subcall __RotateMotorVar, ____RotateMotorVar_return
9	35	41		release __rotateMutex2
9	35	42		release __rotateMutex1
9	35	43		release __rotateMutex0
9	5603	44	#line 5603 "C:\Users\Kawtar\Documents\GitHub\OS_Project\new - Copy\.\Header.nxc"
9	34	44	#line 34 "C:\Users\Kawtar\Documents\GitHub\OS_Project\new - Copy\.\Header.nxc"
9	36	44	#line 36 "C:\Users\Kawtar\Documents\GitHub\OS_Project\new - Copy\.\Header.nxc"
9	37	44		subcall stopRotor, __stopRotor_return
9	36	46	#line 36 "C:\Users\Kawtar\Documents\GitHub\OS_Project\new - Copy\.\Header.nxc"
9	38	46	#line 38 "C:\Users\Kawtar\Documents\GitHub\OS_Project\new - Copy\.\Header.nxc"
9	39	46		subret __close_return
10	40	0	#line 40 "C:\Users\Kawtar\Documents\GitHub\OS_Project\new - Copy\.\Header.nxc"
10	41	0		set __signed_stack_001open, 100
10	40	3	#line 40 "C:\Users\Kawtar\Documents\GitHub\OS_Project\new - Copy\.\Header.nxc"
10	40	3	#line 40 "C:\Users\Kawtar\Documents\GitHub\OS_Project\new - Copy\.\Header.nxc"
10	40	3	#line 40 "C:\Users\Kawtar\Documents\GitHub\OS_Project\new - Copy\.\Header.nxc"
10	40	3	#line 40 "C:\Users\Kawtar\Documents\GitHub\OS_Project\new - Copy\.\Header.nxc"
10	40	3	#line 40 "C:\Users\Kawtar\Documents\GitHub\OS_Project\new - Copy\.\Header.nxc"
10	41	3		sub __D0open, __constVal0, __open_7qG2_angle_7qG2_000
10	41	7	#line 41 "C:\Users\Kawtar\Documents\GitHub\OS_Project\new - Copy\.\Header.nxc"
10	42	7	#pragma macro 22
10	42	7		acquire __rotateMutex0
10	42	8		acquire __rotateMutex1
10	42	9		acquire __rotateMutex2
10	42	10		arrbuild __rotate_ports6, GMotor
10	42	14		mov __rotate_power6, __signed_stack_001open
10	42	16		mov __rotate_angle6, __D0open
10	42	18		mov __rotate_turnpct6, __constVal0
10	42	20		mov __rotate_sync6, __constVal0
10	42	22		mov __rotate_stop6, __constVal1
10	42	24		mov __rotate_theRVP6, __constVal32
10	42	26		mov __rotate_theRVI6, __constVal0
10	42	28		mov __rotate_theRVD6, __constVal96
10	42	30		subcall __RotateMotorVar, ____RotateMotorVar_return
10	42	33		release __rotateMutex2
10	42	34		release __rotateMutex1
10	42	35		release __rotateMutex0
10	5634	36	#line 5634 "C:\Users\Kawtar\Documents\GitHub\OS_Project\new - Copy\.\Header.nxc"
10	41	36	#line 41 "C:\Users\Kawtar\Documents\GitHub\OS_Project\new - Copy\.\Header.nxc"
10	43	36	#line 43 "C:\Users\Kawtar\Documents\GitHub\OS_Project\new - Copy\.\Header.nxc"
10	44	36		subcall stopRotor, __stopRotor_return
10	43	38	#line 43 "C:\Users\Kawtar\Documents\GitHub\OS_Project\new - Copy\.\Header.nxc"
10	46	38	#line 46 "C:\Users\Kawtar\Documents\GitHub\OS_Project\new - Copy\.\Header.nxc"
10	47	38		subret __open_return
11	16	0	#line 16 "C:\Users\Kawtar\Documents\GitHub\OS_Project\new - Copy\Main.nxc"
11	17	0		set __SetSensorLowspeed_7qG2_port_7qG2_000_inline_init, 2
11	16	3	#line 16 "C:\Users\Kawtar\Documents\GitHub\OS_Project\new - Copy\Main.nxc"
11	17	3	#line 17 "C:\Users\Kawtar\Documents\GitHub\OS_Project\new - Copy\Main.nxc"
11	18	3		mov __SetSensorLowspeed_7qG2_bIsPowered_7qG2_000_inline_init, __constVal1
11	3758	5	#line 3758 "NXCDefs.h"
11	3759	5		mov __SetSensorType_7qG2_port_7qG2_000_inline_SetSensorLowspeed_inline_init, __SetSensorLowspeed_7qG2_port_7qG2_000_inline_init
11	3758	7	#line 3758 "NXCDefs.h"
11	3758	7	#line 3758 "NXCDefs.h"
11	3759	7		mov __DU0SetSensorLowspeed_inline_init, __SetSensorLowspeed_7qG2_bIsPowered_7qG2_000_inline_init
11	3758	10	#line 3758 "NXCDefs.h"
11	3759	10		tst 5, __zfSetSensorLowspeed_inline_init, __DU0SetSensorLowspeed_inline_init
11	3758	13	#line 3758 "NXCDefs.h"
11	3759	13		brtst 4, __004__NXC_Label_36, __zfSetSensorLowspeed_inline_init
11	3758	16	#line 3758 "NXCDefs.h"
11	3759	16		set __D0SetSensorLowspeed_inline_init, 11
11	3758	19	#line 3758 "NXCDefs.h"
11	3759	19		jmp __004__NXC_Label_37
11	3758	21	#line 3758 "NXCDefs.h"
11	3759	21		set __D0SetSensorLowspeed_inline_init, 10
11	3758	24	#line 3758 "NXCDefs.h"
11	3759	24		mov __SetSensorType_7qG2_type_7qG2_000_inline_SetSensorLowspeed_inline_init, __D0SetSensorLowspeed_inline_init
11	3663	26	#line 3663 "NXCDefs.h"
11	3664	26		setin __SetSensorType_7qG2_type_7qG2_000_inline_SetSensorLowspeed_inline_init, __SetSensorType_7qG2_port_7qG2_000_inline_SetSensorLowspeed_inline_init, 0
11	3663	30	#line 3663 "NXCDefs.h"
11	3759	30	#line 3759 "NXCDefs.h"
11	3759	30	#line 3759 "NXCDefs.h"
11	3760	30		mov __SetSensorMode_7qG2_port_7qG2_000_inline_SetSensorLowspeed_inline_init, __SetSensorLowspeed_7qG2_port_7qG2_000_inline_init
11	3759	32	#line 3759 "NXCDefs.h"
11	3759	32	#line 3759 "NXCDefs.h"
11	3760	32		set __SetSensorMode_7qG2_mode_7qG2_000_inline_SetSensorLowspeed_inline_init, 0
11	3759	35	#line 3759 "NXCDefs.h"
11	3676	35	#line 3676 "NXCDefs.h"
11	3677	35		setin __SetSensorMode_7qG2_mode_7qG2_000_inline_SetSensorLowspeed_inline_init, __SetSensorMode_7qG2_port_7qG2_000_inline_SetSensorLowspeed_inline_init, 1
11	3676	39	#line 3676 "NXCDefs.h"
11	3760	39	#line 3760 "NXCDefs.h"
11	3760	39	#line 3760 "NXCDefs.h"
11	3761	39		mov __ResetSensor_7qG2_port_7qG2_000_inline_SetSensorLowspeed_inline_init, __SetSensorLowspeed_7qG2_port_7qG2_000_inline_init
11	3760	41	#line 3760 "NXCDefs.h"
11	3694	41	#line 3694 "NXCDefs.h"
11	3695	41	#pragma macro 4
11	3695	41		mov __ResetSensorPort, __SetSensorLowspeed_7qG2_port_7qG2_000_inline_init
11	3695	43		subcall __ResetSensorSubroutine, ____ResetSensorSubroutine_return
11	5795	46	#line 5795 "NXCDefs.h"
11	3694	46	#line 3694 "NXCDefs.h"
11	3761	46	#line 3761 "NXCDefs.h"
11	17	46	#line 17 "C:\Users\Kawtar\Documents\GitHub\OS_Project\new - Copy\Main.nxc"
11	17	46	#line 17 "C:\Users\Kawtar\Documents\GitHub\OS_Project\new - Copy\Main.nxc"
11	18	46		set __SetSensorLowspeed_7qG2_port_7qG2_000_inline_init, 1
11	17	49	#line 17 "C:\Users\Kawtar\Documents\GitHub\OS_Project\new - Copy\Main.nxc"
11	18	49	#line 18 "C:\Users\Kawtar\Documents\GitHub\OS_Project\new - Copy\Main.nxc"
11	19	49		mov __SetSensorLowspeed_7qG2_bIsPowered_7qG2_000_inline_init, __constVal1
11	3758	51	#line 3758 "NXCDefs.h"
11	3759	51		mov __SetSensorType_7qG2_port_7qG2_000_inline_SetSensorLowspeed_inline_init, __SetSensorLowspeed_7qG2_port_7qG2_000_inline_init
11	3758	53	#line 3758 "NXCDefs.h"
11	3758	53	#line 3758 "NXCDefs.h"
11	3759	53		mov __DU0SetSensorLowspeed_inline_init, __SetSensorLowspeed_7qG2_bIsPowered_7qG2_000_inline_init
11	3758	56	#line 3758 "NXCDefs.h"
11	3759	56		tst 5, __zfSetSensorLowspeed_inline_init, __DU0SetSensorLowspeed_inline_init
11	3758	59	#line 3758 "NXCDefs.h"
11	3759	59		brtst 4, __005__NXC_Label_36, __zfSetSensorLowspeed_inline_init
11	3758	62	#line 3758 "NXCDefs.h"
11	3759	62		set __D0SetSensorLowspeed_inline_init, 11
11	3758	65	#line 3758 "NXCDefs.h"
11	3759	65		jmp __005__NXC_Label_37
11	3758	67	#line 3758 "NXCDefs.h"
11	3759	67		set __D0SetSensorLowspeed_inline_init, 10
11	3758	70	#line 3758 "NXCDefs.h"
11	3759	70		mov __SetSensorType_7qG2_type_7qG2_000_inline_SetSensorLowspeed_inline_init, __D0SetSensorLowspeed_inline_init
11	3663	72	#line 3663 "NXCDefs.h"
11	3664	72		setin __SetSensorType_7qG2_type_7qG2_000_inline_SetSensorLowspeed_inline_init, __SetSensorType_7qG2_port_7qG2_000_inline_SetSensorLowspeed_inline_init, 0
11	3663	76	#line 3663 "NXCDefs.h"
11	3759	76	#line 3759 "NXCDefs.h"
11	3759	76	#line 3759 "NXCDefs.h"
11	3760	76		mov __SetSensorMode_7qG2_port_7qG2_000_inline_SetSensorLowspeed_inline_init, __SetSensorLowspeed_7qG2_port_7qG2_000_inline_init
11	3759	78	#line 3759 "NXCDefs.h"
11	3759	78	#line 3759 "NXCDefs.h"
11	3760	78		set __SetSensorMode_7qG2_mode_7qG2_000_inline_SetSensorLowspeed_inline_init, 0
11	3759	81	#line 3759 "NXCDefs.h"
11	3676	81	#line 3676 "NXCDefs.h"
11	3677	81		setin __SetSensorMode_7qG2_mode_7qG2_000_inline_SetSensorLowspeed_inline_init, __SetSensorMode_7qG2_port_7qG2_000_inline_SetSensorLowspeed_inline_init, 1
11	3676	85	#line 3676 "NXCDefs.h"
11	3760	85	#line 3760 "NXCDefs.h"
11	3760	85	#line 3760 "NXCDefs.h"
11	3761	85		mov __ResetSensor_7qG2_port_7qG2_000_inline_SetSensorLowspeed_inline_init, __SetSensorLowspeed_7qG2_port_7qG2_000_inline_init
11	3760	87	#line 3760 "NXCDefs.h"
11	3694	87	#line 3694 "NXCDefs.h"
11	3695	87	#pragma macro 4
11	3695	87		mov __ResetSensorPort, __SetSensorLowspeed_7qG2_port_7qG2_000_inline_init
11	3695	89		subcall __ResetSensorSubroutine, ____ResetSensorSubroutine_return
11	5862	92	#line 5862 "NXCDefs.h"
11	3694	92	#line 3694 "NXCDefs.h"
11	3761	92	#line 3761 "NXCDefs.h"
11	18	92	#line 18 "C:\Users\Kawtar\Documents\GitHub\OS_Project\new - Copy\Main.nxc"
11	18	92	#line 18 "C:\Users\Kawtar\Documents\GitHub\OS_Project\new - Copy\Main.nxc"
11	19	92		set __SetSensorLowspeed_7qG2_port_7qG2_000_inline_init, 0
11	18	95	#line 18 "C:\Users\Kawtar\Documents\GitHub\OS_Project\new - Copy\Main.nxc"
11	19	95	#line 19 "C:\Users\Kawtar\Documents\GitHub\OS_Project\new - Copy\Main.nxc"
11	20	95		mov __SetSensorLowspeed_7qG2_bIsPowered_7qG2_000_inline_init, __constVal1
11	3758	97	#line 3758 "NXCDefs.h"
11	3759	97		mov __SetSensorType_7qG2_port_7qG2_000_inline_SetSensorLowspeed_inline_init, __SetSensorLowspeed_7qG2_port_7qG2_000_inline_init
11	3758	99	#line 3758 "NXCDefs.h"
11	3758	99	#line 3758 "NXCDefs.h"
11	3759	99		mov __DU0SetSensorLowspeed_inline_init, __SetSensorLowspeed_7qG2_bIsPowered_7qG2_000_inline_init
11	3758	102	#line 3758 "NXCDefs.h"
11	3759	102		tst 5, __zfSetSensorLowspeed_inline_init, __DU0SetSensorLowspeed_inline_init
11	3758	105	#line 3758 "NXCDefs.h"
11	3759	105		brtst 4, __006__NXC_Label_36, __zfSetSensorLowspeed_inline_init
11	3758	108	#line 3758 "NXCDefs.h"
11	3759	108		set __D0SetSensorLowspeed_inline_init, 11
11	3758	111	#line 3758 "NXCDefs.h"
11	3759	111		jmp __006__NXC_Label_37
11	3758	113	#line 3758 "NXCDefs.h"
11	3759	113		set __D0SetSensorLowspeed_inline_init, 10
11	3758	116	#line 3758 "NXCDefs.h"
11	3759	116		mov __SetSensorType_7qG2_type_7qG2_000_inline_SetSensorLowspeed_inline_init, __D0SetSensorLowspeed_inline_init
11	3663	118	#line 3663 "NXCDefs.h"
11	3664	118		setin __SetSensorType_7qG2_type_7qG2_000_inline_SetSensorLowspeed_inline_init, __SetSensorType_7qG2_port_7qG2_000_inline_SetSensorLowspeed_inline_init, 0
11	3663	122	#line 3663 "NXCDefs.h"
11	3759	122	#line 3759 "NXCDefs.h"
11	3759	122	#line 3759 "NXCDefs.h"
11	3760	122		mov __SetSensorMode_7qG2_port_7qG2_000_inline_SetSensorLowspeed_inline_init, __SetSensorLowspeed_7qG2_port_7qG2_000_inline_init
11	3759	124	#line 3759 "NXCDefs.h"
11	3759	124	#line 3759 "NXCDefs.h"
11	3760	124		set __SetSensorMode_7qG2_mode_7qG2_000_inline_SetSensorLowspeed_inline_init, 0
11	3759	127	#line 3759 "NXCDefs.h"
11	3676	127	#line 3676 "NXCDefs.h"
11	3677	127		setin __SetSensorMode_7qG2_mode_7qG2_000_inline_SetSensorLowspeed_inline_init, __SetSensorMode_7qG2_port_7qG2_000_inline_SetSensorLowspeed_inline_init, 1
11	3676	131	#line 3676 "NXCDefs.h"
11	3760	131	#line 3760 "NXCDefs.h"
11	3760	131	#line 3760 "NXCDefs.h"
11	3761	131		mov __ResetSensor_7qG2_port_7qG2_000_inline_SetSensorLowspeed_inline_init, __SetSensorLowspeed_7qG2_port_7qG2_000_inline_init
11	3760	133	#line 3760 "NXCDefs.h"
11	3694	133	#line 3694 "NXCDefs.h"
11	3695	133	#pragma macro 4
11	3695	133		mov __ResetSensorPort, __SetSensorLowspeed_7qG2_port_7qG2_000_inline_init
11	3695	135		subcall __ResetSensorSubroutine, ____ResetSensorSubroutine_return
11	5929	138	#line 5929 "NXCDefs.h"
11	3694	138	#line 3694 "NXCDefs.h"
11	3761	138	#line 3761 "NXCDefs.h"
11	19	138	#line 19 "C:\Users\Kawtar\Documents\GitHub\OS_Project\new - Copy\Main.nxc"
11	19	138	#line 19 "C:\Users\Kawtar\Documents\GitHub\OS_Project\new - Copy\Main.nxc"
11	20	138		set __SetSensorTouch_7qG2_port_7qG2_000_inline_init, 3
11	19	141	#line 19 "C:\Users\Kawtar\Documents\GitHub\OS_Project\new - Copy\Main.nxc"
11	3718	141	#line 3718 "NXCDefs.h"
11	3719	141	#pragma macro 6
11	3719	141		setin __constVal1, __SetSensorTouch_7qG2_port_7qG2_000_inline_init, 0
11	3719	145		setin __constVal32, __SetSensorTouch_7qG2_port_7qG2_000_inline_init, 1
11	3719	149		mov __ResetSensorPort, __SetSensorTouch_7qG2_port_7qG2_000_inline_init
11	3719	151		subcall __ResetSensorSubroutine, ____ResetSensorSubroutine_return
11	5944	154	#line 5944 "NXCDefs.h"
11	3718	154	#line 3718 "NXCDefs.h"
11	21	154	#line 21 "C:\Users\Kawtar\Documents\GitHub\OS_Project\new - Copy\Main.nxc"
11	21	154	#line 21 "C:\Users\Kawtar\Documents\GitHub\OS_Project\new - Copy\Main.nxc"
11	22	154	#pragma macro 30
11	22	154		acquire __RLSBmutex1
11	22	155		mov __RLSReadBuf1, __RLSBbufLSWrite1
11	22	157		set __RLSBytesCount1, 2
11	22	160		subcall __ReadLSBytes1, ____ReadLSBytes1_return
11	22	163		index __D0init, __RLSReadBuf1, 65535
11	22	167		index __RLSBytesCount1, __RLSReadBuf1, __constVal1
11	22	171		add __D0init, __D0init, __D0init
11	22	175		add __D0init, __D0init, __RLSBytesCount1
11	22	179		release __RLSBmutex1
11	5948	180	#line 5948 "C:\Users\Kawtar\Documents\GitHub\OS_Project\new - Copy\Main.nxc"
11	21	180	#line 21 "C:\Users\Kawtar\Documents\GitHub\OS_Project\new - Copy\Main.nxc"
11	22	180		mov ownGoal, __D0init
11	21	182	#line 21 "C:\Users\Kawtar\Documents\GitHub\OS_Project\new - Copy\Main.nxc"
11	21	182	#line 21 "C:\Users\Kawtar\Documents\GitHub\OS_Project\new - Copy\Main.nxc"
11	22	182	#line 22 "C:\Users\Kawtar\Documents\GitHub\OS_Project\new - Copy\Main.nxc"
11	23	182		set __Wait_7qG2_ms_7qG2_000_inline_init, 100
11	22	185	#line 22 "C:\Users\Kawtar\Documents\GitHub\OS_Project\new - Copy\Main.nxc"
11	7921	185	#line 7921 "NXCDefs.h"
11	7922	185		wait2 NA, __Wait_7qG2_ms_7qG2_000_inline_init
11	7921	188	#line 7921 "NXCDefs.h"
11	23	188	#line 23 "C:\Users\Kawtar\Documents\GitHub\OS_Project\new - Copy\Main.nxc"
11	24	188	#line 24 "C:\Users\Kawtar\Documents\GitHub\OS_Project\new - Copy\Main.nxc"
11	25	188		subcall goToPredefined, __goToPredefined_return
11	24	190	#line 24 "C:\Users\Kawtar\Documents\GitHub\OS_Project\new - Copy\Main.nxc"
11	25	190	#line 25 "C:\Users\Kawtar\Documents\GitHub\OS_Project\new - Copy\Main.nxc"
11	25	190	#line 25 "C:\Users\Kawtar\Documents\GitHub\OS_Project\new - Copy\Main.nxc"
11	26	190		exit 0, 2
12	28	0	#line 28 "C:\Users\Kawtar\Documents\GitHub\OS_Project\new - Copy\Main.nxc"
12	28	0	#line 28 "C:\Users\Kawtar\Documents\GitHub\OS_Project\new - Copy\Main.nxc"
12	28	0	#line 28 "C:\Users\Kawtar\Documents\GitHub\OS_Project\new - Copy\Main.nxc"
12	28	0	#line 28 "C:\Users\Kawtar\Documents\GitHub\OS_Project\new - Copy\Main.nxc"
12	29	0		sub __D0getDegreeDiff, __getDegreeDiff_7qG2_current_7qG2_000, __getDegreeDiff_7qG2_old_7qG2_000
12	29	4	#line 29 "C:\Users\Kawtar\Documents\GitHub\OS_Project\new - Copy\Main.nxc"
12	30	4		abs __getDegreeDiff_7qG2_diff_7qG2_000, __D0getDegreeDiff
12	29	7	#line 29 "C:\Users\Kawtar\Documents\GitHub\OS_Project\new - Copy\Main.nxc"
12	29	7	#line 29 "C:\Users\Kawtar\Documents\GitHub\OS_Project\new - Copy\Main.nxc"
12	30	7		mov __signed_stack_001getDegreeDiff, __getDegreeDiff_7qG2_diff_7qG2_000
12	29	9	#line 29 "C:\Users\Kawtar\Documents\GitHub\OS_Project\new - Copy\Main.nxc"
12	30	9	#line 30 "C:\Users\Kawtar\Documents\GitHub\OS_Project\new - Copy\Main.nxc"
12	31	9		set __D0getDegreeDiff, 180
12	30	12	#line 30 "C:\Users\Kawtar\Documents\GitHub\OS_Project\new - Copy\Main.nxc"
12	31	12		cmp 1, __zfgetDegreeDiff, __signed_stack_001getDegreeDiff, __D0getDegreeDiff
12	30	16	#line 30 "C:\Users\Kawtar\Documents\GitHub\OS_Project\new - Copy\Main.nxc"
12	31	16		mov __D0getDegreeDiff, __zfgetDegreeDiff
12	30	19	#line 30 "C:\Users\Kawtar\Documents\GitHub\OS_Project\new - Copy\Main.nxc"
12	31	19		brtst 4, __NXC_Label_523, __zfgetDegreeDiff
12	30	22	#line 30 "C:\Users\Kawtar\Documents\GitHub\OS_Project\new - Copy\Main.nxc"
12	30	22	#line 30 "C:\Users\Kawtar\Documents\GitHub\OS_Project\new - Copy\Main.nxc"
12	31	22	#line 31 "C:\Users\Kawtar\Documents\GitHub\OS_Project\new - Copy\Main.nxc"
12	31	22	#line 31 "C:\Users\Kawtar\Documents\GitHub\OS_Project\new - Copy\Main.nxc"
12	32	22		sub __getDegreeDiff_7qG2_diff_7qG2_000, __constVal360, __getDegreeDiff_7qG2_diff_7qG2_000
12	31	26	#line 31 "C:\Users\Kawtar\Documents\GitHub\OS_Project\new - Copy\Main.nxc"
12	31	26	#line 31 "C:\Users\Kawtar\Documents\GitHub\OS_Project\new - Copy\Main.nxc"
12	31	26	#line 31 "C:\Users\Kawtar\Documents\GitHub\OS_Project\new - Copy\Main.nxc"
12	32	26	#line 32 "C:\Users\Kawtar\Documents\GitHub\OS_Project\new - Copy\Main.nxc"
12	33	26		mov __D0getDegreeDiff, __getDegreeDiff_7qG2_diff_7qG2_000
12	32	28	#line 32 "C:\Users\Kawtar\Documents\GitHub\OS_Project\new - Copy\Main.nxc"
12	33	28		subret __getDegreeDiff_return
12	32	30	#line 32 "C:\Users\Kawtar\Documents\GitHub\OS_Project\new - Copy\Main.nxc"
12	34	30	#line 34 "C:\Users\Kawtar\Documents\GitHub\OS_Project\new - Copy\Main.nxc"
12	35	30		subret __getDegreeDiff_return
13	36	0	#line 36 "C:\Users\Kawtar\Documents\GitHub\OS_Project\new - Copy\Main.nxc"
13	37	0		mov __signed_stack_001backtoOrigin, relBearing
13	36	2	#line 36 "C:\Users\Kawtar\Documents\GitHub\OS_Project\new - Copy\Main.nxc"
13	37	2	#line 37 "C:\Users\Kawtar\Documents\GitHub\OS_Project\new - Copy\Main.nxc"
13	38	2		set __D0backtoOrigin, 5
13	37	5	#line 37 "C:\Users\Kawtar\Documents\GitHub\OS_Project\new - Copy\Main.nxc"
13	38	5		cmp 1, __zfbacktoOrigin, __signed_stack_001backtoOrigin, __D0backtoOrigin
13	37	9	#line 37 "C:\Users\Kawtar\Documents\GitHub\OS_Project\new - Copy\Main.nxc"
13	38	9		mov __D0backtoOrigin, __zfbacktoOrigin
13	38	12	#line 38 "C:\Users\Kawtar\Documents\GitHub\OS_Project\new - Copy\Main.nxc"
13	39	12		brtst 4, __NXC_Label_529, __zfbacktoOrigin
13	38	15	#line 38 "C:\Users\Kawtar\Documents\GitHub\OS_Project\new - Copy\Main.nxc"
13	39	15		set __reverseDirection_7qG2_moveTime_7qG2_000, 100
13	38	18	#line 38 "C:\Users\Kawtar\Documents\GitHub\OS_Project\new - Copy\Main.nxc"
13	39	18	#line 39 "C:\Users\Kawtar\Documents\GitHub\OS_Project\new - Copy\Main.nxc"
13	40	18		subcall reverseDirection, __reverseDirection_return
13	39	20	#line 39 "C:\Users\Kawtar\Documents\GitHub\OS_Project\new - Copy\Main.nxc"
13	39	20	#line 39 "C:\Users\Kawtar\Documents\GitHub\OS_Project\new - Copy\Main.nxc"
13	40	20	#pragma macro 30
13	40	20		acquire __RLSBmutex1
13	40	21		mov __RLSReadBuf1, __RLSBbufLSWrite1
13	40	23		set __RLSBytesCount1, 2
13	40	26		subcall __ReadLSBytes1, ____ReadLSBytes1_return
13	40	29		index __D0backtoOrigin, __RLSReadBuf1, 65535
13	40	33		index __RLSBytesCount1, __RLSReadBuf1, __constVal1
13	40	37		add __D0backtoOrigin, __D0backtoOrigin, __D0backtoOrigin
13	40	41		add __D0backtoOrigin, __D0backtoOrigin, __RLSBytesCount1
13	40	45		release __RLSBmutex1
13	6064	46	#line 6064 "C:\Users\Kawtar\Documents\GitHub\OS_Project\new - Copy\Main.nxc"
13	39	46	#line 39 "C:\Users\Kawtar\Documents\GitHub\OS_Project\new - Copy\Main.nxc"
13	40	46		mov currentCompass, __D0backtoOrigin
13	39	48	#line 39 "C:\Users\Kawtar\Documents\GitHub\OS_Project\new - Copy\Main.nxc"
13	39	48	#line 39 "C:\Users\Kawtar\Documents\GitHub\OS_Project\new - Copy\Main.nxc"
13	41	48	#line 41 "C:\Users\Kawtar\Documents\GitHub\OS_Project\new - Copy\Main.nxc"
13	41	48	#line 41 "C:\Users\Kawtar\Documents\GitHub\OS_Project\new - Copy\Main.nxc"
13	41	48	#line 41 "C:\Users\Kawtar\Documents\GitHub\OS_Project\new - Copy\Main.nxc"
13	41	48	#line 41 "C:\Users\Kawtar\Documents\GitHub\OS_Project\new - Copy\Main.nxc"
13	42	48		sub __D0backtoOrigin, __D0backtoOrigin, ownGoal
13	42	52	#line 42 "C:\Users\Kawtar\Documents\GitHub\OS_Project\new - Copy\Main.nxc"
13	43	52		abs relBearing, __D0backtoOrigin
13	42	55	#line 42 "C:\Users\Kawtar\Documents\GitHub\OS_Project\new - Copy\Main.nxc"
13	42	55	#line 42 "C:\Users\Kawtar\Documents\GitHub\OS_Project\new - Copy\Main.nxc"
13	43	55	#line 43 "C:\Users\Kawtar\Documents\GitHub\OS_Project\new - Copy\Main.nxc"
13	44	55		jmp __NXC_Label_528
13	43	57	#line 43 "C:\Users\Kawtar\Documents\GitHub\OS_Project\new - Copy\Main.nxc"
13	44	57	#line 44 "C:\Users\Kawtar\Documents\GitHub\OS_Project\new - Copy\Main.nxc"
13	45	57	#pragma macro 7
13	45	57		setout motors, 2, __constVal0, 1, __constVal3, 8, __constVal0, 6, __constVal32, 7, __constVal0, 5, __constVal0, 10, __constVal96, 11, __constVal32, 12, __constVal32, 0, __constVal63
13	6093	80	#line 6093 "C:\Users\Kawtar\Documents\GitHub\OS_Project\new - Copy\Main.nxc"
13	44	80	#line 44 "C:\Users\Kawtar\Documents\GitHub\OS_Project\new - Copy\Main.nxc"
13	45	80	#line 45 "C:\Users\Kawtar\Documents\GitHub\OS_Project\new - Copy\Main.nxc"
13	46	80		subret __backtoOrigin_return
14	61	0	#line 61 "C:\Users\Kawtar\Documents\GitHub\OS_Project\new - Copy\Main.nxc"
14	62	0		set __signed_stack_001throwBall, 60
14	61	3	#line 61 "C:\Users\Kawtar\Documents\GitHub\OS_Project\new - Copy\Main.nxc"
14	61	3	#line 61 "C:\Users\Kawtar\Documents\GitHub\OS_Project\new - Copy\Main.nxc"
14	62	3		set __D0throwBall, 1
14	62	6	#line 62 "C:\Users\Kawtar\Documents\GitHub\OS_Project\new - Copy\Main.nxc"
14	63	6	#pragma macro 10
14	63	6		acquire __OnRevMutex
14	63	7		neg __OnRev_Tmp, __signed_stack_001throwBall
14	63	10		setout motors, 2, __OnRev_Tmp, 1, __constVal7, 8, __constVal2, 7, __D0throwBall, 6, __constVal32, 5, __constVal0, 10, __constVal96, 11, __constVal32, 12, __constVal32, 0, __constVal63
14	63	33		release __OnRevMutex
14	6179	34	#line 6179 "C:\Users\Kawtar\Documents\GitHub\OS_Project\new - Copy\Main.nxc"
14	62	34	#line 62 "C:\Users\Kawtar\Documents\GitHub\OS_Project\new - Copy\Main.nxc"
14	62	34	#line 62 "C:\Users\Kawtar\Documents\GitHub\OS_Project\new - Copy\Main.nxc"
14	63	34		set __Wait_7qG2_ms_7qG2_000_inline_throwBall, 1200
14	62	37	#line 62 "C:\Users\Kawtar\Documents\GitHub\OS_Project\new - Copy\Main.nxc"
14	7921	37	#line 7921 "NXCDefs.h"
14	7922	37		wait2 NA, __Wait_7qG2_ms_7qG2_000_inline_throwBall
14	7921	40	#line 7921 "NXCDefs.h"
14	63	40	#line 63 "C:\Users\Kawtar\Documents\GitHub\OS_Project\new - Copy\Main.nxc"
14	64	40	#line 64 "C:\Users\Kawtar\Documents\GitHub\OS_Project\new - Copy\Main.nxc"
14	65	40	#pragma macro 7
14	65	40		setout motors, 2, __constVal0, 1, __constVal3, 8, __constVal0, 6, __constVal32, 7, __constVal0, 5, __constVal0, 10, __constVal96, 11, __constVal32, 12, __constVal32, 0, __constVal63
14	6196	63	#line 6196 "C:\Users\Kawtar\Documents\GitHub\OS_Project\new - Copy\Main.nxc"
14	64	63	#line 64 "C:\Users\Kawtar\Documents\GitHub\OS_Project\new - Copy\Main.nxc"
14	65	63	#line 65 "C:\Users\Kawtar\Documents\GitHub\OS_Project\new - Copy\Main.nxc"
14	66	63		subcall close, __close_return
14	65	65	#line 65 "C:\Users\Kawtar\Documents\GitHub\OS_Project\new - Copy\Main.nxc"
14	65	65	#line 65 "C:\Users\Kawtar\Documents\GitHub\OS_Project\new - Copy\Main.nxc"
14	66	65		set __signed_stack_001throwBall, 100
14	65	68	#line 65 "C:\Users\Kawtar\Documents\GitHub\OS_Project\new - Copy\Main.nxc"
14	65	68	#line 65 "C:\Users\Kawtar\Documents\GitHub\OS_Project\new - Copy\Main.nxc"
14	66	68		set __D0throwBall, 1
14	66	71	#line 66 "C:\Users\Kawtar\Documents\GitHub\OS_Project\new - Copy\Main.nxc"
14	67	71	#pragma macro 7
14	67	71		setout motors, 2, __signed_stack_001throwBall, 1, __constVal7, 8, __constVal2, 7, __D0throwBall, 6, __constVal32, 5, __constVal0, 10, __constVal96, 11, __constVal32, 12, __constVal32, 0, __constVal63
14	6212	94	#line 6212 "C:\Users\Kawtar\Documents\GitHub\OS_Project\new - Copy\Main.nxc"
14	66	94	#line 66 "C:\Users\Kawtar\Documents\GitHub\OS_Project\new - Copy\Main.nxc"
14	66	94	#line 66 "C:\Users\Kawtar\Documents\GitHub\OS_Project\new - Copy\Main.nxc"
14	67	94		set __Wait_7qG2_ms_7qG2_000_inline_throwBall, 900
14	66	97	#line 66 "C:\Users\Kawtar\Documents\GitHub\OS_Project\new - Copy\Main.nxc"
14	7921	97	#line 7921 "NXCDefs.h"
14	7922	97		wait2 NA, __Wait_7qG2_ms_7qG2_000_inline_throwBall
14	7921	100	#line 7921 "NXCDefs.h"
14	67	100	#line 67 "C:\Users\Kawtar\Documents\GitHub\OS_Project\new - Copy\Main.nxc"
14	67	100	#line 67 "C:\Users\Kawtar\Documents\GitHub\OS_Project\new - Copy\Main.nxc"
14	68	100		set __open_7qG2_angle_7qG2_000, 180
14	67	103	#line 67 "C:\Users\Kawtar\Documents\GitHub\OS_Project\new - Copy\Main.nxc"
14	68	103	#line 68 "C:\Users\Kawtar\Documents\GitHub\OS_Project\new - Copy\Main.nxc"
14	69	103		subcall open, __open_return
14	68	105	#line 68 "C:\Users\Kawtar\Documents\GitHub\OS_Project\new - Copy\Main.nxc"
14	69	105	#line 69 "C:\Users\Kawtar\Documents\GitHub\OS_Project\new - Copy\Main.nxc"
14	70	105	#pragma macro 7
14	70	105		setout motors, 2, __constVal0, 1, __constVal3, 8, __constVal0, 6, __constVal32, 7, __constVal0, 5, __constVal0, 10, __constVal96, 11, __constVal32, 12, __constVal32, 0, __constVal63
14	6234	128	#line 6234 "C:\Users\Kawtar\Documents\GitHub\OS_Project\new - Copy\Main.nxc"
14	69	128	#line 69 "C:\Users\Kawtar\Documents\GitHub\OS_Project\new - Copy\Main.nxc"
14	70	128	#line 70 "C:\Users\Kawtar\Documents\GitHub\OS_Project\new - Copy\Main.nxc"
14	71	128		subcall stopRotor, __stopRotor_return
14	70	130	#line 70 "C:\Users\Kawtar\Documents\GitHub\OS_Project\new - Copy\Main.nxc"
14	72	130	#line 72 "C:\Users\Kawtar\Documents\GitHub\OS_Project\new - Copy\Main.nxc"
14	73	130		subret __throwBall_return
15	77	0	#line 77 "C:\Users\Kawtar\Documents\GitHub\OS_Project\new - Copy\Main.nxc"
15	78	0		set __getObjColor_7qG2_output_7qG2_000, 0
15	77	3	#line 77 "C:\Users\Kawtar\Documents\GitHub\OS_Project\new - Copy\Main.nxc"
15	77	3	#line 77 "C:\Users\Kawtar\Documents\GitHub\OS_Project\new - Copy\Main.nxc"
15	78	3	#pragma macro 32
15	78	3		acquire __RLSBmutex2
15	78	4		mov __RLSReadBuf2, __RLSBbufLSWrite1
15	78	6		set __RLSBytesCount2, 4
15	78	9		subcall __ReadLSBytes2, ____ReadLSBytes2_return
15	78	12		tst 4, __D0getObjColor, __RLSBResult2
15	78	15		index __getObjColor_7qG2_output_7qG2_000, __RLSReadBuf2, 65535
15	78	19		release __RLSBmutex2
15	6267	20	#line 6267 "C:\Users\Kawtar\Documents\GitHub\OS_Project\new - Copy\Main.nxc"
15	77	20	#line 77 "C:\Users\Kawtar\Documents\GitHub\OS_Project\new - Copy\Main.nxc"
15	77	20	#line 77 "C:\Users\Kawtar\Documents\GitHub\OS_Project\new - Copy\Main.nxc"
15	79	20	#line 79 "C:\Users\Kawtar\Documents\GitHub\OS_Project\new - Copy\Main.nxc"
15	80	20		mov __DU0getObjColor, __getObjColor_7qG2_output_7qG2_000
15	79	22	#line 79 "C:\Users\Kawtar\Documents\GitHub\OS_Project\new - Copy\Main.nxc"
15	80	22		subret __getObjColor_return
15	79	24	#line 79 "C:\Users\Kawtar\Documents\GitHub\OS_Project\new - Copy\Main.nxc"
15	81	24	#line 81 "C:\Users\Kawtar\Documents\GitHub\OS_Project\new - Copy\Main.nxc"
15	82	24		subret __getObjColor_return
16	84	0	#line 84 "C:\Users\Kawtar\Documents\GitHub\OS_Project\new - Copy\Main.nxc"
16	85	0		subcall getObjColor, __getObjColor_return
16	84	2	#line 84 "C:\Users\Kawtar\Documents\GitHub\OS_Project\new - Copy\Main.nxc"
16	84	2	#line 84 "C:\Users\Kawtar\Documents\GitHub\OS_Project\new - Copy\Main.nxc"
16	84	2	#line 84 "C:\Users\Kawtar\Documents\GitHub\OS_Project\new - Copy\Main.nxc"
16	85	2		mov __unsigned_stack_001isNotField, __DU0getObjColor
16	84	4	#line 84 "C:\Users\Kawtar\Documents\GitHub\OS_Project\new - Copy\Main.nxc"
16	84	4	#line 84 "C:\Users\Kawtar\Documents\GitHub\OS_Project\new - Copy\Main.nxc"
16	85	4		set __D0isNotField, 14
16	84	7	#line 84 "C:\Users\Kawtar\Documents\GitHub\OS_Project\new - Copy\Main.nxc"
16	85	7		cmp 4, __zfisNotField, __unsigned_stack_001isNotField, __D0isNotField
16	84	11	#line 84 "C:\Users\Kawtar\Documents\GitHub\OS_Project\new - Copy\Main.nxc"
16	85	11		mov __DU0isNotField, __zfisNotField
16	85	14	#line 85 "C:\Users\Kawtar\Documents\GitHub\OS_Project\new - Copy\Main.nxc"
16	85	14	#line 85 "C:\Users\Kawtar\Documents\GitHub\OS_Project\new - Copy\Main.nxc"
16	86	14		subret __isNotField_return
16	85	16	#line 85 "C:\Users\Kawtar\Documents\GitHub\OS_Project\new - Copy\Main.nxc"
16	87	16	#line 87 "C:\Users\Kawtar\Documents\GitHub\OS_Project\new - Copy\Main.nxc"
16	88	16		subret __isNotField_return
17	90	0	#line 90 "C:\Users\Kawtar\Documents\GitHub\OS_Project\new - Copy\Main.nxc"
17	91	0		subcall getObjColor, __getObjColor_return
17	90	2	#line 90 "C:\Users\Kawtar\Documents\GitHub\OS_Project\new - Copy\Main.nxc"
17	91	2		mov __checkandthrow_7qG2_output_7qG2_000, __DU0getObjColor
17	90	4	#line 90 "C:\Users\Kawtar\Documents\GitHub\OS_Project\new - Copy\Main.nxc"
17	90	4	#line 90 "C:\Users\Kawtar\Documents\GitHub\OS_Project\new - Copy\Main.nxc"
17	91	4		mov __unsigned_stack_001checkandthrow, __DU0getObjColor
17	90	6	#line 90 "C:\Users\Kawtar\Documents\GitHub\OS_Project\new - Copy\Main.nxc"
17	90	6	#line 90 "C:\Users\Kawtar\Documents\GitHub\OS_Project\new - Copy\Main.nxc"
17	91	6		set __D0checkandthrow, 9
17	90	9	#line 90 "C:\Users\Kawtar\Documents\GitHub\OS_Project\new - Copy\Main.nxc"
17	91	9		cmp 4, __zfcheckandthrow, __unsigned_stack_001checkandthrow, __D0checkandthrow
17	90	13	#line 90 "C:\Users\Kawtar\Documents\GitHub\OS_Project\new - Copy\Main.nxc"
17	91	13		mov __D0checkandthrow, __zfcheckandthrow
17	90	16	#line 90 "C:\Users\Kawtar\Documents\GitHub\OS_Project\new - Copy\Main.nxc"
17	91	16		brtst 5, __NXC_Label_582, __zfcheckandthrow
17	90	19	#line 90 "C:\Users\Kawtar\Documents\GitHub\OS_Project\new - Copy\Main.nxc"
17	91	19		mov __signed_stack_001checkandthrow, __D0checkandthrow
17	90	21	#line 90 "C:\Users\Kawtar\Documents\GitHub\OS_Project\new - Copy\Main.nxc"
17	91	21		mov __unsigned_stack_002checkandthrow, __checkandthrow_7qG2_output_7qG2_000
17	90	23	#line 90 "C:\Users\Kawtar\Documents\GitHub\OS_Project\new - Copy\Main.nxc"
17	91	23	#line 91 "C:\Users\Kawtar\Documents\GitHub\OS_Project\new - Copy\Main.nxc"
17	92	23		set __D0checkandthrow, 2
17	91	26	#line 91 "C:\Users\Kawtar\Documents\GitHub\OS_Project\new - Copy\Main.nxc"
17	92	26		cmp 4, __zfcheckandthrow, __unsigned_stack_002checkandthrow, __D0checkandthrow
17	91	30	#line 91 "C:\Users\Kawtar\Documents\GitHub\OS_Project\new - Copy\Main.nxc"
17	91	30	#line 91 "C:\Users\Kawtar\Documents\GitHub\OS_Project\new - Copy\Main.nxc"
17	92	30		or __D0checkandthrow, __signed_stack_001checkandthrow, __zfcheckandthrow
17	92	34	#line 92 "C:\Users\Kawtar\Documents\GitHub\OS_Project\new - Copy\Main.nxc"
17	93	34		tst 5, __zfcheckandthrow, __D0checkandthrow
17	92	37	#line 92 "C:\Users\Kawtar\Documents\GitHub\OS_Project\new - Copy\Main.nxc"
17	93	37		brtst 4, __NXC_Label_585, __zfcheckandthrow
17	93	40	#line 93 "C:\Users\Kawtar\Documents\GitHub\OS_Project\new - Copy\Main.nxc"
17	94	40		subcall close, __close_return
17	93	42	#line 93 "C:\Users\Kawtar\Documents\GitHub\OS_Project\new - Copy\Main.nxc"
17	94	42	#line 94 "C:\Users\Kawtar\Documents\GitHub\OS_Project\new - Copy\Main.nxc"
17	95	42		subcall backtoOrigin, __backtoOrigin_return
17	94	45	#line 94 "C:\Users\Kawtar\Documents\GitHub\OS_Project\new - Copy\Main.nxc"
17	94	45	#line 94 "C:\Users\Kawtar\Documents\GitHub\OS_Project\new - Copy\Main.nxc"
17	95	45		set __open_7qG2_angle_7qG2_000, 15
17	94	48	#line 94 "C:\Users\Kawtar\Documents\GitHub\OS_Project\new - Copy\Main.nxc"
17	95	48	#line 95 "C:\Users\Kawtar\Documents\GitHub\OS_Project\new - Copy\Main.nxc"
17	96	48		subcall open, __open_return
17	95	50	#line 95 "C:\Users\Kawtar\Documents\GitHub\OS_Project\new - Copy\Main.nxc"
17	95	50	#line 95 "C:\Users\Kawtar\Documents\GitHub\OS_Project\new - Copy\Main.nxc"
17	96	50		set __Wait_7qG2_ms_7qG2_000_inline_checkandthrow, 800
17	95	53	#line 95 "C:\Users\Kawtar\Documents\GitHub\OS_Project\new - Copy\Main.nxc"
17	7921	53	#line 7921 "NXCDefs.h"
17	7922	53		wait2 NA, __Wait_7qG2_ms_7qG2_000_inline_checkandthrow
17	7921	56	#line 7921 "NXCDefs.h"
17	96	56	#line 96 "C:\Users\Kawtar\Documents\GitHub\OS_Project\new - Copy\Main.nxc"
17	96	56	#line 96 "C:\Users\Kawtar\Documents\GitHub\OS_Project\new - Copy\Main.nxc"
17	97	56		set __open_7qG2_angle_7qG2_000, 165
17	96	59	#line 96 "C:\Users\Kawtar\Documents\GitHub\OS_Project\new - Copy\Main.nxc"
17	97	59	#line 97 "C:\Users\Kawtar\Documents\GitHub\OS_Project\new - Copy\Main.nxc"
17	98	59		subcall open, __open_return
17	97	61	#line 97 "C:\Users\Kawtar\Documents\GitHub\OS_Project\new - Copy\Main.nxc"
17	98	61	#line 98 "C:\Users\Kawtar\Documents\GitHub\OS_Project\new - Copy\Main.nxc"
17	99	61		subcall throwBall, __throwBall_return
17	98	63	#line 98 "C:\Users\Kawtar\Documents\GitHub\OS_Project\new - Copy\Main.nxc"
17	99	63	#line 99 "C:\Users\Kawtar\Documents\GitHub\OS_Project\new - Copy\Main.nxc"
17	100	63		set __DU0checkandthrow, 1
17	99	66	#line 99 "C:\Users\Kawtar\Documents\GitHub\OS_Project\new - Copy\Main.nxc"
17	99	66	#line 99 "C:\Users\Kawtar\Documents\GitHub\OS_Project\new - Copy\Main.nxc"
17	100	66		subret __checkandthrow_return
17	99	68	#line 99 "C:\Users\Kawtar\Documents\GitHub\OS_Project\new - Copy\Main.nxc"
17	100	68	#line 100 "C:\Users\Kawtar\Documents\GitHub\OS_Project\new - Copy\Main.nxc"
17	101	68	#line 101 "C:\Users\Kawtar\Documents\GitHub\OS_Project\new - Copy\Main.nxc"
17	102	68		set __DU0checkandthrow, 0
17	101	71	#line 101 "C:\Users\Kawtar\Documents\GitHub\OS_Project\new - Copy\Main.nxc"
17	101	71	#line 101 "C:\Users\Kawtar\Documents\GitHub\OS_Project\new - Copy\Main.nxc"
17	102	71		subret __checkandthrow_return
17	101	73	#line 101 "C:\Users\Kawtar\Documents\GitHub\OS_Project\new - Copy\Main.nxc"
17	104	73	#line 104 "C:\Users\Kawtar\Documents\GitHub\OS_Project\new - Copy\Main.nxc"
17	105	73		subret __checkandthrow_return
18	106	0	#line 106 "C:\Users\Kawtar\Documents\GitHub\OS_Project\new - Copy\Main.nxc"
18	107	0		set __signed_stack_001moveTowardObj, 40
18	106	3	#line 106 "C:\Users\Kawtar\Documents\GitHub\OS_Project\new - Copy\Main.nxc"
18	106	3	#line 106 "C:\Users\Kawtar\Documents\GitHub\OS_Project\new - Copy\Main.nxc"
18	107	3		set __D0moveTowardObj, 1
18	107	6	#line 107 "C:\Users\Kawtar\Documents\GitHub\OS_Project\new - Copy\Main.nxc"
18	108	6	#pragma macro 7
18	108	6		setout __OUT_AC, 2, __signed_stack_001moveTowardObj, 1, __constVal7, 8, __constVal2, 7, __D0moveTowardObj, 6, __constVal32, 5, __constVal0, 10, __constVal96, 11, __constVal32, 12, __constVal32, 0, __constVal63
18	6440	29	#line 6440 "C:\Users\Kawtar\Documents\GitHub\OS_Project\new - Copy\Main.nxc"
18	107	29	#line 107 "C:\Users\Kawtar\Documents\GitHub\OS_Project\new - Copy\Main.nxc"
18	108	29	#line 108 "C:\Users\Kawtar\Documents\GitHub\OS_Project\new - Copy\Main.nxc"
18	109	29		set __moveTowardObj_7qG2_meetWall_7qG2_000, 0
18	108	32	#line 108 "C:\Users\Kawtar\Documents\GitHub\OS_Project\new - Copy\Main.nxc"
18	109	32	#line 109 "C:\Users\Kawtar\Documents\GitHub\OS_Project\new - Copy\Main.nxc"
18	110	32		set __D0moveTowardObj, 1
18	110	35	#line 110 "C:\Users\Kawtar\Documents\GitHub\OS_Project\new - Copy\Main.nxc"
18	111	35		tst 5, __zfmoveTowardObj, __D0moveTowardObj
18	110	38	#line 110 "C:\Users\Kawtar\Documents\GitHub\OS_Project\new - Copy\Main.nxc"
18	111	38		brtst 4, __NXC_Label_603, __zfmoveTowardObj
18	110	41	#line 110 "C:\Users\Kawtar\Documents\GitHub\OS_Project\new - Copy\Main.nxc"
18	111	41		set __ClearSensor_7qG2_port_7qG2_000_inline_moveTowardObj, 0
18	110	44	#line 110 "C:\Users\Kawtar\Documents\GitHub\OS_Project\new - Copy\Main.nxc"
18	3684	44	#line 3684 "NXCDefs.h"
18	3685	44		setin __constVal0, __ClearSensor_7qG2_port_7qG2_000_inline_moveTowardObj, 4
18	3684	48	#line 3684 "NXCDefs.h"
18	111	48	#line 111 "C:\Users\Kawtar\Documents\GitHub\OS_Project\new - Copy\Main.nxc"
18	112	48	#line 112 "C:\Users\Kawtar\Documents\GitHub\OS_Project\new - Copy\Main.nxc"
18	113	48		subcall isNotField, __isNotField_return
18	112	50	#line 112 "C:\Users\Kawtar\Documents\GitHub\OS_Project\new - Copy\Main.nxc"
18	113	50		mov __moveTowardObj_7qG2_meetWall_7qG2_000, __DU0isNotField
18	112	52	#line 112 "C:\Users\Kawtar\Documents\GitHub\OS_Project\new - Copy\Main.nxc"
18	112	52	#line 112 "C:\Users\Kawtar\Documents\GitHub\OS_Project\new - Copy\Main.nxc"
18	112	52	#line 112 "C:\Users\Kawtar\Documents\GitHub\OS_Project\new - Copy\Main.nxc"
18	113	52	#pragma macro 26
18	113	52		acquire __RLSBmutex0
18	113	53		mov __RLSReadBuf0, __RLSBbufLSWrite1
18	113	55		set __RLSBytesCount0, 1
18	113	58		wait2 NA, __constVal15
18	113	61		subcall __ReadLSBytes0, ____ReadLSBytes0_return
18	113	64		index __D0moveTowardObj, __RLSReadBuf0, 65535
18	113	68		release __RLSBmutex0
18	6485	69	#line 6485 "C:\Users\Kawtar\Documents\GitHub\OS_Project\new - Copy\Main.nxc"
18	112	69	#line 112 "C:\Users\Kawtar\Documents\GitHub\OS_Project\new - Copy\Main.nxc"
18	113	69		mov __signed_stack_001moveTowardObj, __D0moveTowardObj
18	112	71	#line 112 "C:\Users\Kawtar\Documents\GitHub\OS_Project\new - Copy\Main.nxc"
18	113	71		set __D0moveTowardObj, 7
18	112	74	#line 112 "C:\Users\Kawtar\Documents\GitHub\OS_Project\new - Copy\Main.nxc"
18	113	74		cmp 2, __zfmoveTowardObj, __signed_stack_001moveTowardObj, __D0moveTowardObj
18	112	78	#line 112 "C:\Users\Kawtar\Documents\GitHub\OS_Project\new - Copy\Main.nxc"
18	113	78		mov __D0moveTowardObj, __zfmoveTowardObj
18	112	81	#line 112 "C:\Users\Kawtar\Documents\GitHub\OS_Project\new - Copy\Main.nxc"
18	113	81		brtst 5, __NXC_Label_610, __zfmoveTowardObj
18	112	84	#line 112 "C:\Users\Kawtar\Documents\GitHub\OS_Project\new - Copy\Main.nxc"
18	113	84		mov __signed_stack_001moveTowardObj, __D0moveTowardObj
18	112	86	#line 112 "C:\Users\Kawtar\Documents\GitHub\OS_Project\new - Copy\Main.nxc"
18	113	86		mov __DU0moveTowardObj, __moveTowardObj_7qG2_meetWall_7qG2_000
18	113	88	#line 113 "C:\Users\Kawtar\Documents\GitHub\OS_Project\new - Copy\Main.nxc"
18	114	88		tst 5, __zfmoveTowardObj, __DU0moveTowardObj
18	113	91	#line 113 "C:\Users\Kawtar\Documents\GitHub\OS_Project\new - Copy\Main.nxc"
18	113	91	#line 113 "C:\Users\Kawtar\Documents\GitHub\OS_Project\new - Copy\Main.nxc"
18	114	91		or __D0moveTowardObj, __signed_stack_001moveTowardObj, __zfmoveTowardObj
18	114	95	#line 114 "C:\Users\Kawtar\Documents\GitHub\OS_Project\new - Copy\Main.nxc"
18	115	95		tst 5, __zfmoveTowardObj, __D0moveTowardObj
18	114	98	#line 114 "C:\Users\Kawtar\Documents\GitHub\OS_Project\new - Copy\Main.nxc"
18	115	98		brtst 4, __NXC_Label_617, __zfmoveTowardObj
18	115	101	#line 115 "C:\Users\Kawtar\Documents\GitHub\OS_Project\new - Copy\Main.nxc"
18	116	101	#pragma macro 7
18	116	101		setout motors, 2, __constVal0, 1, __constVal3, 8, __constVal0, 6, __constVal32, 7, __constVal0, 5, __constVal0, 10, __constVal96, 11, __constVal32, 12, __constVal32, 0, __constVal63
18	6518	124	#line 6518 "C:\Users\Kawtar\Documents\GitHub\OS_Project\new - Copy\Main.nxc"
18	115	124	#line 115 "C:\Users\Kawtar\Documents\GitHub\OS_Project\new - Copy\Main.nxc"
18	116	124	#line 116 "C:\Users\Kawtar\Documents\GitHub\OS_Project\new - Copy\Main.nxc"
18	117	124		jmp __NXC_Label_603
18	116	126	#line 116 "C:\Users\Kawtar\Documents\GitHub\OS_Project\new - Copy\Main.nxc"
18	119	126	#line 119 "C:\Users\Kawtar\Documents\GitHub\OS_Project\new - Copy\Main.nxc"
18	119	126	#line 119 "C:\Users\Kawtar\Documents\GitHub\OS_Project\new - Copy\Main.nxc"
18	120	126		jmp __NXC_Label_602
18	119	128	#line 119 "C:\Users\Kawtar\Documents\GitHub\OS_Project\new - Copy\Main.nxc"
18	120	128	#line 120 "C:\Users\Kawtar\Documents\GitHub\OS_Project\new - Copy\Main.nxc"
18	121	128		mov __DU0moveTowardObj, __moveTowardObj_7qG2_meetWall_7qG2_000
18	121	130	#line 121 "C:\Users\Kawtar\Documents\GitHub\OS_Project\new - Copy\Main.nxc"
18	122	130		tst 5, __zfmoveTowardObj, __DU0moveTowardObj
18	121	133	#line 121 "C:\Users\Kawtar\Documents\GitHub\OS_Project\new - Copy\Main.nxc"
18	122	133		brtst 4, __NXC_Label_620, __zfmoveTowardObj
18	122	136	#line 122 "C:\Users\Kawtar\Documents\GitHub\OS_Project\new - Copy\Main.nxc"
18	123	136		set __DU0moveTowardObj, 0
18	122	139	#line 122 "C:\Users\Kawtar\Documents\GitHub\OS_Project\new - Copy\Main.nxc"
18	122	139	#line 122 "C:\Users\Kawtar\Documents\GitHub\OS_Project\new - Copy\Main.nxc"
18	123	139		subret __moveTowardObj_return
18	122	141	#line 122 "C:\Users\Kawtar\Documents\GitHub\OS_Project\new - Copy\Main.nxc"
18	125	141	#line 125 "C:\Users\Kawtar\Documents\GitHub\OS_Project\new - Copy\Main.nxc"
18	126	141		jmp __NXC_Label_623
18	126	143	#line 126 "C:\Users\Kawtar\Documents\GitHub\OS_Project\new - Copy\Main.nxc"
18	127	143		set __DU0moveTowardObj, 1
18	126	146	#line 126 "C:\Users\Kawtar\Documents\GitHub\OS_Project\new - Copy\Main.nxc"
18	126	146	#line 126 "C:\Users\Kawtar\Documents\GitHub\OS_Project\new - Copy\Main.nxc"
18	127	146		subret __moveTowardObj_return
18	126	148	#line 126 "C:\Users\Kawtar\Documents\GitHub\OS_Project\new - Copy\Main.nxc"
18	130	148	#line 130 "C:\Users\Kawtar\Documents\GitHub\OS_Project\new - Copy\Main.nxc"
18	130	148	#line 130 "C:\Users\Kawtar\Documents\GitHub\OS_Project\new - Copy\Main.nxc"
18	131	148		subret __moveTowardObj_return
19	133	0	#line 133 "C:\Users\Kawtar\Documents\GitHub\OS_Project\new - Copy\Main.nxc"
19	134	0		mov scanningLeft, scanningRight
19	133	2	#line 133 "C:\Users\Kawtar\Documents\GitHub\OS_Project\new - Copy\Main.nxc"
19	133	2	#line 133 "C:\Users\Kawtar\Documents\GitHub\OS_Project\new - Copy\Main.nxc"
19	134	2	#line 134 "C:\Users\Kawtar\Documents\GitHub\OS_Project\new - Copy\Main.nxc"
19	134	2	#line 134 "C:\Users\Kawtar\Documents\GitHub\OS_Project\new - Copy\Main.nxc"
19	135	2		not scanningRight, scanningRight
19	134	5	#line 134 "C:\Users\Kawtar\Documents\GitHub\OS_Project\new - Copy\Main.nxc"
19	134	5	#line 134 "C:\Users\Kawtar\Documents\GitHub\OS_Project\new - Copy\Main.nxc"
19	136	5	#line 136 "C:\Users\Kawtar\Documents\GitHub\OS_Project\new - Copy\Main.nxc"
19	137	5		subret __changeDirection_return
20	138	0	#line 138 "C:\Users\Kawtar\Documents\GitHub\OS_Project\new - Copy\Main.nxc"
20	139	0		set __signed_stack_001moveFwd, 40
20	138	3	#line 138 "C:\Users\Kawtar\Documents\GitHub\OS_Project\new - Copy\Main.nxc"
20	138	3	#line 138 "C:\Users\Kawtar\Documents\GitHub\OS_Project\new - Copy\Main.nxc"
20	139	3		set __D0moveFwd, 2
20	139	6	#line 139 "C:\Users\Kawtar\Documents\GitHub\OS_Project\new - Copy\Main.nxc"
20	140	6	#pragma macro 7
20	140	6		setout __OUT_AC, 2, __signed_stack_001moveFwd, 1, __constVal7, 8, __constVal2, 7, __D0moveFwd, 6, __constVal32, 5, __constVal0, 10, __constVal96, 11, __constVal32, 12, __constVal32, 0, __constVal63
20	6597	29	#line 6597 "C:\Users\Kawtar\Documents\GitHub\OS_Project\new - Copy\Main.nxc"
20	139	29	#line 139 "C:\Users\Kawtar\Documents\GitHub\OS_Project\new - Copy\Main.nxc"
20	139	29	#line 139 "C:\Users\Kawtar\Documents\GitHub\OS_Project\new - Copy\Main.nxc"
20	140	29		mov __Wait_7qG2_ms_7qG2_000_inline_moveFwd, __moveFwd_7qG2_moveTime_7qG2_000
20	139	31	#line 139 "C:\Users\Kawtar\Documents\GitHub\OS_Project\new - Copy\Main.nxc"
20	7921	31	#line 7921 "NXCDefs.h"
20	7922	31		wait2 NA, __Wait_7qG2_ms_7qG2_000_inline_moveFwd
20	7921	34	#line 7921 "NXCDefs.h"
20	140	34	#line 140 "C:\Users\Kawtar\Documents\GitHub\OS_Project\new - Copy\Main.nxc"
20	141	34	#line 141 "C:\Users\Kawtar\Documents\GitHub\OS_Project\new - Copy\Main.nxc"
20	142	34	#pragma macro 7
20	142	34		setout motors, 2, __constVal0, 1, __constVal3, 8, __constVal0, 6, __constVal32, 7, __constVal0, 5, __constVal0, 10, __constVal96, 11, __constVal32, 12, __constVal32, 0, __constVal63
20	6614	57	#line 6614 "C:\Users\Kawtar\Documents\GitHub\OS_Project\new - Copy\Main.nxc"
20	141	57	#line 141 "C:\Users\Kawtar\Documents\GitHub\OS_Project\new - Copy\Main.nxc"
20	142	57	#line 142 "C:\Users\Kawtar\Documents\GitHub\OS_Project\new - Copy\Main.nxc"
20	143	57		subret __moveFwd_return
21	144	0	#line 144 "C:\Users\Kawtar\Documents\GitHub\OS_Project\new - Copy\Main.nxc"
21	145	0		set __signed_stack_001moveBwd, 40
21	144	3	#line 144 "C:\Users\Kawtar\Documents\GitHub\OS_Project\new - Copy\Main.nxc"
21	144	3	#line 144 "C:\Users\Kawtar\Documents\GitHub\OS_Project\new - Copy\Main.nxc"
21	145	3		set __D0moveBwd, 2
21	145	6	#line 145 "C:\Users\Kawtar\Documents\GitHub\OS_Project\new - Copy\Main.nxc"
21	146	6	#pragma macro 10
21	146	6		acquire __OnRevMutex
21	146	7		neg __OnRev_Tmp, __signed_stack_001moveBwd
21	146	10		setout __OUT_AC, 2, __OnRev_Tmp, 1, __constVal7, 8, __constVal2, 7, __D0moveBwd, 6, __constVal32, 5, __constVal0, 10, __constVal96, 11, __constVal32, 12, __constVal32, 0, __constVal63
21	146	33		release __OnRevMutex
21	6632	34	#line 6632 "C:\Users\Kawtar\Documents\GitHub\OS_Project\new - Copy\Main.nxc"
21	145	34	#line 145 "C:\Users\Kawtar\Documents\GitHub\OS_Project\new - Copy\Main.nxc"
21	145	34	#line 145 "C:\Users\Kawtar\Documents\GitHub\OS_Project\new - Copy\Main.nxc"
21	146	34		mov __Wait_7qG2_ms_7qG2_000_inline_moveBwd, __moveBwd_7qG2_moveTime_7qG2_000
21	145	36	#line 145 "C:\Users\Kawtar\Documents\GitHub\OS_Project\new - Copy\Main.nxc"
21	7921	36	#line 7921 "NXCDefs.h"
21	7922	36		wait2 NA, __Wait_7qG2_ms_7qG2_000_inline_moveBwd
21	7921	39	#line 7921 "NXCDefs.h"
21	146	39	#line 146 "C:\Users\Kawtar\Documents\GitHub\OS_Project\new - Copy\Main.nxc"
21	147	39	#line 147 "C:\Users\Kawtar\Documents\GitHub\OS_Project\new - Copy\Main.nxc"
21	148	39	#pragma macro 7
21	148	39		setout motors, 2, __constVal0, 1, __constVal3, 8, __constVal0, 6, __constVal32, 7, __constVal0, 5, __constVal0, 10, __constVal96, 11, __constVal32, 12, __constVal32, 0, __constVal63
21	6649	62	#line 6649 "C:\Users\Kawtar\Documents\GitHub\OS_Project\new - Copy\Main.nxc"
21	147	62	#line 147 "C:\Users\Kawtar\Documents\GitHub\OS_Project\new - Copy\Main.nxc"
21	148	62	#line 148 "C:\Users\Kawtar\Documents\GitHub\OS_Project\new - Copy\Main.nxc"
21	149	62		subret __moveBwd_return
22	151	0	#line 151 "C:\Users\Kawtar\Documents\GitHub\OS_Project\new - Copy\Main.nxc"
22	152	0		mov __DU0reverseDirection, scanningRight
22	152	2	#line 152 "C:\Users\Kawtar\Documents\GitHub\OS_Project\new - Copy\Main.nxc"
22	153	2		tst 5, __zfreverseDirection, __DU0reverseDirection
22	152	5	#line 152 "C:\Users\Kawtar\Documents\GitHub\OS_Project\new - Copy\Main.nxc"
22	153	5		brtst 4, __NXC_Label_644, __zfreverseDirection
22	152	8	#line 152 "C:\Users\Kawtar\Documents\GitHub\OS_Project\new - Copy\Main.nxc"
22	153	8		set __D0reverseDirection, 25
22	153	11	#line 153 "C:\Users\Kawtar\Documents\GitHub\OS_Project\new - Copy\Main.nxc"
22	154	11	#pragma macro 7
22	154	11		setout RMotor, 2, __D0reverseDirection, 1, __constVal3, 8, __constVal0, 6, __constVal32, 7, __constVal0, 5, __constVal0, 10, __constVal96, 11, __constVal32, 12, __constVal32, 0, __constVal63
22	6669	34	#line 6669 "C:\Users\Kawtar\Documents\GitHub\OS_Project\new - Copy\Main.nxc"
22	153	34	#line 153 "C:\Users\Kawtar\Documents\GitHub\OS_Project\new - Copy\Main.nxc"
22	153	34	#line 153 "C:\Users\Kawtar\Documents\GitHub\OS_Project\new - Copy\Main.nxc"
22	154	34		set __D0reverseDirection, 25
22	154	37	#line 154 "C:\Users\Kawtar\Documents\GitHub\OS_Project\new - Copy\Main.nxc"
22	155	37	#pragma macro 10
22	155	37		acquire __OnRevMutex
22	155	38		neg __OnRev_Tmp, __D0reverseDirection
22	155	41		setout LMotor, 2, __OnRev_Tmp, 1, __constVal3, 8, __constVal0, 6, __constVal32, 7, __constVal0, 5, __constVal0, 10, __constVal96, 11, __constVal32, 12, __constVal32, 0, __constVal63
22	155	64		release __OnRevMutex
22	6676	65	#line 6676 "C:\Users\Kawtar\Documents\GitHub\OS_Project\new - Copy\Main.nxc"
22	154	65	#line 154 "C:\Users\Kawtar\Documents\GitHub\OS_Project\new - Copy\Main.nxc"
22	157	65	#line 157 "C:\Users\Kawtar\Documents\GitHub\OS_Project\new - Copy\Main.nxc"
22	158	65		jmp __NXC_Label_649
22	157	67	#line 157 "C:\Users\Kawtar\Documents\GitHub\OS_Project\new - Copy\Main.nxc"
22	158	67		set __D0reverseDirection, 25
22	158	70	#line 158 "C:\Users\Kawtar\Documents\GitHub\OS_Project\new - Copy\Main.nxc"
22	159	70	#pragma macro 7
22	159	70		setout LMotor, 2, __D0reverseDirection, 1, __constVal3, 8, __constVal0, 6, __constVal32, 7, __constVal0, 5, __constVal0, 10, __constVal96, 11, __constVal32, 12, __constVal32, 0, __constVal63
22	6686	93	#line 6686 "C:\Users\Kawtar\Documents\GitHub\OS_Project\new - Copy\Main.nxc"
22	158	93	#line 158 "C:\Users\Kawtar\Documents\GitHub\OS_Project\new - Copy\Main.nxc"
22	158	93	#line 158 "C:\Users\Kawtar\Documents\GitHub\OS_Project\new - Copy\Main.nxc"
22	159	93		set __D0reverseDirection, 25
22	159	96	#line 159 "C:\Users\Kawtar\Documents\GitHub\OS_Project\new - Copy\Main.nxc"
22	160	96	#pragma macro 10
22	160	96		acquire __OnRevMutex
22	160	97		neg __OnRev_Tmp, __D0reverseDirection
22	160	100		setout RMotor, 2, __OnRev_Tmp, 1, __constVal3, 8, __constVal0, 6, __constVal32, 7, __constVal0, 5, __constVal0, 10, __constVal96, 11, __constVal32, 12, __constVal32, 0, __constVal63
22	160	123		release __OnRevMutex
22	6693	124	#line 6693 "C:\Users\Kawtar\Documents\GitHub\OS_Project\new - Copy\Main.nxc"
22	159	124	#line 159 "C:\Users\Kawtar\Documents\GitHub\OS_Project\new - Copy\Main.nxc"
22	160	124	#line 160 "C:\Users\Kawtar\Documents\GitHub\OS_Project\new - Copy\Main.nxc"
22	160	124	#line 160 "C:\Users\Kawtar\Documents\GitHub\OS_Project\new - Copy\Main.nxc"
22	161	124		mov __Wait_7qG2_ms_7qG2_000_inline_reverseDirection, __reverseDirection_7qG2_moveTime_7qG2_000
22	160	126	#line 160 "C:\Users\Kawtar\Documents\GitHub\OS_Project\new - Copy\Main.nxc"
22	7921	126	#line 7921 "NXCDefs.h"
22	7922	126		wait2 NA, __Wait_7qG2_ms_7qG2_000_inline_reverseDirection
22	7921	129	#line 7921 "NXCDefs.h"
22	161	129	#line 161 "C:\Users\Kawtar\Documents\GitHub\OS_Project\new - Copy\Main.nxc"
22	162	129	#line 162 "C:\Users\Kawtar\Documents\GitHub\OS_Project\new - Copy\Main.nxc"
22	163	129		subret __reverseDirection_return
23	163	0	#line 163 "C:\Users\Kawtar\Documents\GitHub\OS_Project\new - Copy\Main.nxc"
23	164	0		set __D0reading, 1
23	165	3	#line 165 "C:\Users\Kawtar\Documents\GitHub\OS_Project\new - Copy\Main.nxc"
23	166	3		tst 5, __zfreading, __D0reading
23	165	6	#line 165 "C:\Users\Kawtar\Documents\GitHub\OS_Project\new - Copy\Main.nxc"
23	166	6		brtst 4, __NXC_Label_657, __zfreading
23	167	9	#line 167 "C:\Users\Kawtar\Documents\GitHub\OS_Project\new - Copy\Main.nxc"
23	168	9		acquire moveMutex
23	167	10	#line 167 "C:\Users\Kawtar\Documents\GitHub\OS_Project\new - Copy\Main.nxc"
23	167	10	#line 167 "C:\Users\Kawtar\Documents\GitHub\OS_Project\new - Copy\Main.nxc"
23	168	10	#pragma macro 30
23	168	10		acquire __RLSBmutex1
23	168	11		mov __RLSReadBuf1, __RLSBbufLSWrite1
23	168	13		set __RLSBytesCount1, 2
23	168	16		subcall __ReadLSBytes1, ____ReadLSBytes1_return
23	168	19		index __D0reading, __RLSReadBuf1, 65535
23	168	23		index __RLSBytesCount1, __RLSReadBuf1, __constVal1
23	168	27		add __D0reading, __D0reading, __D0reading
23	168	31		add __D0reading, __D0reading, __RLSBytesCount1
23	168	35		release __RLSBmutex1
23	6729	36	#line 6729 "C:\Users\Kawtar\Documents\GitHub\OS_Project\new - Copy\Main.nxc"
23	167	36	#line 167 "C:\Users\Kawtar\Documents\GitHub\OS_Project\new - Copy\Main.nxc"
23	168	36		mov currentCompass, __D0reading
23	167	38	#line 167 "C:\Users\Kawtar\Documents\GitHub\OS_Project\new - Copy\Main.nxc"
23	167	38	#line 167 "C:\Users\Kawtar\Documents\GitHub\OS_Project\new - Copy\Main.nxc"
23	6069	38	#line 6069 "NXCDefs.h"
23	6070	38	#pragma macro 6
23	6070	38		acquire __PointOutMutex
23	6070	39		mov __PointOutArgs.Location.X, __constVal200
23	6070	41		mov __PointOutArgs.Location.Y, __constVal200
23	6070	43		mov __PointOutArgs.Options, __constVal1
23	6070	45		syscall 14, __PointOutArgs
23	6070	48		release __PointOutMutex
23	6737	49	#line 6737 "NXCDefs.h"
23	6069	49	#line 6069 "NXCDefs.h"
23	170	49	#line 170 "C:\Users\Kawtar\Documents\GitHub\OS_Project\new - Copy\Main.nxc"
23	170	49	#line 170 "C:\Users\Kawtar\Documents\GitHub\OS_Project\new - Copy\Main.nxc"
23	171	49		set __signed_stack_001reading, 10
23	170	52	#line 170 "C:\Users\Kawtar\Documents\GitHub\OS_Project\new - Copy\Main.nxc"
23	170	52	#line 170 "C:\Users\Kawtar\Documents\GitHub\OS_Project\new - Copy\Main.nxc"
23	171	52		set __signed_stack_002reading, 56
23	170	55	#line 170 "C:\Users\Kawtar\Documents\GitHub\OS_Project\new - Copy\Main.nxc"
23	170	55	#line 170 "C:\Users\Kawtar\Documents\GitHub\OS_Project\new - Copy\Main.nxc"
23	171	55		strcat __strbufreading, __constStr0009
23	171	59	#line 171 "C:\Users\Kawtar\Documents\GitHub\OS_Project\new - Copy\Main.nxc"
23	172	59		acquire __TextOutMutex
23	171	60	#line 171 "C:\Users\Kawtar\Documents\GitHub\OS_Project\new - Copy\Main.nxc"
23	172	60		mov __TextOutArgs.Location.X, __signed_stack_001reading
23	171	63	#line 171 "C:\Users\Kawtar\Documents\GitHub\OS_Project\new - Copy\Main.nxc"
23	172	63		mov __TextOutArgs.Location.Y, __signed_stack_002reading
23	171	66	#line 171 "C:\Users\Kawtar\Documents\GitHub\OS_Project\new - Copy\Main.nxc"
23	172	66		set __TextOutArgs.Options, 0
23	171	69	#line 171 "C:\Users\Kawtar\Documents\GitHub\OS_Project\new - Copy\Main.nxc"
23	172	69		mov __TextOutArgs.Text, __strbufreading
23	171	71	#line 171 "C:\Users\Kawtar\Documents\GitHub\OS_Project\new - Copy\Main.nxc"
23	172	71		syscall 13, __TextOutArgs
23	171	74	#line 171 "C:\Users\Kawtar\Documents\GitHub\OS_Project\new - Copy\Main.nxc"
23	172	74		mov __D0reading, __TextOutArgs.Result
23	171	77	#line 171 "C:\Users\Kawtar\Documents\GitHub\OS_Project\new - Copy\Main.nxc"
23	172	77		release __TextOutMutex
23	171	78	#line 171 "C:\Users\Kawtar\Documents\GitHub\OS_Project\new - Copy\Main.nxc"
23	171	78	#line 171 "C:\Users\Kawtar\Documents\GitHub\OS_Project\new - Copy\Main.nxc"
23	172	78		set __signed_stack_001reading, 10
23	171	81	#line 171 "C:\Users\Kawtar\Documents\GitHub\OS_Project\new - Copy\Main.nxc"
23	171	81	#line 171 "C:\Users\Kawtar\Documents\GitHub\OS_Project\new - Copy\Main.nxc"
23	172	81		set __signed_stack_002reading, 48
23	171	84	#line 171 "C:\Users\Kawtar\Documents\GitHub\OS_Project\new - Copy\Main.nxc"
23	171	84	#line 171 "C:\Users\Kawtar\Documents\GitHub\OS_Project\new - Copy\Main.nxc"
23	172	84		mov __D0reading, ownGoal
23	173	86	#line 173 "C:\Users\Kawtar\Documents\GitHub\OS_Project\new - Copy\Main.nxc"
23	174	86		acquire __TextOutMutex
23	173	87	#line 173 "C:\Users\Kawtar\Documents\GitHub\OS_Project\new - Copy\Main.nxc"
23	174	87		mov __TextOutArgs.Location.X, __signed_stack_001reading
23	173	90	#line 173 "C:\Users\Kawtar\Documents\GitHub\OS_Project\new - Copy\Main.nxc"
23	174	90		mov __TextOutArgs.Location.Y, __signed_stack_002reading
23	173	93	#line 173 "C:\Users\Kawtar\Documents\GitHub\OS_Project\new - Copy\Main.nxc"
23	174	93		set __TextOutArgs.Options, 0
23	173	96	#line 173 "C:\Users\Kawtar\Documents\GitHub\OS_Project\new - Copy\Main.nxc"
23	174	96		numtostr __TextOutArgs.Text, __D0reading
23	173	99	#line 173 "C:\Users\Kawtar\Documents\GitHub\OS_Project\new - Copy\Main.nxc"
23	174	99		syscall 13, __TextOutArgs
23	173	102	#line 173 "C:\Users\Kawtar\Documents\GitHub\OS_Project\new - Copy\Main.nxc"
23	174	102		mov __D0reading, __TextOutArgs.Result
23	173	105	#line 173 "C:\Users\Kawtar\Documents\GitHub\OS_Project\new - Copy\Main.nxc"
23	174	105		release __TextOutMutex
23	173	106	#line 173 "C:\Users\Kawtar\Documents\GitHub\OS_Project\new - Copy\Main.nxc"
23	173	106	#line 173 "C:\Users\Kawtar\Documents\GitHub\OS_Project\new - Copy\Main.nxc"
23	174	106		set __signed_stack_001reading, 10
23	173	109	#line 173 "C:\Users\Kawtar\Documents\GitHub\OS_Project\new - Copy\Main.nxc"
23	173	109	#line 173 "C:\Users\Kawtar\Documents\GitHub\OS_Project\new - Copy\Main.nxc"
23	174	109		set __signed_stack_002reading, 40
23	173	112	#line 173 "C:\Users\Kawtar\Documents\GitHub\OS_Project\new - Copy\Main.nxc"
23	173	112	#line 173 "C:\Users\Kawtar\Documents\GitHub\OS_Project\new - Copy\Main.nxc"
23	174	112		strcat __strbufreading, __constStr0010
23	174	116	#line 174 "C:\Users\Kawtar\Documents\GitHub\OS_Project\new - Copy\Main.nxc"
23	175	116		acquire __TextOutMutex
23	174	117	#line 174 "C:\Users\Kawtar\Documents\GitHub\OS_Project\new - Copy\Main.nxc"
23	175	117		mov __TextOutArgs.Location.X, __signed_stack_001reading
23	174	120	#line 174 "C:\Users\Kawtar\Documents\GitHub\OS_Project\new - Copy\Main.nxc"
23	175	120		mov __TextOutArgs.Location.Y, __signed_stack_002reading
23	174	123	#line 174 "C:\Users\Kawtar\Documents\GitHub\OS_Project\new - Copy\Main.nxc"
23	175	123		set __TextOutArgs.Options, 0
23	174	126	#line 174 "C:\Users\Kawtar\Documents\GitHub\OS_Project\new - Copy\Main.nxc"
23	175	126		mov __TextOutArgs.Text, __strbufreading
23	174	128	#line 174 "C:\Users\Kawtar\Documents\GitHub\OS_Project\new - Copy\Main.nxc"
23	175	128		syscall 13, __TextOutArgs
23	174	131	#line 174 "C:\Users\Kawtar\Documents\GitHub\OS_Project\new - Copy\Main.nxc"
23	175	131		mov __D0reading, __TextOutArgs.Result
23	174	134	#line 174 "C:\Users\Kawtar\Documents\GitHub\OS_Project\new - Copy\Main.nxc"
23	175	134		release __TextOutMutex
23	174	135	#line 174 "C:\Users\Kawtar\Documents\GitHub\OS_Project\new - Copy\Main.nxc"
23	174	135	#line 174 "C:\Users\Kawtar\Documents\GitHub\OS_Project\new - Copy\Main.nxc"
23	175	135		set __signed_stack_001reading, 10
23	174	138	#line 174 "C:\Users\Kawtar\Documents\GitHub\OS_Project\new - Copy\Main.nxc"
23	174	138	#line 174 "C:\Users\Kawtar\Documents\GitHub\OS_Project\new - Copy\Main.nxc"
23	175	138		set __signed_stack_002reading, 32
23	174	141	#line 174 "C:\Users\Kawtar\Documents\GitHub\OS_Project\new - Copy\Main.nxc"
23	174	141	#line 174 "C:\Users\Kawtar\Documents\GitHub\OS_Project\new - Copy\Main.nxc"
23	175	141		mov __D0reading, currentCompass
23	176	143	#line 176 "C:\Users\Kawtar\Documents\GitHub\OS_Project\new - Copy\Main.nxc"
23	177	143		acquire __TextOutMutex
23	176	144	#line 176 "C:\Users\Kawtar\Documents\GitHub\OS_Project\new - Copy\Main.nxc"
23	177	144		mov __TextOutArgs.Location.X, __signed_stack_001reading
23	176	147	#line 176 "C:\Users\Kawtar\Documents\GitHub\OS_Project\new - Copy\Main.nxc"
23	177	147		mov __TextOutArgs.Location.Y, __signed_stack_002reading
23	176	150	#line 176 "C:\Users\Kawtar\Documents\GitHub\OS_Project\new - Copy\Main.nxc"
23	177	150		set __TextOutArgs.Options, 0
23	176	153	#line 176 "C:\Users\Kawtar\Documents\GitHub\OS_Project\new - Copy\Main.nxc"
23	177	153		numtostr __TextOutArgs.Text, __D0reading
23	176	156	#line 176 "C:\Users\Kawtar\Documents\GitHub\OS_Project\new - Copy\Main.nxc"
23	177	156		syscall 13, __TextOutArgs
23	176	159	#line 176 "C:\Users\Kawtar\Documents\GitHub\OS_Project\new - Copy\Main.nxc"
23	177	159		mov __D0reading, __TextOutArgs.Result
23	176	162	#line 176 "C:\Users\Kawtar\Documents\GitHub\OS_Project\new - Copy\Main.nxc"
23	177	162		release __TextOutMutex
23	176	163	#line 176 "C:\Users\Kawtar\Documents\GitHub\OS_Project\new - Copy\Main.nxc"
23	176	163	#line 176 "C:\Users\Kawtar\Documents\GitHub\OS_Project\new - Copy\Main.nxc"
23	177	163		mov __getDegreeDiff_7qG2_current_7qG2_000, currentCompass
23	176	165	#line 176 "C:\Users\Kawtar\Documents\GitHub\OS_Project\new - Copy\Main.nxc"
23	176	165	#line 176 "C:\Users\Kawtar\Documents\GitHub\OS_Project\new - Copy\Main.nxc"
23	177	165		mov __getDegreeDiff_7qG2_old_7qG2_000, ownGoal
23	176	167	#line 176 "C:\Users\Kawtar\Documents\GitHub\OS_Project\new - Copy\Main.nxc"
23	177	167	#line 177 "C:\Users\Kawtar\Documents\GitHub\OS_Project\new - Copy\Main.nxc"
23	178	167		subcall getDegreeDiff, __getDegreeDiff_return
23	177	170	#line 177 "C:\Users\Kawtar\Documents\GitHub\OS_Project\new - Copy\Main.nxc"
23	178	170		mov relBearing, __D0getDegreeDiff
23	177	172	#line 177 "C:\Users\Kawtar\Documents\GitHub\OS_Project\new - Copy\Main.nxc"
23	177	172	#line 177 "C:\Users\Kawtar\Documents\GitHub\OS_Project\new - Copy\Main.nxc"
23	177	172	#line 177 "C:\Users\Kawtar\Documents\GitHub\OS_Project\new - Copy\Main.nxc"
23	178	172		set __signed_stack_001reading, 10
23	177	175	#line 177 "C:\Users\Kawtar\Documents\GitHub\OS_Project\new - Copy\Main.nxc"
23	177	175	#line 177 "C:\Users\Kawtar\Documents\GitHub\OS_Project\new - Copy\Main.nxc"
23	178	175		set __signed_stack_002reading, 24
23	177	178	#line 177 "C:\Users\Kawtar\Documents\GitHub\OS_Project\new - Copy\Main.nxc"
23	177	178	#line 177 "C:\Users\Kawtar\Documents\GitHub\OS_Project\new - Copy\Main.nxc"
23	178	178		strcat __strbufreading, __constStr0011
23	178	182	#line 178 "C:\Users\Kawtar\Documents\GitHub\OS_Project\new - Copy\Main.nxc"
23	179	182		acquire __TextOutMutex
23	178	183	#line 178 "C:\Users\Kawtar\Documents\GitHub\OS_Project\new - Copy\Main.nxc"
23	179	183		mov __TextOutArgs.Location.X, __signed_stack_001reading
23	178	186	#line 178 "C:\Users\Kawtar\Documents\GitHub\OS_Project\new - Copy\Main.nxc"
23	179	186		mov __TextOutArgs.Location.Y, __signed_stack_002reading
23	178	189	#line 178 "C:\Users\Kawtar\Documents\GitHub\OS_Project\new - Copy\Main.nxc"
23	179	189		set __TextOutArgs.Options, 0
23	178	192	#line 178 "C:\Users\Kawtar\Documents\GitHub\OS_Project\new - Copy\Main.nxc"
23	179	192		mov __TextOutArgs.Text, __strbufreading
23	178	194	#line 178 "C:\Users\Kawtar\Documents\GitHub\OS_Project\new - Copy\Main.nxc"
23	179	194		syscall 13, __TextOutArgs
23	178	197	#line 178 "C:\Users\Kawtar\Documents\GitHub\OS_Project\new - Copy\Main.nxc"
23	179	197		mov __D0reading, __TextOutArgs.Result
23	178	200	#line 178 "C:\Users\Kawtar\Documents\GitHub\OS_Project\new - Copy\Main.nxc"
23	179	200		release __TextOutMutex
23	178	201	#line 178 "C:\Users\Kawtar\Documents\GitHub\OS_Project\new - Copy\Main.nxc"
23	178	201	#line 178 "C:\Users\Kawtar\Documents\GitHub\OS_Project\new - Copy\Main.nxc"
23	179	201		set __signed_stack_001reading, 10
23	178	204	#line 178 "C:\Users\Kawtar\Documents\GitHub\OS_Project\new - Copy\Main.nxc"
23	178	204	#line 178 "C:\Users\Kawtar\Documents\GitHub\OS_Project\new - Copy\Main.nxc"
23	179	204		set __signed_stack_002reading, 16
23	178	207	#line 178 "C:\Users\Kawtar\Documents\GitHub\OS_Project\new - Copy\Main.nxc"
23	178	207	#line 178 "C:\Users\Kawtar\Documents\GitHub\OS_Project\new - Copy\Main.nxc"
23	179	207		mov __D0reading, relBearing
23	180	209	#line 180 "C:\Users\Kawtar\Documents\GitHub\OS_Project\new - Copy\Main.nxc"
23	181	209		acquire __TextOutMutex
23	180	210	#line 180 "C:\Users\Kawtar\Documents\GitHub\OS_Project\new - Copy\Main.nxc"
23	181	210		mov __TextOutArgs.Location.X, __signed_stack_001reading
23	180	213	#line 180 "C:\Users\Kawtar\Documents\GitHub\OS_Project\new - Copy\Main.nxc"
23	181	213		mov __TextOutArgs.Location.Y, __signed_stack_002reading
23	180	216	#line 180 "C:\Users\Kawtar\Documents\GitHub\OS_Project\new - Copy\Main.nxc"
23	181	216		set __TextOutArgs.Options, 0
23	180	219	#line 180 "C:\Users\Kawtar\Documents\GitHub\OS_Project\new - Copy\Main.nxc"
23	181	219		numtostr __TextOutArgs.Text, __D0reading
23	180	222	#line 180 "C:\Users\Kawtar\Documents\GitHub\OS_Project\new - Copy\Main.nxc"
23	181	222		syscall 13, __TextOutArgs
23	180	225	#line 180 "C:\Users\Kawtar\Documents\GitHub\OS_Project\new - Copy\Main.nxc"
23	181	225		mov __D0reading, __TextOutArgs.Result
23	180	228	#line 180 "C:\Users\Kawtar\Documents\GitHub\OS_Project\new - Copy\Main.nxc"
23	181	228		release __TextOutMutex
23	180	229	#line 180 "C:\Users\Kawtar\Documents\GitHub\OS_Project\new - Copy\Main.nxc"
23	180	229	#line 180 "C:\Users\Kawtar\Documents\GitHub\OS_Project\new - Copy\Main.nxc"
23	181	229		mov __signed_stack_001reading, relBearing
23	180	231	#line 180 "C:\Users\Kawtar\Documents\GitHub\OS_Project\new - Copy\Main.nxc"
23	181	231	#line 181 "C:\Users\Kawtar\Documents\GitHub\OS_Project\new - Copy\Main.nxc"
23	182	231		set __D0reading, 75
23	181	234	#line 181 "C:\Users\Kawtar\Documents\GitHub\OS_Project\new - Copy\Main.nxc"
23	182	234		cmp 0, __zfreading, __signed_stack_001reading, __D0reading
23	181	238	#line 181 "C:\Users\Kawtar\Documents\GitHub\OS_Project\new - Copy\Main.nxc"
23	182	238		mov __D0reading, __zfreading
23	183	241	#line 183 "C:\Users\Kawtar\Documents\GitHub\OS_Project\new - Copy\Main.nxc"
23	184	241		brtst 4, __NXC_Label_700, __zfreading
23	183	244	#line 183 "C:\Users\Kawtar\Documents\GitHub\OS_Project\new - Copy\Main.nxc"
23	184	244		set __ClearSensor_7qG2_port_7qG2_000_inline_reading, 0
23	183	247	#line 183 "C:\Users\Kawtar\Documents\GitHub\OS_Project\new - Copy\Main.nxc"
23	3684	247	#line 3684 "NXCDefs.h"
23	3685	247		setin __constVal0, __ClearSensor_7qG2_port_7qG2_000_inline_reading, 4
23	3684	251	#line 3684 "NXCDefs.h"
23	184	251	#line 184 "C:\Users\Kawtar\Documents\GitHub\OS_Project\new - Copy\Main.nxc"
23	184	251	#line 184 "C:\Users\Kawtar\Documents\GitHub\OS_Project\new - Copy\Main.nxc"
23	185	251	#pragma macro 26
23	185	251		acquire __RLSBmutex0
23	185	252		mov __RLSReadBuf0, __RLSBbufLSWrite1
23	185	254		set __RLSBytesCount0, 1
23	185	257		wait2 NA, __constVal15
23	185	260		subcall __ReadLSBytes0, ____ReadLSBytes0_return
23	185	263		index __D0reading, __RLSReadBuf0, 65535
23	185	267		release __RLSBmutex0
23	6982	268	#line 6982 "C:\Users\Kawtar\Documents\GitHub\OS_Project\new - Copy\Main.nxc"
23	184	268	#line 184 "C:\Users\Kawtar\Documents\GitHub\OS_Project\new - Copy\Main.nxc"
23	185	268		mov __signed_stack_001reading, __D0reading
23	185	270	#line 185 "C:\Users\Kawtar\Documents\GitHub\OS_Project\new - Copy\Main.nxc"
23	186	270		set __D0reading, 40
23	185	273	#line 185 "C:\Users\Kawtar\Documents\GitHub\OS_Project\new - Copy\Main.nxc"
23	186	273		cmp 2, __zfreading, __signed_stack_001reading, __D0reading
23	185	277	#line 185 "C:\Users\Kawtar\Documents\GitHub\OS_Project\new - Copy\Main.nxc"
23	186	277		mov __D0reading, __zfreading
23	186	280	#line 186 "C:\Users\Kawtar\Documents\GitHub\OS_Project\new - Copy\Main.nxc"
23	187	280		brtst 4, __NXC_Label_705, __zfreading
23	186	283	#line 186 "C:\Users\Kawtar\Documents\GitHub\OS_Project\new - Copy\Main.nxc"
23	187	283		set __PlaySound_7qG2_aCode_7qG2_000, 3
23	186	286	#line 186 "C:\Users\Kawtar\Documents\GitHub\OS_Project\new - Copy\Main.nxc"
23	187	286	#line 187 "C:\Users\Kawtar\Documents\GitHub\OS_Project\new - Copy\Main.nxc"
23	188	286		subcall PlaySound, __PlaySound_return
23	187	288	#line 187 "C:\Users\Kawtar\Documents\GitHub\OS_Project\new - Copy\Main.nxc"
23	188	288	#line 188 "C:\Users\Kawtar\Documents\GitHub\OS_Project\new - Copy\Main.nxc"
23	189	288	#pragma macro 7
23	189	288		setout motors, 2, __constVal0, 1, __constVal3, 8, __constVal0, 6, __constVal32, 7, __constVal0, 5, __constVal0, 10, __constVal96, 11, __constVal32, 12, __constVal32, 0, __constVal63
23	7005	311	#line 7005 "C:\Users\Kawtar\Documents\GitHub\OS_Project\new - Copy\Main.nxc"
23	188	311	#line 188 "C:\Users\Kawtar\Documents\GitHub\OS_Project\new - Copy\Main.nxc"
23	189	311	#line 189 "C:\Users\Kawtar\Documents\GitHub\OS_Project\new - Copy\Main.nxc"
23	190	311		subcall moveTowardObj, __moveTowardObj_return
23	189	313	#line 189 "C:\Users\Kawtar\Documents\GitHub\OS_Project\new - Copy\Main.nxc"
23	190	313		mov __reading_7qG2_grab_7qG2_003, __DU0moveTowardObj
23	189	315	#line 189 "C:\Users\Kawtar\Documents\GitHub\OS_Project\new - Copy\Main.nxc"
23	190	315	#line 190 "C:\Users\Kawtar\Documents\GitHub\OS_Project\new - Copy\Main.nxc"
23	191	315		mov __DU0reading, __DU0moveTowardObj
23	191	317	#line 191 "C:\Users\Kawtar\Documents\GitHub\OS_Project\new - Copy\Main.nxc"
23	192	317		tst 5, __zfreading, __DU0reading
23	191	320	#line 191 "C:\Users\Kawtar\Documents\GitHub\OS_Project\new - Copy\Main.nxc"
23	192	320		brtst 4, __NXC_Label_712, __zfreading
23	192	323	#line 192 "C:\Users\Kawtar\Documents\GitHub\OS_Project\new - Copy\Main.nxc"
23	193	323		subcall checkandthrow, __checkandthrow_return
23	192	325	#line 192 "C:\Users\Kawtar\Documents\GitHub\OS_Project\new - Copy\Main.nxc"
23	193	325		mov __reading_7qG2_grab_7qG2_003, __DU0checkandthrow
23	192	327	#line 192 "C:\Users\Kawtar\Documents\GitHub\OS_Project\new - Copy\Main.nxc"
23	192	327	#line 192 "C:\Users\Kawtar\Documents\GitHub\OS_Project\new - Copy\Main.nxc"
23	194	327	#line 194 "C:\Users\Kawtar\Documents\GitHub\OS_Project\new - Copy\Main.nxc"
23	195	327	#line 195 "C:\Users\Kawtar\Documents\GitHub\OS_Project\new - Copy\Main.nxc"
23	195	327	#line 195 "C:\Users\Kawtar\Documents\GitHub\OS_Project\new - Copy\Main.nxc"
23	196	327		not __DU0reading, __reading_7qG2_grab_7qG2_003
23	197	330	#line 197 "C:\Users\Kawtar\Documents\GitHub\OS_Project\new - Copy\Main.nxc"
23	198	330		tst 5, __zfreading, __DU0reading
23	197	333	#line 197 "C:\Users\Kawtar\Documents\GitHub\OS_Project\new - Copy\Main.nxc"
23	198	333		brtst 4, __NXC_Label_717, __zfreading
23	197	336	#line 197 "C:\Users\Kawtar\Documents\GitHub\OS_Project\new - Copy\Main.nxc"
23	198	336		set __moveBwd_7qG2_moveTime_7qG2_000, 1000
23	197	339	#line 197 "C:\Users\Kawtar\Documents\GitHub\OS_Project\new - Copy\Main.nxc"
23	198	339	#line 198 "C:\Users\Kawtar\Documents\GitHub\OS_Project\new - Copy\Main.nxc"
23	199	339		subcall moveBwd, __moveBwd_return
23	198	341	#line 198 "C:\Users\Kawtar\Documents\GitHub\OS_Project\new - Copy\Main.nxc"
23	199	341	#line 199 "C:\Users\Kawtar\Documents\GitHub\OS_Project\new - Copy\Main.nxc"
23	200	341		mov __DU0reading, scanningRight
23	201	344	#line 201 "C:\Users\Kawtar\Documents\GitHub\OS_Project\new - Copy\Main.nxc"
23	202	344		tst 5, __zfreading, __DU0reading
23	201	347	#line 201 "C:\Users\Kawtar\Documents\GitHub\OS_Project\new - Copy\Main.nxc"
23	202	347		brtst 4, __NXC_Label_722, __zfreading
23	202	350	#line 202 "C:\Users\Kawtar\Documents\GitHub\OS_Project\new - Copy\Main.nxc"
23	203	350		subcall backtoOrigin, __backtoOrigin_return
23	202	353	#line 202 "C:\Users\Kawtar\Documents\GitHub\OS_Project\new - Copy\Main.nxc"
23	202	353	#line 202 "C:\Users\Kawtar\Documents\GitHub\OS_Project\new - Copy\Main.nxc"
23	203	353		set __moveFwd_7qG2_moveTime_7qG2_000, 1000
23	202	356	#line 202 "C:\Users\Kawtar\Documents\GitHub\OS_Project\new - Copy\Main.nxc"
23	203	356	#line 203 "C:\Users\Kawtar\Documents\GitHub\OS_Project\new - Copy\Main.nxc"
23	204	356		subcall moveFwd, __moveFwd_return
23	203	358	#line 203 "C:\Users\Kawtar\Documents\GitHub\OS_Project\new - Copy\Main.nxc"
23	206	358	#line 206 "C:\Users\Kawtar\Documents\GitHub\OS_Project\new - Copy\Main.nxc"
23	207	358	#line 207 "C:\Users\Kawtar\Documents\GitHub\OS_Project\new - Copy\Main.nxc"
23	208	358		subcall changeDirection, __changeDirection_return
23	207	360	#line 207 "C:\Users\Kawtar\Documents\GitHub\OS_Project\new - Copy\Main.nxc"
23	210	360	#line 210 "C:\Users\Kawtar\Documents\GitHub\OS_Project\new - Copy\Main.nxc"
23	211	360	#line 211 "C:\Users\Kawtar\Documents\GitHub\OS_Project\new - Copy\Main.nxc"
23	213	360	#line 213 "C:\Users\Kawtar\Documents\GitHub\OS_Project\new - Copy\Main.nxc"
23	214	360		jmp __NXC_Label_725
23	214	362	#line 214 "C:\Users\Kawtar\Documents\GitHub\OS_Project\new - Copy\Main.nxc"
23	215	362		mov __DU0reading, scanningRight
23	216	365	#line 216 "C:\Users\Kawtar\Documents\GitHub\OS_Project\new - Copy\Main.nxc"
23	217	365		tst 5, __zfreading, __DU0reading
23	216	368	#line 216 "C:\Users\Kawtar\Documents\GitHub\OS_Project\new - Copy\Main.nxc"
23	217	368		brtst 4, __NXC_Label_728, __zfreading
23	217	371	#line 217 "C:\Users\Kawtar\Documents\GitHub\OS_Project\new - Copy\Main.nxc"
23	218	371		subcall backtoOrigin, __backtoOrigin_return
23	217	374	#line 217 "C:\Users\Kawtar\Documents\GitHub\OS_Project\new - Copy\Main.nxc"
23	217	374	#line 217 "C:\Users\Kawtar\Documents\GitHub\OS_Project\new - Copy\Main.nxc"
23	218	374		set __moveFwd_7qG2_moveTime_7qG2_000, 1000
23	217	377	#line 217 "C:\Users\Kawtar\Documents\GitHub\OS_Project\new - Copy\Main.nxc"
23	218	377	#line 218 "C:\Users\Kawtar\Documents\GitHub\OS_Project\new - Copy\Main.nxc"
23	219	377		subcall moveFwd, __moveFwd_return
23	218	379	#line 218 "C:\Users\Kawtar\Documents\GitHub\OS_Project\new - Copy\Main.nxc"
23	219	379	#line 219 "C:\Users\Kawtar\Documents\GitHub\OS_Project\new - Copy\Main.nxc"
23	221	379	#line 221 "C:\Users\Kawtar\Documents\GitHub\OS_Project\new - Copy\Main.nxc"
23	222	379		subcall changeDirection, __changeDirection_return
23	221	381	#line 221 "C:\Users\Kawtar\Documents\GitHub\OS_Project\new - Copy\Main.nxc"
23	222	381	#line 222 "C:\Users\Kawtar\Documents\GitHub\OS_Project\new - Copy\Main.nxc"
23	223	381		release moveMutex
23	222	382	#line 222 "C:\Users\Kawtar\Documents\GitHub\OS_Project\new - Copy\Main.nxc"
23	222	382	#line 222 "C:\Users\Kawtar\Documents\GitHub\OS_Project\new - Copy\Main.nxc"
23	223	382		set __Wait_7qG2_ms_7qG2_000_inline_reading, 1000
23	222	385	#line 222 "C:\Users\Kawtar\Documents\GitHub\OS_Project\new - Copy\Main.nxc"
23	7921	385	#line 7921 "NXCDefs.h"
23	7922	385		wait2 NA, __Wait_7qG2_ms_7qG2_000_inline_reading
23	7921	388	#line 7921 "NXCDefs.h"
23	223	388	#line 223 "C:\Users\Kawtar\Documents\GitHub\OS_Project\new - Copy\Main.nxc"
23	224	388	#line 224 "C:\Users\Kawtar\Documents\GitHub\OS_Project\new - Copy\Main.nxc"
23	225	388		acquire moveMutex
23	224	389	#line 224 "C:\Users\Kawtar\Documents\GitHub\OS_Project\new - Copy\Main.nxc"
23	226	389	#line 226 "C:\Users\Kawtar\Documents\GitHub\OS_Project\new - Copy\Main.nxc"
23	227	389	#line 227 "C:\Users\Kawtar\Documents\GitHub\OS_Project\new - Copy\Main.nxc"
23	228	389		release moveMutex
23	227	390	#line 227 "C:\Users\Kawtar\Documents\GitHub\OS_Project\new - Copy\Main.nxc"
23	230	390	#line 230 "C:\Users\Kawtar\Documents\GitHub\OS_Project\new - Copy\Main.nxc"
23	231	390		jmp __NXC_Label_656
23	230	392	#line 230 "C:\Users\Kawtar\Documents\GitHub\OS_Project\new - Copy\Main.nxc"
23	231	392		exit -1, -1
24	232	0	#line 232 "C:\Users\Kawtar\Documents\GitHub\OS_Project\new - Copy\Main.nxc"
24	233	0		mov __signed_stack_001goToPredefined, __constValNeg40
24	232	2	#line 232 "C:\Users\Kawtar\Documents\GitHub\OS_Project\new - Copy\Main.nxc"
24	232	2	#line 232 "C:\Users\Kawtar\Documents\GitHub\OS_Project\new - Copy\Main.nxc"
24	233	2		set __D0goToPredefined, 405
24	233	5	#line 233 "C:\Users\Kawtar\Documents\GitHub\OS_Project\new - Copy\Main.nxc"
24	234	5	#pragma macro 22
24	234	5		acquire __rotateMutex0
24	234	6		acquire __rotateMutex1
24	234	7		acquire __rotateMutex2
24	234	8		arrbuild __rotate_ports6, LMotor
24	234	12		mov __rotate_power6, __signed_stack_001goToPredefined
24	234	14		mov __rotate_angle6, __D0goToPredefined
24	234	16		mov __rotate_turnpct6, __constVal0
24	234	18		mov __rotate_sync6, __constVal0
24	234	20		mov __rotate_stop6, __constVal1
24	234	22		mov __rotate_theRVP6, __constVal32
24	234	24		mov __rotate_theRVI6, __constVal0
24	234	26		mov __rotate_theRVD6, __constVal96
24	234	28		subcall __RotateMotorVar, ____RotateMotorVar_return
24	234	31		release __rotateMutex2
24	234	32		release __rotateMutex1
24	234	33		release __rotateMutex0
24	7157	34	#line 7157 "C:\Users\Kawtar\Documents\GitHub\OS_Project\new - Copy\Main.nxc"
24	233	34	#line 233 "C:\Users\Kawtar\Documents\GitHub\OS_Project\new - Copy\Main.nxc"
24	233	34	#line 233 "C:\Users\Kawtar\Documents\GitHub\OS_Project\new - Copy\Main.nxc"
24	234	34		set __signed_stack_001goToPredefined, 40
24	233	37	#line 233 "C:\Users\Kawtar\Documents\GitHub\OS_Project\new - Copy\Main.nxc"
24	233	37	#line 233 "C:\Users\Kawtar\Documents\GitHub\OS_Project\new - Copy\Main.nxc"
24	234	37		set __D0goToPredefined, 2
24	234	40	#line 234 "C:\Users\Kawtar\Documents\GitHub\OS_Project\new - Copy\Main.nxc"
24	235	40	#pragma macro 7
24	235	40		setout __OUT_AC, 2, __signed_stack_001goToPredefined, 1, __constVal7, 8, __constVal2, 7, __D0goToPredefined, 6, __constVal32, 5, __constVal0, 10, __constVal96, 11, __constVal32, 12, __constVal32, 0, __constVal63
24	7170	63	#line 7170 "C:\Users\Kawtar\Documents\GitHub\OS_Project\new - Copy\Main.nxc"
24	234	63	#line 234 "C:\Users\Kawtar\Documents\GitHub\OS_Project\new - Copy\Main.nxc"
24	234	63	#line 234 "C:\Users\Kawtar\Documents\GitHub\OS_Project\new - Copy\Main.nxc"
24	235	63	#pragma macro 26
24	235	63		acquire __RLSBmutex0
24	235	64		mov __RLSReadBuf0, __RLSBbufLSWrite1
24	235	66		set __RLSBytesCount0, 1
24	235	69		wait2 NA, __constVal15
24	235	72		subcall __ReadLSBytes0, ____ReadLSBytes0_return
24	235	75		index __D0goToPredefined, __RLSReadBuf0, 65535
24	235	79		release __RLSBmutex0
24	7174	80	#line 7174 "C:\Users\Kawtar\Documents\GitHub\OS_Project\new - Copy\Main.nxc"
24	234	80	#line 234 "C:\Users\Kawtar\Documents\GitHub\OS_Project\new - Copy\Main.nxc"
24	235	80		mov __signed_stack_001goToPredefined, __D0goToPredefined
24	234	82	#line 234 "C:\Users\Kawtar\Documents\GitHub\OS_Project\new - Copy\Main.nxc"
24	235	82		set __D0goToPredefined, 25
24	234	85	#line 234 "C:\Users\Kawtar\Documents\GitHub\OS_Project\new - Copy\Main.nxc"
24	235	85		cmp 2, __zfgoToPredefined, __signed_stack_001goToPredefined, __D0goToPredefined
24	234	89	#line 234 "C:\Users\Kawtar\Documents\GitHub\OS_Project\new - Copy\Main.nxc"
24	234	89	#line 234 "C:\Users\Kawtar\Documents\GitHub\OS_Project\new - Copy\Main.nxc"
24	235	89		not __D0goToPredefined, __zfgoToPredefined
24	235	92	#line 235 "C:\Users\Kawtar\Documents\GitHub\OS_Project\new - Copy\Main.nxc"
24	236	92		tst 5, __zfgoToPredefined, __D0goToPredefined
24	235	95	#line 235 "C:\Users\Kawtar\Documents\GitHub\OS_Project\new - Copy\Main.nxc"
24	236	95		brtst 4, __NXC_Label_742, __zfgoToPredefined
24	235	98	#line 235 "C:\Users\Kawtar\Documents\GitHub\OS_Project\new - Copy\Main.nxc"
24	235	98	#line 235 "C:\Users\Kawtar\Documents\GitHub\OS_Project\new - Copy\Main.nxc"
24	236	98		jmp __NXC_Label_741
24	235	100	#line 235 "C:\Users\Kawtar\Documents\GitHub\OS_Project\new - Copy\Main.nxc"
24	236	100	#line 236 "C:\Users\Kawtar\Documents\GitHub\OS_Project\new - Copy\Main.nxc"
24	237	100	#pragma macro 7
24	237	100		setout motors, 2, __constVal0, 1, __constVal3, 8, __constVal0, 6, __constVal32, 7, __constVal0, 5, __constVal0, 10, __constVal96, 11, __constVal32, 12, __constVal32, 0, __constVal63
24	7199	123	#line 7199 "C:\Users\Kawtar\Documents\GitHub\OS_Project\new - Copy\Main.nxc"
24	236	123	#line 236 "C:\Users\Kawtar\Documents\GitHub\OS_Project\new - Copy\Main.nxc"
24	236	123	#line 236 "C:\Users\Kawtar\Documents\GitHub\OS_Project\new - Copy\Main.nxc"
24	237	123		set __signed_stack_001goToPredefined, 40
24	236	126	#line 236 "C:\Users\Kawtar\Documents\GitHub\OS_Project\new - Copy\Main.nxc"
24	236	126	#line 236 "C:\Users\Kawtar\Documents\GitHub\OS_Project\new - Copy\Main.nxc"
24	237	126		set __D0goToPredefined, 405
24	237	129	#line 237 "C:\Users\Kawtar\Documents\GitHub\OS_Project\new - Copy\Main.nxc"
24	238	129	#pragma macro 22
24	238	129		acquire __rotateMutex0
24	238	130		acquire __rotateMutex1
24	238	131		acquire __rotateMutex2
24	238	132		arrbuild __rotate_ports6, LMotor
24	238	136		mov __rotate_power6, __signed_stack_001goToPredefined
24	238	138		mov __rotate_angle6, __D0goToPredefined
24	238	140		mov __rotate_turnpct6, __constVal0
24	238	142		mov __rotate_sync6, __constVal0
24	238	144		mov __rotate_stop6, __constVal1
24	238	146		mov __rotate_theRVP6, __constVal32
24	238	148		mov __rotate_theRVI6, __constVal0
24	238	150		mov __rotate_theRVD6, __constVal96
24	238	152		subcall __RotateMotorVar, ____RotateMotorVar_return
24	238	155		release __rotateMutex2
24	238	156		release __rotateMutex1
24	238	157		release __rotateMutex0
24	7212	158	#line 7212 "C:\Users\Kawtar\Documents\GitHub\OS_Project\new - Copy\Main.nxc"
24	237	158	#line 237 "C:\Users\Kawtar\Documents\GitHub\OS_Project\new - Copy\Main.nxc"
24	238	158	#line 238 "C:\Users\Kawtar\Documents\GitHub\OS_Project\new - Copy\Main.nxc"
24	239	158	#pragma macro 7
24	239	158		setout motors, 2, __constVal0, 1, __constVal3, 8, __constVal0, 6, __constVal32, 7, __constVal0, 5, __constVal0, 10, __constVal96, 11, __constVal32, 12, __constVal32, 0, __constVal63
24	7215	181	#line 7215 "C:\Users\Kawtar\Documents\GitHub\OS_Project\new - Copy\Main.nxc"
24	238	181	#line 238 "C:\Users\Kawtar\Documents\GitHub\OS_Project\new - Copy\Main.nxc"
24	238	181	#line 238 "C:\Users\Kawtar\Documents\GitHub\OS_Project\new - Copy\Main.nxc"
24	239	181		set __signed_stack_001goToPredefined, 40
24	238	184	#line 238 "C:\Users\Kawtar\Documents\GitHub\OS_Project\new - Copy\Main.nxc"
24	238	184	#line 238 "C:\Users\Kawtar\Documents\GitHub\OS_Project\new - Copy\Main.nxc"
24	239	184		set __D0goToPredefined, 2
24	239	187	#line 239 "C:\Users\Kawtar\Documents\GitHub\OS_Project\new - Copy\Main.nxc"
24	240	187	#pragma macro 7
24	240	187		setout __OUT_AC, 2, __signed_stack_001goToPredefined, 1, __constVal7, 8, __constVal2, 7, __D0goToPredefined, 6, __constVal32, 5, __constVal0, 10, __constVal96, 11, __constVal32, 12, __constVal32, 0, __constVal63
24	7228	210	#line 7228 "C:\Users\Kawtar\Documents\GitHub\OS_Project\new - Copy\Main.nxc"
24	239	210	#line 239 "C:\Users\Kawtar\Documents\GitHub\OS_Project\new - Copy\Main.nxc"
24	239	210	#line 239 "C:\Users\Kawtar\Documents\GitHub\OS_Project\new - Copy\Main.nxc"
24	240	210	#pragma macro 26
24	240	210		acquire __RLSBmutex0
24	240	211		mov __RLSReadBuf0, __RLSBbufLSWrite1
24	240	213		set __RLSBytesCount0, 1
24	240	216		wait2 NA, __constVal15
24	240	219		subcall __ReadLSBytes0, ____ReadLSBytes0_return
24	240	222		index __D0goToPredefined, __RLSReadBuf0, 65535
24	240	226		release __RLSBmutex0
24	7232	227	#line 7232 "C:\Users\Kawtar\Documents\GitHub\OS_Project\new - Copy\Main.nxc"
24	239	227	#line 239 "C:\Users\Kawtar\Documents\GitHub\OS_Project\new - Copy\Main.nxc"
24	240	227		mov __signed_stack_001goToPredefined, __D0goToPredefined
24	239	229	#line 239 "C:\Users\Kawtar\Documents\GitHub\OS_Project\new - Copy\Main.nxc"
24	240	229		set __D0goToPredefined, 7
24	239	232	#line 239 "C:\Users\Kawtar\Documents\GitHub\OS_Project\new - Copy\Main.nxc"
24	240	232		cmp 2, __zfgoToPredefined, __signed_stack_001goToPredefined, __D0goToPredefined
24	239	236	#line 239 "C:\Users\Kawtar\Documents\GitHub\OS_Project\new - Copy\Main.nxc"
24	239	236	#line 239 "C:\Users\Kawtar\Documents\GitHub\OS_Project\new - Copy\Main.nxc"
24	240	236		not __D0goToPredefined, __zfgoToPredefined
24	240	239	#line 240 "C:\Users\Kawtar\Documents\GitHub\OS_Project\new - Copy\Main.nxc"
24	241	239		tst 5, __zfgoToPredefined, __D0goToPredefined
24	240	242	#line 240 "C:\Users\Kawtar\Documents\GitHub\OS_Project\new - Copy\Main.nxc"
24	241	242		brtst 4, __NXC_Label_756, __zfgoToPredefined
24	240	245	#line 240 "C:\Users\Kawtar\Documents\GitHub\OS_Project\new - Copy\Main.nxc"
24	240	245	#line 240 "C:\Users\Kawtar\Documents\GitHub\OS_Project\new - Copy\Main.nxc"
24	241	245		jmp __NXC_Label_755
24	240	247	#line 240 "C:\Users\Kawtar\Documents\GitHub\OS_Project\new - Copy\Main.nxc"
24	241	247	#line 241 "C:\Users\Kawtar\Documents\GitHub\OS_Project\new - Copy\Main.nxc"
24	242	247	#pragma macro 7
24	242	247		setout motors, 2, __constVal0, 1, __constVal3, 8, __constVal0, 6, __constVal32, 7, __constVal0, 5, __constVal0, 10, __constVal96, 11, __constVal32, 12, __constVal32, 0, __constVal63
24	7257	270	#line 7257 "C:\Users\Kawtar\Documents\GitHub\OS_Project\new - Copy\Main.nxc"
24	241	270	#line 241 "C:\Users\Kawtar\Documents\GitHub\OS_Project\new - Copy\Main.nxc"
24	243	270	#line 243 "C:\Users\Kawtar\Documents\GitHub\OS_Project\new - Copy\Main.nxc"
24	244	270		subcall checkandthrow, __checkandthrow_return
24	243	272	#line 243 "C:\Users\Kawtar\Documents\GitHub\OS_Project\new - Copy\Main.nxc"
24	244	272		mov __DU0goToPredefined, __DU0checkandthrow
24	243	274	#line 243 "C:\Users\Kawtar\Documents\GitHub\OS_Project\new - Copy\Main.nxc"
24	244	274	#line 244 "C:\Users\Kawtar\Documents\GitHub\OS_Project\new - Copy\Main.nxc"
24	245	274	#pragma macro 7
24	245	274		setout motors, 2, __constVal0, 1, __constVal3, 8, __constVal0, 6, __constVal32, 7, __constVal0, 5, __constVal0, 10, __constVal96, 11, __constVal32, 12, __constVal32, 0, __constVal63
24	7265	297	#line 7265 "C:\Users\Kawtar\Documents\GitHub\OS_Project\new - Copy\Main.nxc"
24	244	297	#line 244 "C:\Users\Kawtar\Documents\GitHub\OS_Project\new - Copy\Main.nxc"
24	244	297	#line 244 "C:\Users\Kawtar\Documents\GitHub\OS_Project\new - Copy\Main.nxc"
24	245	297		set __Wait_7qG2_ms_7qG2_000_inline_goToPredefined, 500
24	244	300	#line 244 "C:\Users\Kawtar\Documents\GitHub\OS_Project\new - Copy\Main.nxc"
24	7921	300	#line 7921 "NXCDefs.h"
24	7922	300		wait2 NA, __Wait_7qG2_ms_7qG2_000_inline_goToPredefined
24	7921	303	#line 7921 "NXCDefs.h"
24	245	303	#line 245 "C:\Users\Kawtar\Documents\GitHub\OS_Project\new - Copy\Main.nxc"
24	245	303	#line 245 "C:\Users\Kawtar\Documents\GitHub\OS_Project\new - Copy\Main.nxc"
24	246	303		set __signed_stack_001goToPredefined, 40
24	245	306	#line 245 "C:\Users\Kawtar\Documents\GitHub\OS_Project\new - Copy\Main.nxc"
24	245	306	#line 245 "C:\Users\Kawtar\Documents\GitHub\OS_Project\new - Copy\Main.nxc"
24	246	306		set __D0goToPredefined, 2
24	246	309	#line 246 "C:\Users\Kawtar\Documents\GitHub\OS_Project\new - Copy\Main.nxc"
24	247	309	#pragma macro 10
24	247	309		acquire __OnRevMutex
24	247	310		neg __OnRev_Tmp, __signed_stack_001goToPredefined
24	247	313		setout __OUT_AC, 2, __OnRev_Tmp, 1, __constVal7, 8, __constVal2, 7, __D0goToPredefined, 6, __constVal32, 5, __constVal0, 10, __constVal96, 11, __constVal32, 12, __constVal32, 0, __constVal63
24	247	336		release __OnRevMutex
24	7292	337	#line 7292 "C:\Users\Kawtar\Documents\GitHub\OS_Project\new - Copy\Main.nxc"
24	246	337	#line 246 "C:\Users\Kawtar\Documents\GitHub\OS_Project\new - Copy\Main.nxc"
24	246	337	#line 246 "C:\Users\Kawtar\Documents\GitHub\OS_Project\new - Copy\Main.nxc"
24	247	337		set __Wait_7qG2_ms_7qG2_000_inline_goToPredefined, 8000
24	246	340	#line 246 "C:\Users\Kawtar\Documents\GitHub\OS_Project\new - Copy\Main.nxc"
24	7921	340	#line 7921 "NXCDefs.h"
24	7922	340		wait2 NA, __Wait_7qG2_ms_7qG2_000_inline_goToPredefined
24	7921	343	#line 7921 "NXCDefs.h"
24	247	343	#line 247 "C:\Users\Kawtar\Documents\GitHub\OS_Project\new - Copy\Main.nxc"
24	250	343	#line 250 "C:\Users\Kawtar\Documents\GitHub\OS_Project\new - Copy\Main.nxc"
24	251	343	#pragma macro 7
24	251	343		setout motors, 2, __constVal0, 1, __constVal3, 8, __constVal0, 6, __constVal32, 7, __constVal0, 5, __constVal0, 10, __constVal96, 11, __constVal32, 12, __constVal32, 0, __constVal63
24	7305	366	#line 7305 "C:\Users\Kawtar\Documents\GitHub\OS_Project\new - Copy\Main.nxc"
24	250	366	#line 250 "C:\Users\Kawtar\Documents\GitHub\OS_Project\new - Copy\Main.nxc"
24	250	366	#line 250 "C:\Users\Kawtar\Documents\GitHub\OS_Project\new - Copy\Main.nxc"
24	251	366		set __signed_stack_001goToPredefined, 40
24	250	369	#line 250 "C:\Users\Kawtar\Documents\GitHub\OS_Project\new - Copy\Main.nxc"
24	250	369	#line 250 "C:\Users\Kawtar\Documents\GitHub\OS_Project\new - Copy\Main.nxc"
24	251	369		set __D0goToPredefined, 405
24	251	372	#line 251 "C:\Users\Kawtar\Documents\GitHub\OS_Project\new - Copy\Main.nxc"
24	252	372	#pragma macro 22
24	252	372		acquire __rotateMutex0
24	252	373		acquire __rotateMutex1
24	252	374		acquire __rotateMutex2
24	252	375		arrbuild __rotate_ports6, LMotor
24	252	379		mov __rotate_power6, __signed_stack_001goToPredefined
24	252	381		mov __rotate_angle6, __D0goToPredefined
24	252	383		mov __rotate_turnpct6, __constVal0
24	252	385		mov __rotate_sync6, __constVal0
24	252	387		mov __rotate_stop6, __constVal1
24	252	389		mov __rotate_theRVP6, __constVal32
24	252	391		mov __rotate_theRVI6, __constVal0
24	252	393		mov __rotate_theRVD6, __constVal96
24	252	395		subcall __RotateMotorVar, ____RotateMotorVar_return
24	252	398		release __rotateMutex2
24	252	399		release __rotateMutex1
24	252	400		release __rotateMutex0
24	7318	401	#line 7318 "C:\Users\Kawtar\Documents\GitHub\OS_Project\new - Copy\Main.nxc"
24	251	401	#line 251 "C:\Users\Kawtar\Documents\GitHub\OS_Project\new - Copy\Main.nxc"
24	251	401	#line 251 "C:\Users\Kawtar\Documents\GitHub\OS_Project\new - Copy\Main.nxc"
24	252	401		set __signed_stack_001goToPredefined, 40
24	251	404	#line 251 "C:\Users\Kawtar\Documents\GitHub\OS_Project\new - Copy\Main.nxc"
24	251	404	#line 251 "C:\Users\Kawtar\Documents\GitHub\OS_Project\new - Copy\Main.nxc"
24	252	404		set __D0goToPredefined, 2
24	252	407	#line 252 "C:\Users\Kawtar\Documents\GitHub\OS_Project\new - Copy\Main.nxc"
24	253	407	#pragma macro 7
24	253	407		setout __OUT_AC, 2, __signed_stack_001goToPredefined, 1, __constVal7, 8, __constVal2, 7, __D0goToPredefined, 6, __constVal32, 5, __constVal0, 10, __constVal96, 11, __constVal32, 12, __constVal32, 0, __constVal63
24	7331	430	#line 7331 "C:\Users\Kawtar\Documents\GitHub\OS_Project\new - Copy\Main.nxc"
24	252	430	#line 252 "C:\Users\Kawtar\Documents\GitHub\OS_Project\new - Copy\Main.nxc"
24	252	430	#line 252 "C:\Users\Kawtar\Documents\GitHub\OS_Project\new - Copy\Main.nxc"
24	253	430	#pragma macro 26
24	253	430		acquire __RLSBmutex0
24	253	431		mov __RLSReadBuf0, __RLSBbufLSWrite1
24	253	433		set __RLSBytesCount0, 1
24	253	436		wait2 NA, __constVal15
24	253	439		subcall __ReadLSBytes0, ____ReadLSBytes0_return
24	253	442		index __D0goToPredefined, __RLSReadBuf0, 65535
24	253	446		release __RLSBmutex0
24	7335	447	#line 7335 "C:\Users\Kawtar\Documents\GitHub\OS_Project\new - Copy\Main.nxc"
24	252	447	#line 252 "C:\Users\Kawtar\Documents\GitHub\OS_Project\new - Copy\Main.nxc"
24	253	447		mov __signed_stack_001goToPredefined, __D0goToPredefined
24	252	449	#line 252 "C:\Users\Kawtar\Documents\GitHub\OS_Project\new - Copy\Main.nxc"
24	253	449		set __D0goToPredefined, 25
24	252	452	#line 252 "C:\Users\Kawtar\Documents\GitHub\OS_Project\new - Copy\Main.nxc"
24	253	452		cmp 2, __zfgoToPredefined, __signed_stack_001goToPredefined, __D0goToPredefined
24	252	456	#line 252 "C:\Users\Kawtar\Documents\GitHub\OS_Project\new - Copy\Main.nxc"
24	252	456	#line 252 "C:\Users\Kawtar\Documents\GitHub\OS_Project\new - Copy\Main.nxc"
24	253	456		not __D0goToPredefined, __zfgoToPredefined
24	253	459	#line 253 "C:\Users\Kawtar\Documents\GitHub\OS_Project\new - Copy\Main.nxc"
24	254	459		tst 5, __zfgoToPredefined, __D0goToPredefined
24	253	462	#line 253 "C:\Users\Kawtar\Documents\GitHub\OS_Project\new - Copy\Main.nxc"
24	254	462		brtst 4, __NXC_Label_778, __zfgoToPredefined
24	253	465	#line 253 "C:\Users\Kawtar\Documents\GitHub\OS_Project\new - Copy\Main.nxc"
24	253	465	#line 253 "C:\Users\Kawtar\Documents\GitHub\OS_Project\new - Copy\Main.nxc"
24	254	465		jmp __NXC_Label_777
24	253	467	#line 253 "C:\Users\Kawtar\Documents\GitHub\OS_Project\new - Copy\Main.nxc"
24	254	467	#line 254 "C:\Users\Kawtar\Documents\GitHub\OS_Project\new - Copy\Main.nxc"
24	255	467	#pragma macro 7
24	255	467		setout motors, 2, __constVal0, 1, __constVal3, 8, __constVal0, 6, __constVal32, 7, __constVal0, 5, __constVal0, 10, __constVal96, 11, __constVal32, 12, __constVal32, 0, __constVal63
24	7360	490	#line 7360 "C:\Users\Kawtar\Documents\GitHub\OS_Project\new - Copy\Main.nxc"
24	254	490	#line 254 "C:\Users\Kawtar\Documents\GitHub\OS_Project\new - Copy\Main.nxc"
24	254	490	#line 254 "C:\Users\Kawtar\Documents\GitHub\OS_Project\new - Copy\Main.nxc"
24	255	490		set __signed_stack_001goToPredefined, 40
24	254	493	#line 254 "C:\Users\Kawtar\Documents\GitHub\OS_Project\new - Copy\Main.nxc"
24	254	493	#line 254 "C:\Users\Kawtar\Documents\GitHub\OS_Project\new - Copy\Main.nxc"
24	255	493		set __D0goToPredefined, 405
24	255	496	#line 255 "C:\Users\Kawtar\Documents\GitHub\OS_Project\new - Copy\Main.nxc"
24	256	496	#pragma macro 22
24	256	496		acquire __rotateMutex0
24	256	497		acquire __rotateMutex1
24	256	498		acquire __rotateMutex2
24	256	499		arrbuild __rotate_ports6, RMotor
24	256	503		mov __rotate_power6, __signed_stack_001goToPredefined
24	256	505		mov __rotate_angle6, __D0goToPredefined
24	256	507		mov __rotate_turnpct6, __constVal0
24	256	509		mov __rotate_sync6, __constVal0
24	256	511		mov __rotate_stop6, __constVal1
24	256	513		mov __rotate_theRVP6, __constVal32
24	256	515		mov __rotate_theRVI6, __constVal0
24	256	517		mov __rotate_theRVD6, __constVal96
24	256	519		subcall __RotateMotorVar, ____RotateMotorVar_return
24	256	522		release __rotateMutex2
24	256	523		release __rotateMutex1
24	256	524		release __rotateMutex0
24	7373	525	#line 7373 "C:\Users\Kawtar\Documents\GitHub\OS_Project\new - Copy\Main.nxc"
24	255	525	#line 255 "C:\Users\Kawtar\Documents\GitHub\OS_Project\new - Copy\Main.nxc"
24	256	525	#line 256 "C:\Users\Kawtar\Documents\GitHub\OS_Project\new - Copy\Main.nxc"
24	257	525	#pragma macro 7
24	257	525		setout motors, 2, __constVal0, 1, __constVal3, 8, __constVal0, 6, __constVal32, 7, __constVal0, 5, __constVal0, 10, __constVal96, 11, __constVal32, 12, __constVal32, 0, __constVal63
24	7376	548	#line 7376 "C:\Users\Kawtar\Documents\GitHub\OS_Project\new - Copy\Main.nxc"
24	256	548	#line 256 "C:\Users\Kawtar\Documents\GitHub\OS_Project\new - Copy\Main.nxc"
24	256	548	#line 256 "C:\Users\Kawtar\Documents\GitHub\OS_Project\new - Copy\Main.nxc"
24	257	548		set __signed_stack_001goToPredefined, 40
24	256	551	#line 256 "C:\Users\Kawtar\Documents\GitHub\OS_Project\new - Copy\Main.nxc"
24	256	551	#line 256 "C:\Users\Kawtar\Documents\GitHub\OS_Project\new - Copy\Main.nxc"
24	257	551		set __D0goToPredefined, 2
24	257	554	#line 257 "C:\Users\Kawtar\Documents\GitHub\OS_Project\new - Copy\Main.nxc"
24	258	554	#pragma macro 7
24	258	554		setout __OUT_AC, 2, __signed_stack_001goToPredefined, 1, __constVal7, 8, __constVal2, 7, __D0goToPredefined, 6, __constVal32, 5, __constVal0, 10, __constVal96, 11, __constVal32, 12, __constVal32, 0, __constVal63
24	7389	577	#line 7389 "C:\Users\Kawtar\Documents\GitHub\OS_Project\new - Copy\Main.nxc"
24	257	577	#line 257 "C:\Users\Kawtar\Documents\GitHub\OS_Project\new - Copy\Main.nxc"
24	257	577	#line 257 "C:\Users\Kawtar\Documents\GitHub\OS_Project\new - Copy\Main.nxc"
24	258	577	#pragma macro 26
24	258	577		acquire __RLSBmutex0
24	258	578		mov __RLSReadBuf0, __RLSBbufLSWrite1
24	258	580		set __RLSBytesCount0, 1
24	258	583		wait2 NA, __constVal15
24	258	586		subcall __ReadLSBytes0, ____ReadLSBytes0_return
24	258	589		index __D0goToPredefined, __RLSReadBuf0, 65535
24	258	593		release __RLSBmutex0
24	7393	594	#line 7393 "C:\Users\Kawtar\Documents\GitHub\OS_Project\new - Copy\Main.nxc"
24	257	594	#line 257 "C:\Users\Kawtar\Documents\GitHub\OS_Project\new - Copy\Main.nxc"
24	258	594		mov __signed_stack_001goToPredefined, __D0goToPredefined
24	257	596	#line 257 "C:\Users\Kawtar\Documents\GitHub\OS_Project\new - Copy\Main.nxc"
24	258	596		set __D0goToPredefined, 7
24	257	599	#line 257 "C:\Users\Kawtar\Documents\GitHub\OS_Project\new - Copy\Main.nxc"
24	258	599		cmp 2, __zfgoToPredefined, __signed_stack_001goToPredefined, __D0goToPredefined
24	257	603	#line 257 "C:\Users\Kawtar\Documents\GitHub\OS_Project\new - Copy\Main.nxc"
24	257	603	#line 257 "C:\Users\Kawtar\Documents\GitHub\OS_Project\new - Copy\Main.nxc"
24	258	603		not __D0goToPredefined, __zfgoToPredefined
24	258	606	#line 258 "C:\Users\Kawtar\Documents\GitHub\OS_Project\new - Copy\Main.nxc"
24	259	606		tst 5, __zfgoToPredefined, __D0goToPredefined
24	258	609	#line 258 "C:\Users\Kawtar\Documents\GitHub\OS_Project\new - Copy\Main.nxc"
24	259	609		brtst 4, __NXC_Label_792, __zfgoToPredefined
24	258	612	#line 258 "C:\Users\Kawtar\Documents\GitHub\OS_Project\new - Copy\Main.nxc"
24	258	612	#line 258 "C:\Users\Kawtar\Documents\GitHub\OS_Project\new - Copy\Main.nxc"
24	259	612		jmp __NXC_Label_791
24	258	614	#line 258 "C:\Users\Kawtar\Documents\GitHub\OS_Project\new - Copy\Main.nxc"
24	259	614	#line 259 "C:\Users\Kawtar\Documents\GitHub\OS_Project\new - Copy\Main.nxc"
24	260	614	#pragma macro 7
24	260	614		setout motors, 2, __constVal0, 1, __constVal3, 8, __constVal0, 6, __constVal32, 7, __constVal0, 5, __constVal0, 10, __constVal96, 11, __constVal32, 12, __constVal32, 0, __constVal63
24	7418	637	#line 7418 "C:\Users\Kawtar\Documents\GitHub\OS_Project\new - Copy\Main.nxc"
24	259	637	#line 259 "C:\Users\Kawtar\Documents\GitHub\OS_Project\new - Copy\Main.nxc"
24	263	637	#line 263 "C:\Users\Kawtar\Documents\GitHub\OS_Project\new - Copy\Main.nxc"
24	264	637		subcall checkandthrow, __checkandthrow_return
24	263	639	#line 263 "C:\Users\Kawtar\Documents\GitHub\OS_Project\new - Copy\Main.nxc"
24	264	639		mov __DU0goToPredefined, __DU0checkandthrow
24	263	641	#line 263 "C:\Users\Kawtar\Documents\GitHub\OS_Project\new - Copy\Main.nxc"
24	264	641	#line 264 "C:\Users\Kawtar\Documents\GitHub\OS_Project\new - Copy\Main.nxc"
24	265	641		subret __goToPredefined_return
25	267	0	#line 267 "C:\Users\Kawtar\Documents\GitHub\OS_Project\new - Copy\Main.nxc"
25	268	0		set __D0scanningArenaLeft, 1
25	268	3	#line 268 "C:\Users\Kawtar\Documents\GitHub\OS_Project\new - Copy\Main.nxc"
25	269	3		tst 5, __zfscanningArenaLeft, __D0scanningArenaLeft
25	268	6	#line 268 "C:\Users\Kawtar\Documents\GitHub\OS_Project\new - Copy\Main.nxc"
25	269	6		brtst 4, __NXC_Label_798, __zfscanningArenaLeft
25	268	9	#line 268 "C:\Users\Kawtar\Documents\GitHub\OS_Project\new - Copy\Main.nxc"
25	268	9	#line 268 "C:\Users\Kawtar\Documents\GitHub\OS_Project\new - Copy\Main.nxc"
25	269	9		not __DU0scanningArenaLeft, scanningLeft
25	269	12	#line 269 "C:\Users\Kawtar\Documents\GitHub\OS_Project\new - Copy\Main.nxc"
25	270	12		tst 5, __zfscanningArenaLeft, __DU0scanningArenaLeft
25	269	15	#line 269 "C:\Users\Kawtar\Documents\GitHub\OS_Project\new - Copy\Main.nxc"
25	270	15		brtst 4, __NXC_Label_802, __zfscanningArenaLeft
25	269	18	#line 269 "C:\Users\Kawtar\Documents\GitHub\OS_Project\new - Copy\Main.nxc"
25	269	18	#line 269 "C:\Users\Kawtar\Documents\GitHub\OS_Project\new - Copy\Main.nxc"
25	270	18		jmp __NXC_Label_801
25	269	20	#line 269 "C:\Users\Kawtar\Documents\GitHub\OS_Project\new - Copy\Main.nxc"
25	271	20	#line 271 "C:\Users\Kawtar\Documents\GitHub\OS_Project\new - Copy\Main.nxc"
25	272	20		acquire moveMutex
25	271	21	#line 271 "C:\Users\Kawtar\Documents\GitHub\OS_Project\new - Copy\Main.nxc"
25	271	21	#line 271 "C:\Users\Kawtar\Documents\GitHub\OS_Project\new - Copy\Main.nxc"
25	272	21		set __D0scanningArenaLeft, 25
25	272	24	#line 272 "C:\Users\Kawtar\Documents\GitHub\OS_Project\new - Copy\Main.nxc"
25	273	24	#pragma macro 10
25	273	24		acquire __OnRevMutex
25	273	25		neg __OnRev_Tmp, __D0scanningArenaLeft
25	273	28		setout LMotor, 2, __OnRev_Tmp, 1, __constVal3, 8, __constVal0, 6, __constVal32, 7, __constVal0, 5, __constVal0, 10, __constVal96, 11, __constVal32, 12, __constVal32, 0, __constVal63
25	273	51		release __OnRevMutex
25	7465	52	#line 7465 "C:\Users\Kawtar\Documents\GitHub\OS_Project\new - Copy\Main.nxc"
25	272	52	#line 272 "C:\Users\Kawtar\Documents\GitHub\OS_Project\new - Copy\Main.nxc"
25	272	52	#line 272 "C:\Users\Kawtar\Documents\GitHub\OS_Project\new - Copy\Main.nxc"
25	273	52		set __D0scanningArenaLeft, 25
25	273	55	#line 273 "C:\Users\Kawtar\Documents\GitHub\OS_Project\new - Copy\Main.nxc"
25	274	55	#pragma macro 7
25	274	55		setout RMotor, 2, __D0scanningArenaLeft, 1, __constVal3, 8, __constVal0, 6, __constVal32, 7, __constVal0, 5, __constVal0, 10, __constVal96, 11, __constVal32, 12, __constVal32, 0, __constVal63
25	7472	78	#line 7472 "C:\Users\Kawtar\Documents\GitHub\OS_Project\new - Copy\Main.nxc"
25	273	78	#line 273 "C:\Users\Kawtar\Documents\GitHub\OS_Project\new - Copy\Main.nxc"
25	273	78	#line 273 "C:\Users\Kawtar\Documents\GitHub\OS_Project\new - Copy\Main.nxc"
25	274	78		set __Wait_7qG2_ms_7qG2_000_inline_scanningArenaLeft, 100
25	273	81	#line 273 "C:\Users\Kawtar\Documents\GitHub\OS_Project\new - Copy\Main.nxc"
25	7921	81	#line 7921 "NXCDefs.h"
25	7922	81		wait2 NA, __Wait_7qG2_ms_7qG2_000_inline_scanningArenaLeft
25	7921	84	#line 7921 "NXCDefs.h"
25	275	84	#line 275 "C:\Users\Kawtar\Documents\GitHub\OS_Project\new - Copy\Main.nxc"
25	276	84	#line 276 "C:\Users\Kawtar\Documents\GitHub\OS_Project\new - Copy\Main.nxc"
25	277	84		release moveMutex
25	276	85	#line 276 "C:\Users\Kawtar\Documents\GitHub\OS_Project\new - Copy\Main.nxc"
25	279	85	#line 279 "C:\Users\Kawtar\Documents\GitHub\OS_Project\new - Copy\Main.nxc"
25	280	85		jmp __NXC_Label_797
25	279	87	#line 279 "C:\Users\Kawtar\Documents\GitHub\OS_Project\new - Copy\Main.nxc"
25	280	87		exit -1, -1
26	282	0	#line 282 "C:\Users\Kawtar\Documents\GitHub\OS_Project\new - Copy\Main.nxc"
26	283	0		set __D0scanningArenaRight, 1
26	283	3	#line 283 "C:\Users\Kawtar\Documents\GitHub\OS_Project\new - Copy\Main.nxc"
26	284	3		tst 5, __zfscanningArenaRight, __D0scanningArenaRight
26	283	6	#line 283 "C:\Users\Kawtar\Documents\GitHub\OS_Project\new - Copy\Main.nxc"
26	284	6		brtst 4, __NXC_Label_814, __zfscanningArenaRight
26	283	9	#line 283 "C:\Users\Kawtar\Documents\GitHub\OS_Project\new - Copy\Main.nxc"
26	283	9	#line 283 "C:\Users\Kawtar\Documents\GitHub\OS_Project\new - Copy\Main.nxc"
26	284	9		not __DU0scanningArenaRight, scanningRight
26	284	12	#line 284 "C:\Users\Kawtar\Documents\GitHub\OS_Project\new - Copy\Main.nxc"
26	285	12		tst 5, __zfscanningArenaRight, __DU0scanningArenaRight
26	284	15	#line 284 "C:\Users\Kawtar\Documents\GitHub\OS_Project\new - Copy\Main.nxc"
26	285	15		brtst 4, __NXC_Label_818, __zfscanningArenaRight
26	284	18	#line 284 "C:\Users\Kawtar\Documents\GitHub\OS_Project\new - Copy\Main.nxc"
26	284	18	#line 284 "C:\Users\Kawtar\Documents\GitHub\OS_Project\new - Copy\Main.nxc"
26	285	18		jmp __NXC_Label_817
26	284	20	#line 284 "C:\Users\Kawtar\Documents\GitHub\OS_Project\new - Copy\Main.nxc"
26	286	20	#line 286 "C:\Users\Kawtar\Documents\GitHub\OS_Project\new - Copy\Main.nxc"
26	287	20		acquire moveMutex
26	286	21	#line 286 "C:\Users\Kawtar\Documents\GitHub\OS_Project\new - Copy\Main.nxc"
26	286	21	#line 286 "C:\Users\Kawtar\Documents\GitHub\OS_Project\new - Copy\Main.nxc"
26	287	21		set __D0scanningArenaRight, 25
26	287	24	#line 287 "C:\Users\Kawtar\Documents\GitHub\OS_Project\new - Copy\Main.nxc"
26	288	24	#pragma macro 10
26	288	24		acquire __OnRevMutex
26	288	25		neg __OnRev_Tmp, __D0scanningArenaRight
26	288	28		setout RMotor, 2, __OnRev_Tmp, 1, __constVal3, 8, __constVal0, 6, __constVal32, 7, __constVal0, 5, __constVal0, 10, __constVal96, 11, __constVal32, 12, __constVal32, 0, __constVal63
26	288	51		release __OnRevMutex
26	7533	52	#line 7533 "C:\Users\Kawtar\Documents\GitHub\OS_Project\new - Copy\Main.nxc"
26	287	52	#line 287 "C:\Users\Kawtar\Documents\GitHub\OS_Project\new - Copy\Main.nxc"
26	287	52	#line 287 "C:\Users\Kawtar\Documents\GitHub\OS_Project\new - Copy\Main.nxc"
26	288	52		set __D0scanningArenaRight, 25
26	288	55	#line 288 "C:\Users\Kawtar\Documents\GitHub\OS_Project\new - Copy\Main.nxc"
26	289	55	#pragma macro 7
26	289	55		setout LMotor, 2, __D0scanningArenaRight, 1, __constVal3, 8, __constVal0, 6, __constVal32, 7, __constVal0, 5, __constVal0, 10, __constVal96, 11, __constVal32, 12, __constVal32, 0, __constVal63
26	7540	78	#line 7540 "C:\Users\Kawtar\Documents\GitHub\OS_Project\new - Copy\Main.nxc"
26	288	78	#line 288 "C:\Users\Kawtar\Documents\GitHub\OS_Project\new - Copy\Main.nxc"
26	288	78	#line 288 "C:\Users\Kawtar\Documents\GitHub\OS_Project\new - Copy\Main.nxc"
26	289	78		set __Wait_7qG2_ms_7qG2_000_inline_scanningArenaRight, 100
26	288	81	#line 288 "C:\Users\Kawtar\Documents\GitHub\OS_Project\new - Copy\Main.nxc"
26	7921	81	#line 7921 "NXCDefs.h"
26	7922	81		wait2 NA, __Wait_7qG2_ms_7qG2_000_inline_scanningArenaRight
26	7921	84	#line 7921 "NXCDefs.h"
26	290	84	#line 290 "C:\Users\Kawtar\Documents\GitHub\OS_Project\new - Copy\Main.nxc"
26	291	84	#line 291 "C:\Users\Kawtar\Documents\GitHub\OS_Project\new - Copy\Main.nxc"
26	292	84		release moveMutex
26	291	85	#line 291 "C:\Users\Kawtar\Documents\GitHub\OS_Project\new - Copy\Main.nxc"
26	294	85	#line 294 "C:\Users\Kawtar\Documents\GitHub\OS_Project\new - Copy\Main.nxc"
26	295	85		jmp __NXC_Label_813
26	294	87	#line 294 "C:\Users\Kawtar\Documents\GitHub\OS_Project\new - Copy\Main.nxc"
26	295	87		exit -1, -1
27	295	0	#line 295 "C:\Users\Kawtar\Documents\GitHub\OS_Project\new - Copy\Main.nxc"
27	296	0		subret ____initialize_global_data_return
#CLUMPS
Clump	Name	Offset	File
0	main	0	C:\Users\Kawtar\Documents\GitHub\OS_Project\new - Copy\Main.nxc
1	__RotateMotor6	7	NXTDefs.h
2	__RotateMotorVar	176	NXTDefs.h
3	__ResetSensorSubroutine	220	NXTDefs.h
4	__ReadLSBytes0	233	NXTDefs.h
5	__ReadLSBytes1	318	NXTDefs.h
6	__ReadLSBytes2	403	NXTDefs.h
7	PlaySound	488	NXCDefs.h
8	stopRotor	931	C:\Users\Kawtar\Documents\GitHub\OS_Project\new - Copy\.\Header.nxc
9	close	962	C:\Users\Kawtar\Documents\GitHub\OS_Project\new - Copy\.\Header.nxc
10	open	1010	C:\Users\Kawtar\Documents\GitHub\OS_Project\new - Copy\.\Header.nxc
11	init	1050	C:\Users\Kawtar\Documents\GitHub\OS_Project\new - Copy\Main.nxc
12	getDegreeDiff	1243	C:\Users\Kawtar\Documents\GitHub\OS_Project\new - Copy\Main.nxc
13	backtoOrigin	1275	C:\Users\Kawtar\Documents\GitHub\OS_Project\new - Copy\Main.nxc
14	throwBall	1357	C:\Users\Kawtar\Documents\GitHub\OS_Project\new - Copy\Main.nxc
15	getObjColor	1489	C:\Users\Kawtar\Documents\GitHub\OS_Project\new - Copy\Main.nxc
16	isNotField	1515	C:\Users\Kawtar\Documents\GitHub\OS_Project\new - Copy\Main.nxc
17	checkandthrow	1533	C:\Users\Kawtar\Documents\GitHub\OS_Project\new - Copy\Main.nxc
18	moveTowardObj	1608	C:\Users\Kawtar\Documents\GitHub\OS_Project\new - Copy\Main.nxc
19	changeDirection	1758	C:\Users\Kawtar\Documents\GitHub\OS_Project\new - Copy\Main.nxc
20	moveFwd	1765	C:\Users\Kawtar\Documents\GitHub\OS_Project\new - Copy\Main.nxc
21	moveBwd	1824	C:\Users\Kawtar\Documents\GitHub\OS_Project\new - Copy\Main.nxc
22	reverseDirection	1888	C:\Users\Kawtar\Documents\GitHub\OS_Project\new - Copy\Main.nxc
23	reading	2019	C:\Users\Kawtar\Documents\GitHub\OS_Project\new - Copy\Main.nxc
24	goToPredefined	2414	C:\Users\Kawtar\Documents\GitHub\OS_Project\new - Copy\Main.nxc
25	scanningArenaLeft	3057	C:\Users\Kawtar\Documents\GitHub\OS_Project\new - Copy\Main.nxc
26	scanningArenaRight	3147	C:\Users\Kawtar\Documents\GitHub\OS_Project\new - Copy\Main.nxc
27	__initialize_global_data	3237	C:\Users\Kawtar\Documents\GitHub\OS_Project\new - Copy\Main.nxc
